
ebb6f4b5-7e33-4ad2-9802-e64f2a7cc20c.elf：     文件格式 elf32-littlearm
ebb6f4b5-7e33-4ad2-9802-e64f2a7cc20c.elf
体系结构：arm， 标志 0x00000150：
HAS_SYMS, DYNAMIC, D_PAGED
起始地址 0x00000020

程序头：
0x70000001 off    0x000239b0 vaddr 0x000139b0 paddr 0x000139b0 align 2**2
         filesz 0x00000ae8 memsz 0x00000ae8 flags r--
    LOAD off    0x00010000 vaddr 0x00000000 paddr 0x00000000 align 2**16
         filesz 0x000109e4 memsz 0x000109e4 flags r-x
    LOAD off    0x000209e4 vaddr 0x000109e4 paddr 0x000109e4 align 2**16
         filesz 0x00003e10 memsz 0x00003e10 flags r--
    LOAD off    0x00025000 vaddr 0x00015000 paddr 0x00015000 align 2**16
         filesz 0x000005d4 memsz 0x0000b1b0 flags rw-
 DYNAMIC off    0x000245e0 vaddr 0x000145e0 paddr 0x000145e0 align 2**2
         filesz 0x00000080 memsz 0x00000080 flags rw-

动态节：
  HASH                 0x000147b0
  STRTAB               0x00014720
  SYMTAB               0x00014660
  STRSZ                0x0000008e
  SYMENT               0x00000010
  DEBUG                0x00000000
  REL                  0x000144c8
  RELSZ                0x00000118
  RELENT               0x00000008
  FLAGS_1              0x08000000
  RELCOUNT             0x0000001a
私有标志 = 5000400： [Version5 EABI] [hard-float ABI]

节：
Idx Name          Size      VMA       LMA       File off  Algn
  0 .ta_head      00000020  00000000  00000000  00010000  2**3
                  CONTENTS, ALLOC, LOAD, DATA
  1 .text         000109c4  00000020  00000020  00010020  2**2
                  CONTENTS, ALLOC, LOAD, READONLY, CODE
  2 .rodata       000020f8  000109e4  000109e4  000209e4  2**2
                  CONTENTS, ALLOC, LOAD, READONLY, DATA
  3 .ARM.extab    00000ebc  00012adc  00012adc  00022adc  2**2
                  CONTENTS, ALLOC, LOAD, READONLY, DATA
  4 .ARM.extab.text.__aeabi_ldivmod 0000000c  00013998  00013998  00023998  2**2
                  CONTENTS, ALLOC, LOAD, READONLY, DATA
  5 .ARM.extab.text.__aeabi_uldivmod 0000000c  000139a4  000139a4  000239a4  2**2
                  CONTENTS, ALLOC, LOAD, READONLY, DATA
  6 .ARM.exidx    00000ae8  000139b0  000139b0  000239b0  2**2
                  CONTENTS, ALLOC, LOAD, READONLY, DATA
  7 .got          00000030  00014498  00014498  00024498  2**2
                  CONTENTS, ALLOC, LOAD, DATA
  8 .dynsym       000000c0  00014660  00014660  00024660  2**2
                  CONTENTS, ALLOC, LOAD, READONLY, DATA
  9 .rel.got      00000048  00014598  00014598  00024598  2**2
                  CONTENTS, ALLOC, LOAD, READONLY, DATA
 10 .dynamic      00000080  000145e0  000145e0  000245e0  2**2
                  CONTENTS, ALLOC, LOAD, DATA
 11 .dynstr       0000008e  00014720  00014720  00024720  2**0
                  CONTENTS, ALLOC, LOAD, READONLY, DATA
 12 .hash         00000044  000147b0  000147b0  000247b0  2**2
                  CONTENTS, ALLOC, LOAD, READONLY, DATA
 13 .data         000005d4  00015000  00015000  00025000  2**2
                  CONTENTS, ALLOC, LOAD, DATA
 14 .bss          0000abdc  000155d4  000155d4  000255d4  2**2
                  ALLOC
 15 .debug_info   0000db7b  00000000  00000000  000255d4  2**0
                  CONTENTS, READONLY, DEBUGGING
 16 .debug_abbrev 00003bab  00000000  00000000  0003314f  2**0
                  CONTENTS, READONLY, DEBUGGING
 17 .debug_aranges 00000668  00000000  00000000  00036d00  2**3
                  CONTENTS, READONLY, DEBUGGING
 18 .debug_macro  000062c0  00000000  00000000  00037368  2**0
                  CONTENTS, READONLY, DEBUGGING
 19 .debug_line   0000844c  00000000  00000000  0003d628  2**0
                  CONTENTS, READONLY, DEBUGGING
 20 .debug_str    00011f78  00000000  00000000  00045a74  2**0
                  CONTENTS, READONLY, DEBUGGING
 21 .comment      0000002d  00000000  00000000  000579ec  2**0
                  CONTENTS, READONLY
 22 .ARM.attributes 00000038  00000000  00000000  00057a19  2**0
                  CONTENTS, READONLY
 23 .debug_frame  000038a4  00000000  00000000  00057a54  2**2
                  CONTENTS, READONLY, DEBUGGING
 24 .rel.dyn      000000d0  000144c8  000144c8  000244c8  2**2
                  CONTENTS, ALLOC, LOAD, READONLY, DATA
 25 .debug_ranges 00000038  00000000  00000000  0005b2f8  2**3
                  CONTENTS, READONLY, DEBUGGING
SYMBOL TABLE:
00000000 l    d  .ta_head	00000000 .ta_head
00000020 l    d  .text	00000000 .text
000109e4 l    d  .rodata	00000000 .rodata
00012adc l    d  .ARM.extab	00000000 .ARM.extab
00013998 l    d  .ARM.extab.text.__aeabi_ldivmod	00000000 .ARM.extab.text.__aeabi_ldivmod
000139a4 l    d  .ARM.extab.text.__aeabi_uldivmod	00000000 .ARM.extab.text.__aeabi_uldivmod
000139b0 l    d  .ARM.exidx	00000000 .ARM.exidx
00014498 l    d  .got	00000000 .got
00014598 l    d  .rel.got	00000000 .rel.got
000145e0 l    d  .dynamic	00000000 .dynamic
00014660 l    d  .dynsym	00000000 .dynsym
00014720 l    d  .dynstr	00000000 .dynstr
000147b0 l    d  .hash	00000000 .hash
00015000 l    d  .data	00000000 .data
000155d4 l    d  .bss	00000000 .bss
00000000 l    d  .debug_info	00000000 .debug_info
00000000 l    d  .debug_abbrev	00000000 .debug_abbrev
00000000 l    d  .debug_aranges	00000000 .debug_aranges
00000000 l    d  .debug_macro	00000000 .debug_macro
00000000 l    d  .debug_line	00000000 .debug_line
00000000 l    d  .debug_str	00000000 .debug_str
00000000 l    d  .comment	00000000 .comment
00000000 l    d  .ARM.attributes	00000000 .ARM.attributes
00000000 l    d  .debug_frame	00000000 .debug_frame
000144c8 l    d  .rel.dyn	00000000 .rel.dyn
00000000 l    d  .debug_ranges	00000000 .debug_ranges
00000000 l    df *ABS*	00000000 user_ta_header.c
00011470 l     O .rodata	00000001 __compound_literal.0
00011471 l     O .rodata	00000001 __compound_literal.1
00011472 l     O .rodata	00000001 __compound_literal.2
00011474 l     O .rodata	00000004 __compound_literal.3
00011478 l     O .rodata	00000004 __compound_literal.4
0001147c l     O .rodata	00000004 __compound_literal.5
00000000 l    df *ABS*	00000000 CryptoVerifyTaEntry.c
00000000 l    df *ABS*	00000000 CryptoVerifyTaHandle.c
00000360 l     F .text	00000040 l_CryptoTaHandle_SetAes128Key
000003a0 l     F .text	000000a0 l_CryptoTaHandle_SetAesAction
00000440 l     F .text	000000c4 l_CryptoTaHandle_SetRsa1024Key
00000504 l     F .text	000000c4 l_CryptoTaHandle_SetRsa2048Key
00000000 l    df *ABS*	00000000 CryptoVerifyTaAes.c
00000000 l    df *ABS*	00000000 CryptoVerifyTaHash.c
00000000 l    df *ABS*	00000000 CryptoVerifyTaPbkdf2.c
000012ac l     F .text	000002c4 l_CryptoTaPbkdf_HMAC
00000000 l    df *ABS*	00000000 CryptoVerifyTaDebug.c
00000000 l    df *ABS*	00000000 CryptoVerifyTaOther.c
00010f80 l     O .rodata	00000100 map
000154e4 l     O .data	00000004 codes
000019e4 l     F .text	00000250 l_DeviceIdTaBase64_encode
00001c34 l     F .text	00000130 l_DeviceIdTaBase64_decode
00000000 l    df *ABS*	00000000 CryptoVerifyTaRsa.c
00001e30 l     F .text	00000048 l_CryptoTaRsa_CleanUpKeyPairObj
00001e78 l     F .text	00000048 l_CryptoTaRsa_CleanUpPublicHandle
00001ec0 l     F .text	000001a4 l_CryptoTaRsa_SetRsaPrivateKey
00002064 l     F .text	00000178 l_CryptoTaRsa_SetRsaPublicKey
00000000 l    df *ABS*	00000000 tee_api.c
00011578 l     O .rodata	00000004 DEFAULT_TEE_MALLOC_HINT
0001d620 l     O .bss	00000004 tee_api_instance_data
00000000 l    df *ABS*	00000000 tee_api_operations.c
00004278 l     F .text	00000048 init_hash_operation
00004474 l     F .text	00000310 tee_buffer_update
00000000 l    df *ABS*	00000000 user_ta_entry.c
00005cf8 l     F .text	00000010 __utee_gprof_init
00005d08 l     F .text	00000010 __utee_gprof_fini
000155ac l     O .data	00000008 ta_sessions
0001d648 l     O .bss	00000004 ta_ref_count
0001d64c l     O .bss	00000001 context_init
00005d18 l     F .text	00000058 ta_header_save_params
00005d70 l     F .text	00000044 ta_header_get_session
00005db4 l     F .text	00000128 ta_header_add_session
00005edc l     F .text	0000009c ta_header_remove_session
00005f78 l     F .text	0000008e entry_open_session
00006006 l     F .text	00000040 entry_close_session
00006046 l     F .text	00000070 entry_invoke_command
00000000 l    df *ABS*	00000000 utee_syscalls_a32.o
00000000 l    df *ABS*	00000000 gprof_a32.o
00000000 l    df *ABS*	00000000 tee_user_mem.c
0001157c l     O .rodata	00000004 DEFAULT_TEE_MALLOC_HINT
000155b4 l     O .data	00000004 ARTIST
00011580 l     O .rodata	00000004 CANARY_LINE_SIZE
00006748 l     F .text	0000001e buf_addr
00006766 l     F .text	00000028 buf_size
0000678e l     F .text	0000001e elem_addr
000067ac l     F .text	00000048 is_buffer_valid
000067f4 l     F .text	00000068 print_buf
0001d650 l     O .bss	00000004 heap_level
0001d654 l     O .bss	00000008 global_stats
0000685c l     F .text	00000060 heap_inc
000068bc l     F .text	00000064 heap_dec
00006920 l     F .text	00000064 check_elem_end
00011680 l     O .rodata	0000000f __func__.6246
00006984 l     F .text	000000dc check_elem
00011690 l     O .rodata	0000000b __func__.6251
00006a60 l     F .text	00000060 is_mem_coherent
0001169c l     O .rodata	00000010 __func__.6256
000116ac l     O .rodata	00000013 __func__.6271
000116c0 l     O .rodata	00000012 __func__.6288
000116d4 l     O .rodata	00000018 __func__.6296
00006e58 l     F .text	00000068 tee_user_mem_status
000116ec l     O .rodata	00000014 __func__.6301
00000000 l    df *ABS*	00000000 assert.c
00000000 l    df *ABS*	00000000 tee_api_arith.c
0001d65c l     O .bss	00001b00 mempool_u32
000155c0 l     O .data	00000004 mempool
00006f58 l     F .text	00000028 TEE_BigInt_Panic
00000000 l    df *ABS*	00000000 trace_ext.c
00000000 l    df *ABS*	00000000 bget_malloc.c
00007a4c l     F .text	00000014 malloc_lock
00007a60 l     F .text	00000018 malloc_unlock
00007a78 l     F .text	0000001a tag_asan_free
00007a92 l     F .text	0000001a tag_asan_alloced
00007aac l     F .text	00000024 memset_unchecked
000155c4 l     O .data	00000010 freelist
0001f15c l     O .bss	00000004 totalloc
0001f160 l     O .bss	00000004 numget
0001f164 l     O .bss	00000004 numrel
00011b90 l     O .rodata	00000005 __func__.5667
00011b98 l     O .rodata	00000006 __func__.5681
00011ba0 l     O .rodata	00000006 __func__.5689
00011ba8 l     O .rodata	00000005 __func__.5696
00011bb0 l     O .rodata	00000006 __func__.5704
00011bb8 l     O .rodata	00000007 __func__.5713
0001f168 l     O .bss	00000004 malloc_pool
0001f16c l     O .bss	00000004 malloc_pool_len
0001f170 l     O .bss	00000038 mstats
000083a8 l     F .text	0000009c raw_malloc_return_hook
000084e8 l     F .text	00000010 raw_malloc_validate_pools
000084f8 l     F .text	00000030 bpool_foreach_iterator_init
00008528 l     F .text	000000d8 bpool_foreach_pool
00011bc0 l     O .rodata	00000013 __func__.5752
00008600 l     F .text	00000080 bpool_foreach
00008680 l     F .text	0000005e raw_malloc
000086de l     F .text	00000024 raw_free
00008702 l     F .text	00000070 raw_calloc
00008772 l     F .text	00000060 raw_realloc
000087d2 l     F .text	0000015e create_free_block
00011bd4 l     O .rodata	00000012 __func__.5799
00008930 l     F .text	0000015c brel_before
00011be8 l     O .rodata	0000000c __func__.5808
00008a8c l     F .text	00000220 brel_after
00011bf4 l     O .rodata	0000000b __func__.5818
00008cac l     F .text	00000148 raw_memalign
00011c00 l     O .rodata	0000000d __func__.5832
00008df4 l     F .text	0000005c bget_buf_size
00011c10 l     O .rodata	0000000e __func__.5838
00008ede l     F .text	00000028 realloc_unlocked
00008f6a l     F .text	00000026 get_payload_start_size
00011c20 l     O .rodata	00000010 __func__.5884
00000000 l    df *ABS*	00000000 snprintk.c
00011c30 l     O .rodata	00000011 hexdigits
00011c44 l     O .rodata	00000011 HEXDIGITS
000093ec l     F .text	00000df4 kprintf
0000934e l     F .text	0000009e uuid2str
00000000 l    df *ABS*	00000000 trace.c
0000a24c l     F .text	0000005c trace_level_to_string
00011cd8 l     O .rodata	0000002d lvl_strs.5538
00000000 l    df *ABS*	00000000 arm32_aeabi_ldivmod_a32.o
00000000 l    df *ABS*	00000000 mpa_misc.c
00000000 l    df *ABS*	00000000 mpa_montgomery.c
00000000 l    df *ABS*	00000000 mpa_primetest.c
00012970 l     O .rodata	000000b8 const_small_prime_factors
00012a28 l     O .rodata	00000010 const_miller_rabin_proof_limit
00012a38 l     O .rodata	0000000c const_two
0000adb4 l     F .text	0000009a is_small_prime
0000ae4e l     F .text	00000062 has_small_factors
0000aeb0 l     F .text	000002c4 primality_test_miller_rabin
0000ad7a l     F .text	0000003a check_table
00012a44 l     O .rodata	0000001c proof_a.5919
00000000 l    df *ABS*	00000000 mpa_random.c
0001f1a8 l     O .bss	00000004 get_rng_array
0000b19c l     F .text	00000034 get_random_byte
00000000 l    df *ABS*	00000000 mpa_expmod.c
00000000 l    df *ABS*	00000000 mpa_io.c
0000b508 l     F .text	00000042 __mpa_isspace
0000b54a l     F .text	00000084 __mpa_is_char_in_base
0000b5ce l     F .text	00000058 __mpa_digit_value
0000b626 l     F .text	00000022 __mpa_digitstr_to_binary_wsize_base_16
0000b648 l     F .text	00000050 __mpa_nibble_to_char
0000b698 l     F .text	00000066 __mpa_word_to_hexstr
0000b6fe l     F .text	00000128 __mpa_mpanum_to_hexstr
0000b826 l     F .text	00000050 __mpa_count_leading_zero_bits
0000b876 l     F .text	00000064 __mpa_size_in_base_255
00012ac4 l     O .rodata	0000000c __func__.5993
0001f1ac l     O .bss	00001002 buf.5979
00012ad0 l     O .rodata	0000000c __func__.6007
0000bcb0 l     F .text	00000064 set_word
0000be00 l     F .text	00000044 get_word
00000000 l    df *ABS*	00000000 tee_api_objects.c
00000000 l    df *ABS*	00000000 tee_api_panic.c
00000000 l    df *ABS*	00000000 utee_misc.c
00000000 l    df *ABS*	00000000 snprintf.c
00000000 l    df *ABS*	00000000 memcmp.c
00000000 l    df *ABS*	00000000 memcpy.c
00000000 l    df *ABS*	00000000 memmove.c
00000000 l    df *ABS*	00000000 memset.c
00000000 l    df *ABS*	00000000 strlen.c
00000000 l    df *ABS*	00000000 buf_compare_ct.c
00000000 l    df *ABS*	00000000 aeabi_unwind.c
00000000 l    df *ABS*	00000000 memchr.c
00000000 l    df *ABS*	00000000 arm32_aeabi_ldivmod.c
0000d75c l     F .text	000000ee division_lqr
0000d84a l     F .text	0000006a ul_div_qr
00000000 l    df *ABS*	00000000 mpa_conv.c
00000000 l    df *ABS*	00000000 mpa_div.c
0000db52 l     F .text	000000d8 __mpa_soft_div
0000dc82 l     F .text	0000061a __mpa_div_q_r_internal
00000000 l    df *ABS*	00000000 mpa_gcd.c
0000e5ee l     F .text	000000f4 __mpa_divby2
0000e6e2 l     F .text	000002c8 __mpa_egcd
0000e9aa l     F .text	0000015a __mpa_gcd
00000000 l    df *ABS*	00000000 mpa_mem_static.c
00000000 l    df *ABS*	00000000 mpa_mul.c
00000000 l    df *ABS*	00000000 mpa_shift.c
00000000 l    df *ABS*	00000000 mpa_addsub.c
00000000 l    df *ABS*	00000000 mpa_cmp.c
00000000 l    df *ABS*	00000000 mpa_init.c
00000000 l    df *ABS*	00000000 mpa_modulus.c
00000000 l    df *ABS*	00000000 
000145e0 l     O *ABS*	00000000 _DYNAMIC
00014498 l     O *ABS*	00000000 _GLOBAL_OFFSET_TABLE_
000066c0 g     F .text	00000018 utee_se_channel_transmit
00007a14 g     F .text	00000038 putchar
000106f8 g     F .text	0000004c mpa_init_static
0000c50a g     F .text	0000012e TEE_PopulateTransientObject
0000a660 g     F .text	00000048 mpa_copy
00007814 g     F .text	0000004c TEE_BigIntConvertToFMM
00007674 g     F .text	00000024 TEE_BigIntSquareMod
00007254 g     F .text	0000002a TEE_BigIntShiftRight
0000da58 g     F .text	00000096 mpa_get_S32
00015034 g     O .data	00000017 g_SaltBuf
0000a6da g     F .text	00000080 mpa_highest_bit_index
000064b0 g     F .text	00000018 utee_storage_obj_create
0000d926 g     F .text	000000e6 __l_divmod
00006684 g     F .text	00000014 utee_se_session_close
00006130 g     F .text	00000014 utee_return
000042c0 g     F .text	0000005c TEE_DigestUpdate
000065e0 g     F .text	00000014 utee_se_service_get_readers
000152dc g     O .data	00000100 g_Publickey2048_D
00003134 g     F .text	00000020 TEE_Realloc
0000e29c g     F .text	00000132 __mpa_div_q_r_internal_word
00006c08 g     F .text	000000ac tee_user_mem_realloc
00003f20 g     F .text	00000230 TEE_SetOperationKey2
0000ffb4 g     F .text	00000202 mpa_sub
00007974 g     F .text	00000068 printf
00000e04 g     F .text	000001a0 g_CryptoTaHash_sha
00006cb4 g     F .text	00000110 tee_user_mem_free
00006144 g     F .text	00000014 utee_log
00011d34 g     O .rodata	00000004 NR_STORED_PRIMES
0000c638 g     F .text	0000004c TEE_InitRefAttribute
00002d9a g     F .text	00000090 TEE_InvokeTACommand
0000a7c4 g     F .text	00000032 mpa_can_hold
0000f130 g     F .text	000000ae __mpa_abs_mul_word
00005138 g     F .text	000001fc TEE_AEEncryptFinal
0000acd8 g     F .text	0000004c mpa_montgomery_mul
000092ae g     F .text	0000002e vsnprintk
0000a7f6 g     F .text	0000002a mpa_parity
0000d2a0 g     F .text	0000013e memmove
0000fa90 g     F .text	00000064 __mpa_full_adder_ackum
0000d08c g     F .text	0000003c snprintf
00007230 g     F .text	00000024 TEE_BigIntCmpS32
0000c684 g     F .text	0000004c TEE_InitValueAttribute
0000d618 g     F .text	00000010 __aeabi_unwind_cpp_pr0
000072d0 g     F .text	00000038 TEE_BigIntAdd
00006184 g     F .text	00000014 utee_get_property_name_to_index
000155d4 g     O .bss	00000004 g_pOperationHandle
0001146c g     O .rodata	00000004 ta_heap_size
00011d30 g     O .rodata	00000004 MAX_TABULATED_PRIME
0000c4aa g     F .text	00000060 TEE_ResetTransientObject
000155e0 g     O .bss	00000018 g_PublicKeyAttr
0000cff6 g     F .text	0000001c utee_malloc
00006268 g     F .text	00000018 utee_cryp_state_alloc
00006438 g     F .text	00000018 utee_authenc_enc_final
0000f0a8 g     F .text	00000088 __mpa_mul_add_word_cum
000043dc g     F .text	00000098 TEE_CipherInit
00007340 g     F .text	00000026 TEE_BigIntNeg
0000e518 g     F .text	000000d6 mpa_div
00000020 g       .text	00000000 __text_start
000155fc g     O .bss	00000024 g_PrivateKeyAttr
0000cc56 g     F .text	0000005a TEE_StartPersistentObjectEnumerator
00011d24 g     O .rodata	0000000c const_one
000091b6 g     F .text	000000c2 malloc_buffer_overlaps_heap
000105a0 g     F .text	00000026 __mpa_abs_less_than
00007534 g     F .text	00000084 TEE_BigIntSubMod
00004e54 g     F .text	000000e6 TEE_AEInit
0000b1d0 g     F .text	0000013c mpa_get_random
000154e8 g     O .data	0000004d g_RsaRaw
0000d06c g     F .text	00000020 get_rng_array
0000a2a8 g     F .text	000002ec trace_printf
000065b8 g     F .text	00000014 utee_se_service_open
0000d1ae g     F .text	000000f2 memcpy
00006294 g     F .text	00000014 utee_cryp_state_free
0000a62c g     F .text	00000034 mpa_wipe
00007860 g     F .text	00000090 TEE_BigIntConvertFromFMM
0000cfc8 g     F .text	0000001a TEE_Panic
000066ac g     F .text	00000014 utee_se_channel_get_select_resp
0000a5cc g     F .text	00000018 __aeabi_uldivmod
00004150 g     F .text	00000128 TEE_CopyOperation
000079dc g     F .text	00000038 puts
000078f0 g     F .text	0000004c TEE_BigIntComputeFMM
0000daee g     F .text	00000032 mpa_set_word
000084a4 g     F .text	00000044 malloc_get_stats
0000f5be g     F .text	00000228 mpa_shift_left
00006314 g     F .text	00000018 utee_cipher_final
0000f2ea g     F .text	000000c4 mpa_mul
000030e8 g     F .text	0000002c TEE_GetREETime
0000cb92 g     F .text	00000060 TEE_AllocatePersistentObjectEnumerator
0001553c g     O .data	0000006c ta_props
0000278c g     F .text	00000318 g_CryptoTaRsa_rsaVerifyOper
00005518 g     F .text	00000196 TEE_AsymmetricEncrypt
00008e50 g     F .text	00000032 malloc
0000637c g     F .text	00000014 utee_cryp_obj_close
0000661c g     F .text	00000014 utee_se_reader_open_session
0000d0c8 g     F .text	0000002e vsnprintf
0000c7d4 g     F .text	000000f0 TEE_GenerateKey
00015538 g     O .data	00000004 trace_level
0000cfe2 g     F .text	00000014 utee_get_ta_exec_id
00007208 g     F .text	00000028 TEE_BigIntCmp
0000d012 g     F .text	00000020 utee_realloc
00011574 g     O .rodata	00000004 ta_num_props
00007dcc g     F .text	00000094 bgetr
00015150 g     O .data	00000004 g_PublicKey1024Len_D
00006420 g     F .text	00000018 utee_authenc_update_payload
00004784 g     F .text	000001bc TEE_CipherUpdate
00007126 g     F .text	0000006a TEE_BigIntConvertToOctetString
00003bbc g     F .text	000001a0 TEE_GetOperationInfoMultiple
000066ec g     F .text	00000014 utee_cache_operation
000063f4 g     F .text	00000018 utee_authenc_init
0000727e g     F .text	0000002e TEE_BigIntGetBit
00011464 g     O .rodata	00000008 trace_ext_prefix
0000faf4 g     F .text	00000114 __mpa_abs_add
00000828 g     F .text	00000264 g_CryptoTaHandle_Rsa
00007d38 g     F .text	00000094 bgetz
00002f30 g     F .text	0000001c TEE_GetInstanceData
00002fe6 g     F .text	00000038 TEE_Wait
00006568 g     F .text	00000014 utee_storage_obj_write
0000ef9e g     F .text	00000090 mpa_free_static_temp_var
0000ad24 g     F .text	00000056 mpa_is_prob_prime
0000d638 g     F .text	00000010 __aeabi_unwind_cpp_pr2
000066d8 g     F .text	00000014 utee_se_channel_close
0000f3ae g     F .text	000000aa mpa_mul_word
00003192 g     F .text	00000024 TEE_CacheFlush
000000c4 g     F .text	0000002c TA_DestroyEntryPoint
00006efc g     F .text	00000048 _assert_log
00007092 g     F .text	0000002e TEE_BigIntFMMContextSizeInU32
000153dc g     O .data	00000004 g_PublicKey2048Len_D
00004d7a g     F .text	000000da TEE_MACCompareFinal
0000cafe g     F .text	00000094 TEE_RenamePersistentObject
0000431c g     F .text	000000c0 TEE_DigestDoFinal
0000e3ce g     F .text	0000014a __mpa_div_q_r
00006f80 g     F .text	00000044 _TEE_MathAPI_Init
00006540 g     F .text	00000014 utee_storage_next_enum
00015620 g     O .bss	00008000 ta_heap
00007698 g     F .text	00000068 TEE_BigIntInvMod
00000090 g     F .text	00000034 TA_CloseSessionEntryPoint
000056ae g     F .text	00000196 TEE_AsymmetricDecrypt
0000c8c4 g     F .text	000000c6 TEE_OpenPersistentObject
00006158 g     F .text	00000014 __utee_panic
00006280 g     F .text	00000014 utee_cryp_state_copy
000000f0 g     F .text	00000270 TA_InvokeCommandEntryPoint
0000bd14 g     F .text	000000ec mpa_set_oct_str
0000666c g     F .text	00000018 utee_se_session_open_channel
0000f458 g     F .text	000000b2 __mpa_shift_words_left
00006368 g     F .text	00000014 utee_cryp_obj_alloc
00006254 g     F .text	00000014 utee_set_ta_time
00006354 g     F .text	00000014 utee_cryp_obj_get_attr
0000c6d0 g     F .text	0000004c TEE_CopyObjectAttributes
0000a96c g     F .text	0000011a __mpa_montgomery_sub_ack
00008ea8 g     F .text	00000036 calloc
00003114 g     F .text	00000020 TEE_Malloc
00006218 g     F .text	00000014 utee_mask_cancellation
00006390 g     F .text	00000014 utee_cryp_obj_reset
00002ec6 g     F .text	00000042 TEE_CheckMemoryAccessRights
000201b0 g       .bss	00000000 __gprof_buf_end
0000d8b4 g     F .text	00000072 __ul_divmod
000101b6 g     F .text	0000002a mpa_neg
00015154 g     O .data	00000080 g_Publickey1024_E
000155d8 g     O .bss	00000004 g_MaxKeySize
00011d38 g     O .rodata	00000c38 PRIME_TABLE
0000cd6a g     F .text	00000088 TEE_ReadObjectData
0000c218 g     F .text	000000c2 TEE_GetObjectBufferAttribute
00000050 g     F .text	00000040 TA_OpenSessionEntryPoint
0000eb04 g     F .text	000000ec mpa_gcd
0000a6a8 g     F .text	00000032 mpa_abs
0000652c g     F .text	00000014 utee_storage_start_enum
00003b1c g     F .text	0000004a TEE_FreeOperation
0000b8ee g     F .text	00000332 mpa_set_str
000064dc g     F .text	00000014 utee_storage_obj_rename
0001d624 g     O .bss	00000004 ta_param_types
0000bf70 g     F .text	00000156 __utee_from_attr
00006728 g     F .text	00000014 utee_testDriver_dump
000150cc g     O .data	00000004 g_PublicKey1024Len_N
000077c8 g     F .text	0000004c TEE_BigIntIsProbablePrime
0000ef78 g     F .text	00000026 mpa_alloc_static_temp_var
0000cab4 g     F .text	0000004a TEE_CloseAndDeletePersistentObject1
000155f8 g     O .bss	00000004 g_KeyPairObjHandle
0000b174 g     F .text	00000028 mpa_set_random_generator
0000616c g     F .text	00000018 utee_get_property
0001504c g     O .data	00000080 g_Publickey1024_N
00005334 g     F .text	000001e4 TEE_AEDecryptFinal
00006fc4 g     F .text	0000001e TEE_BigIntInit
00006700 g     F .text	00000014 utee_testDriver_write
00002f4c g     F .text	00000024 TEE_MemMove
000070c0 g     F .text	00000066 TEE_BigIntConvertFromOctetString
000155a8 g     O .data	00000004 _ref__utee_mcount
00004b90 g     F .text	00000072 TEE_MACInit
00005844 g     F .text	00000180 TEE_AsymmetricSignDigest
0000d648 g     F .text	00000114 memchr
00002e5e g     F .text	00000034 TEE_UnmaskCancellation
0000c0c6 g     F .text	0000006e TEE_GetObjectInfo
000108ac g     F .text	00000050 mpa_mul_mod
000150d0 g     O .data	00000080 g_Publickey1024_D
000064c8 g     F .text	00000014 utee_storage_obj_del
00004fb4 g     F .text	00000184 TEE_AEUpdate
00006590 g     F .text	00000014 utee_storage_obj_seek
0000c44a g     F .text	00000060 TEE_FreeTransientObject
0000abb6 g     F .text	00000122 mpa_compute_fmm_context
000062bc g     F .text	00000014 utee_hash_update
0000edca g     F .text	00000048 mpa_init_scratch_mem_sync
00015010 g     O .data	00000010 g_Aes128Iv
0000673c  w    F .text	0000000c __utee_mcount
00003b66 g     F .text	00000056 TEE_GetOperationInfo
00007434 g     F .text	0000007c TEE_BigIntMod
0000257c g     F .text	00000210 g_CryptoTaRsa_rsaSignOper
00006698 g     F .text	00000014 utee_se_channel_select_next
000061b0 g     F .text	00000014 utee_close_ta_session
000073d4 g     F .text	00000060 TEE_BigIntDiv
00008444 g     F .text	00000060 malloc_reset_stats
000021dc g     F .text	000001d0 g_CryptoTaRsa_rsaEncOper
000062fc g     F .text	00000018 utee_cipher_update
000152d8 g     O .data	00000004 g_PublicKey2048Len_N
00001570 g     F .text	00000390 g_CryptoTaPbkdf_PBKDF2
0000c1cc g     F .text	0000004c TEE_RestrictObjectUsage1
00006658 g     F .text	00000014 utee_se_session_get_atr
00008f06 g     F .text	0000002e realloc
000007cc g     F .text	0000005c g_CryptoTaHandle_Pbkdf
0000fc08 g     F .text	000000e6 __mpa_abs_add_ackum
00006480 g     F .text	00000018 utee_asymm_verify
00007366 g     F .text	0000003a TEE_BigIntMul
00003d5c g     F .text	00000080 TEE_ResetOperation
0000db20 g     F .text	00000032 mpa_get_word
000005c8 g     F .text	0000003a g_CryptoTaHandle_Random
00002f94 g     F .text	00000026 TEE_MemFill
0000d0f6 g     F .text	000000b8 memcmp
00008f90 g     F .text	00000188 malloc_add_pool
00004c02 g     F .text	00000082 TEE_MACUpdate
0000a228 g     F .text	00000024 trace_get_level
000063e0 g     F .text	00000014 utee_cryp_random_number_generate
0000c180 g     F .text	0000004c TEE_RestrictObjectUsage
0000706c g     F .text	00000026 TEE_BigIntFMMSizeInU32
00006fe2 g     F .text	00000040 TEE_BigIntInitFMM
00006468 g     F .text	00000018 utee_asymm_operate
0000c3b8 g     F .text	00000032 TEE_CloseObject
000060b6 g     F .text	00000066 __utee_entry
00000602 g     F .text	0000006e g_CryptoTaHandle_Sha
000109e4 g       .text	00000000 __text_end
00007700 g     F .text	0000007c TEE_BigIntRelativePrime
0000b30c g     F .text	0000006c mpa_get_random_digits
000081c0 g     F .text	00000124 bpool
0000da0c g     F .text	0000004c mpa_set_S32
00010744 g     F .text	0000009c mpa_init_static_fmm_context
00002e2a g     F .text	00000034 TEE_GetCancellationFlag
000065cc g     F .text	00000014 utee_se_service_close
00006ac0 g     F .text	00000148 tee_user_mem_alloc
000155b8 g     O .data	00000008 user_mem_head
000030a2 g     F .text	00000046 TEE_SetTAPersistentTime
000101e0 g     F .text	0000014a mpa_add_word
000065f4 g     F .text	00000014 utee_se_reader_get_prop
0000d3de g     F .text	0000011c memset
0000301e g     F .text	00000084 TEE_GetTAPersistentTime
0000a594 g     F .text	0000001e dhex_dump
0000c98a g     F .text	000000f8 TEE_CreatePersistentObject
00002e92 g     F .text	00000034 TEE_MaskCancellation
0000fa28 g     F .text	00000068 __mpa_full_sub
00004f3a g     F .text	0000007a TEE_AEUpdateAAD
00006554 g     F .text	00000014 utee_storage_obj_read
0000ce70 g     F .text	0000006c TEE_TruncateObjectData
0000d032 g     F .text	00000020 utee_calloc
000063a4 g     F .text	00000014 utee_cryp_obj_populate
000105c6 g     F .text	0000008a mpa_cmp
000019a8 g     F .text	0000003c g_CryptoTaOther_Random
000108fc g     F .text	000000e8 mpa_inv_mod
0001032a g     F .text	0000014e mpa_sub_word
0000f02e g     F .text	0000007a __mpa_mul_add_word
0000fdda g     F .text	000001da mpa_add
0000b378 g     F .text	00000190 mpa_exp_mod
0000c134 g     F .text	0000004c TEE_GetObjectInfo1
0000f50a g     F .text	000000b4 __mpa_shift_words_right
0000a1e0 g     F .text	00000048 trace_set_level
00000fa4 g     F .text	00000308 g_CryptoTaHash_hmac
00006644 g     F .text	00000014 utee_se_session_is_closed
0000632c g     F .text	00000014 utee_cryp_obj_get_info
0000c2da g     F .text	000000de TEE_GetObjectValueAttribute
00003ddc g     F .text	00000144 TEE_SetOperationKey
000064f0 g     F .text	00000014 utee_storage_alloc_enum
00006518 g     F .text	00000014 utee_storage_reset_enum
0000657c g     F .text	00000014 utee_storage_obj_trunc
000107e0 g     F .text	0000002c mpa_mod
00010576 g     F .text	0000002a __mpa_abs_greater_than
000071b2 g     F .text	00000056 TEE_BigIntConvertToS32
000151d8 g     O .data	00000100 g_Publickey2048_N
00007308 g     F .text	00000038 TEE_BigIntSub
000061dc g     F .text	00000014 utee_get_cancellation_flag
000062a8 g     F .text	00000014 utee_hash_init
0000bf5c g     F .text	00000014 tahead_get_trace_level
00002aa4 g     F .text	00000166 __utee_from_param
0000cedc g     F .text	000000ec TEE_SeekObjectData
00011d14 g     O .rodata	00000010 Const_1_LShift_Base
00002c0a g     F .text	000000fa __utee_to_param
00008f34 g     F .text	00000036 memalign
00004940 g     F .text	00000250 TEE_CipherDoFinal
00007190 g     F .text	00000022 TEE_BigIntConvertFromS32
0001085c g     F .text	00000050 mpa_sub_mod
00006340 g     F .text	00000014 utee_cryp_obj_restrict_usage
00009118 g     F .text	0000009e malloc_buffer_is_within_alloced
000063b8 g     F .text	00000014 utee_cryp_obj_copy
0000f7e6 g     F .text	000001de mpa_shift_right
00007022 g     F .text	0000004a TEE_BigIntInitFMMContext
000063cc g     F .text	00000014 utee_cryp_derive_key
0000aa86 g     F .text	00000130 __mpa_montgomery_mul
0000be44 g     F .text	00000116 mpa_get_oct_str
00010650 g     F .text	000000a8 mpa_cmp_short
00000b50 g     F .text	000002b4 g_CryptoTaAes_AesOper
00006450 g     F .text	00000018 utee_authenc_dec_final
0000cdf2 g     F .text	0000007e TEE_WriteObjectData
0000cc24 g     F .text	00000032 TEE_ResetPersistentObjectEnumerator
00010478 g     F .text	000000fe __mpa_abs_cmp
000073a0 g     F .text	00000034 TEE_BigIntSquare
00000020 g     F .text	00000030 TA_CreateEntryPoint
00009278 g     F .text	00000036 snprintk
000072ac g     F .text	00000024 TEE_BigIntGetBitCount
00001d64 g     F .text	000000cc g_CryptoTaOther_base64
000075b8 g     F .text	000000bc TEE_BigIntMulMod
00000670 g     F .text	0000006c g_CryptoTaHandle_hmac
00005b2c g     F .text	000001a0 TEE_DeriveKey
0001d628 g     O .bss	00000020 ta_params
0000f1de g     F .text	0000010c __mpa_abs_mul
00015000 g     O .data	00000010 g_Aes128Key
00007ad0 g     F .text	00000268 bget
0000c3ea g     F .text	00000060 TEE_AllocateTransientObject
00003154 g     F .text	0000001a TEE_Free
00006608 g     F .text	00000014 utee_se_reader_get_name
000031b6 g     F .text	00000024 TEE_CacheInvalidate
000062e8 g     F .text	00000014 utee_cipher_init
000006dc g     F .text	000000f0 g_CryptoTaHandle_Aes
00006f44 g     F .text	00000014 _assert_break
000074b0 g     F .text	00000084 TEE_BigIntAddMod
00006504 g     F .text	00000014 utee_storage_free_enum
0000640c g     F .text	00000014 utee_authenc_update_aad
0000a75a g     F .text	0000006a mpa_get_bit
000031dc g     F .text	00000940 TEE_AllocateOperation
000153e0 g     O .data	00000100 g_Publickey2048_E
000023ac g     F .text	000001d0 g_CryptoTaRsa_rsaDecOper
0000ee12 g     F .text	00000032 mpa_init_scratch_mem
00005ccc g     F .text	0000002c TEE_GenerateRandom
00002f70 g     F .text	00000024 TEE_MemCompare
000092dc g     F .text	00000072 __vsnprintf
0000cbf2 g     F .text	00000032 TEE_FreePersistentObjectEnumerator
0000611c g     F .text	00000014 utee_panic
00002d04 g     F .text	00000066 TEE_OpenTASession
00006714 g     F .text	00000014 utee_testDriver_read
00000a8c g     F .text	000000c4 g_CryptoTaHandle_base64
0000793c g     F .text	00000024 trace_ext_puts
00006ec0 g     F .text	0000003c tee_user_mem_garbage
00007960 g     F .text	00000014 trace_ext_get_thread_id
0000ca82 g     F .text	00000032 TEE_CloseAndDeletePersistentObject
0000316e g     F .text	00000024 TEE_CacheClean
00006198 g     F .text	00000018 utee_open_ta_session
0000d584 g     F .text	00000094 buf_compare_ct
0000dc2a g     F .text	00000058 __mpa_div_dword
0000a5e4 g     F .text	00000048 __mpa_set_unused_digits_to_zero
00011d08 g     O .rodata	0000000c const_largest_deci_base
0000b8da g     F .text	00000014 mpa_get_str_size
00006de4 g     F .text	00000074 tee_user_mem_check_heap
0000c71c g     F .text	000000b8 TEE_CopyObjectAttributes1
000062d0 g     F .text	00000018 utee_hash_final
0000d4fa g     F .text	0000008a strlen
0000777c g     F .text	0000004c TEE_BigIntComputeExtendedGcd
0000d628 g     F .text	00000010 __aeabi_unwind_cpp_pr1
0000ebf0 g     F .text	000001da mpa_extended_gcd
0001080c g     F .text	00000050 mpa_add_mod
000155dc g     O .bss	00000004 g_PublicKeyObjHandle
00006498 g     F .text	00000018 utee_storage_obj_open
000061c4 g     F .text	00000018 utee_invoke_ta_command
0000bc20 g     F .text	00000090 mpa_get_str
0000622c g     F .text	00000014 utee_wait
0000d052 g     F .text	0000001a utee_free
00006dc4 g     F .text	00000020 tee_user_mem_mark_heap
00002fba g     F .text	0000002c TEE_GetSystemTime
000151d4 g     O .data	00000004 g_PublicKey1024Len_E
00000000 g     O .ta_head	00000020 ta_head
000154e0 g     O .data	00000004 g_PublicKey2048Len_E
00007e60 g     F .text	00000360 brel
00015020 g     O .data	00000013 g_pwdBuf
0000ee44 g     F .text	00000134 mpa_alloc_static_temp_var_size
00006240 g     F .text	00000014 utee_get_time
0000a838 g     F .text	00000134 __mpa_montgomery_mul_add
00002f08 g     F .text	00000028 TEE_SetInstanceData
00006204 g     F .text	00000014 utee_unmask_cancellation
0000a5b4 g     F .text	00000018 __aeabi_ldivmod
000061f0 g     F .text	00000014 utee_check_access_rights
00006630 g     F .text	00000014 utee_se_reader_close_sessions
0000ccb0 g     F .text	000000ba TEE_GetNextPersistentObject
000065a4 g     F .text	00000014 utee_cryp_obj_generate_key
0000a820 g     F .text	00000018 mpa_constant_one
00002d6a g     F .text	00000030 TEE_CloseTASession
000059c4 g     F .text	00000168 TEE_AsymmetricVerifyDigest
00001900 g     F .text	000000a8 g_TA_Printf
0000f9c4 g     F .text	00000064 __mpa_full_adder
0000fcee g     F .text	000000ec __mpa_abs_sub
000201b0 g       .bss	00000000 __gprof_buf_start
00008e82 g     F .text	00000026 free
000082e4 g     F .text	000000c4 bstats
00004c84 g     F .text	000000f6 TEE_MACComputeFinal



Disassembly of section .text:

00000020 <TA_CreateEntryPoint>:
TA_CreateEntryPoint():
/home/st/桌面/OP-TEE/basicAlg_use/ta/CryptoVerifyTaEntry.c:88
      20:	e96d 7e02 	strd	r7, lr, [sp, #-8]!
      24:	b082      	sub	sp, #8
      26:	af02      	add	r7, sp, #8
/home/st/桌面/OP-TEE/basicAlg_use/ta/CryptoVerifyTaEntry.c:89
      28:	4b08      	ldr	r3, [pc, #32]	; (4c <TA_CreateEntryPoint+0x2c>)
      2a:	447b      	add	r3, pc
      2c:	9300      	str	r3, [sp, #0]
      2e:	f04f 0300 	mov.w	r3, #0
      32:	f04f 0200 	mov.w	r2, #0
      36:	f04f 0100 	mov.w	r1, #0
      3a:	f04f 0000 	mov.w	r0, #0
      3e:	f00a f933 	bl	a2a8 <trace_printf>
/home/st/桌面/OP-TEE/basicAlg_use/ta/CryptoVerifyTaEntry.c:91
      42:	f04f 0300 	mov.w	r3, #0
/home/st/桌面/OP-TEE/basicAlg_use/ta/CryptoVerifyTaEntry.c:92
      46:	4618      	mov	r0, r3
      48:	46bd      	mov	sp, r7
      4a:	bd80      	pop	{r7, pc}
      4c:	000109b6 	.word	0x000109b6

00000050 <TA_OpenSessionEntryPoint>:
TA_OpenSessionEntryPoint():
/home/st/桌面/OP-TEE/basicAlg_use/ta/CryptoVerifyTaEntry.c:111
      50:	e96d 7e02 	strd	r7, lr, [sp, #-8]!
      54:	b088      	sub	sp, #32
      56:	af02      	add	r7, sp, #8
      58:	60f8      	str	r0, [r7, #12]
      5a:	60b9      	str	r1, [r7, #8]
      5c:	607a      	str	r2, [r7, #4]
/home/st/桌面/OP-TEE/basicAlg_use/ta/CryptoVerifyTaEntry.c:112
      5e:	f04f 0300 	mov.w	r3, #0
      62:	617b      	str	r3, [r7, #20]
/home/st/桌面/OP-TEE/basicAlg_use/ta/CryptoVerifyTaEntry.c:113
      64:	4b09      	ldr	r3, [pc, #36]	; (8c <TA_OpenSessionEntryPoint+0x3c>)
      66:	447b      	add	r3, pc
      68:	9300      	str	r3, [sp, #0]
      6a:	f04f 0300 	mov.w	r3, #0
      6e:	f04f 0200 	mov.w	r2, #0
      72:	f04f 0100 	mov.w	r1, #0
      76:	f04f 0000 	mov.w	r0, #0
      7a:	f00a f915 	bl	a2a8 <trace_printf>
/home/st/桌面/OP-TEE/basicAlg_use/ta/CryptoVerifyTaEntry.c:119
      7e:	697b      	ldr	r3, [r7, #20]
/home/st/桌面/OP-TEE/basicAlg_use/ta/CryptoVerifyTaEntry.c:120
      80:	4618      	mov	r0, r3
      82:	f107 0718 	add.w	r7, r7, #24
      86:	46bd      	mov	sp, r7
      88:	bd80      	pop	{r7, pc}
      8a:	bf00      	nop
      8c:	000109a6 	.word	0x000109a6

00000090 <TA_CloseSessionEntryPoint>:
TA_CloseSessionEntryPoint():
/home/st/桌面/OP-TEE/basicAlg_use/ta/CryptoVerifyTaEntry.c:134
      90:	e96d 7e02 	strd	r7, lr, [sp, #-8]!
      94:	b084      	sub	sp, #16
      96:	af02      	add	r7, sp, #8
      98:	6078      	str	r0, [r7, #4]
/home/st/桌面/OP-TEE/basicAlg_use/ta/CryptoVerifyTaEntry.c:135
      9a:	4b09      	ldr	r3, [pc, #36]	; (c0 <TA_CloseSessionEntryPoint+0x30>)
      9c:	447b      	add	r3, pc
      9e:	9300      	str	r3, [sp, #0]
      a0:	f04f 0300 	mov.w	r3, #0
      a4:	f04f 0200 	mov.w	r2, #0
      a8:	f04f 0100 	mov.w	r1, #0
      ac:	f04f 0000 	mov.w	r0, #0
      b0:	f00a f8fa 	bl	a2a8 <trace_printf>
/home/st/桌面/OP-TEE/basicAlg_use/ta/CryptoVerifyTaEntry.c:137
      b4:	bf00      	nop
      b6:	f107 0708 	add.w	r7, r7, #8
      ba:	46bd      	mov	sp, r7
      bc:	bd80      	pop	{r7, pc}
      be:	bf00      	nop
      c0:	000109a0 	.word	0x000109a0

000000c4 <TA_DestroyEntryPoint>:
TA_DestroyEntryPoint():
/home/st/桌面/OP-TEE/basicAlg_use/ta/CryptoVerifyTaEntry.c:152
      c4:	e96d 7e02 	strd	r7, lr, [sp, #-8]!
      c8:	b082      	sub	sp, #8
      ca:	af02      	add	r7, sp, #8
/home/st/桌面/OP-TEE/basicAlg_use/ta/CryptoVerifyTaEntry.c:153
      cc:	4b07      	ldr	r3, [pc, #28]	; (ec <TA_DestroyEntryPoint+0x28>)
      ce:	447b      	add	r3, pc
      d0:	9300      	str	r3, [sp, #0]
      d2:	f04f 0300 	mov.w	r3, #0
      d6:	f04f 0200 	mov.w	r2, #0
      da:	f04f 0100 	mov.w	r1, #0
      de:	f04f 0000 	mov.w	r0, #0
      e2:	f00a f8e1 	bl	a2a8 <trace_printf>
/home/st/桌面/OP-TEE/basicAlg_use/ta/CryptoVerifyTaEntry.c:154
      e6:	bf00      	nop
      e8:	46bd      	mov	sp, r7
      ea:	bd80      	pop	{r7, pc}
      ec:	0001099e 	.word	0x0001099e

000000f0 <TA_InvokeCommandEntryPoint>:
TA_InvokeCommandEntryPoint():
/home/st/桌面/OP-TEE/basicAlg_use/ta/CryptoVerifyTaEntry.c:174
      f0:	e96d 7e02 	strd	r7, lr, [sp, #-8]!
      f4:	b088      	sub	sp, #32
      f6:	af02      	add	r7, sp, #8
      f8:	60f8      	str	r0, [r7, #12]
      fa:	60b9      	str	r1, [r7, #8]
      fc:	607a      	str	r2, [r7, #4]
      fe:	603b      	str	r3, [r7, #0]
/home/st/桌面/OP-TEE/basicAlg_use/ta/CryptoVerifyTaEntry.c:175
     100:	f04f 0300 	mov.w	r3, #0
     104:	617b      	str	r3, [r7, #20]
/home/st/桌面/OP-TEE/basicAlg_use/ta/CryptoVerifyTaEntry.c:176
     106:	f04f 33ff 	mov.w	r3, #4294967295	; 0xffffffff
     10a:	613b      	str	r3, [r7, #16]
/home/st/桌面/OP-TEE/basicAlg_use/ta/CryptoVerifyTaEntry.c:178
     10c:	68bb      	ldr	r3, [r7, #8]
     10e:	9301      	str	r3, [sp, #4]
     110:	4b88      	ldr	r3, [pc, #544]	; (334 <TA_InvokeCommandEntryPoint+0x244>)
     112:	447b      	add	r3, pc
     114:	9300      	str	r3, [sp, #0]
     116:	f04f 0300 	mov.w	r3, #0
     11a:	f04f 0200 	mov.w	r2, #0
     11e:	f04f 0100 	mov.w	r1, #0
     122:	f04f 0000 	mov.w	r0, #0
     126:	f00a f8bf 	bl	a2a8 <trace_printf>
/home/st/桌面/OP-TEE/basicAlg_use/ta/CryptoVerifyTaEntry.c:183
     12a:	68bb      	ldr	r3, [r7, #8]
     12c:	f103 33ff 	add.w	r3, r3, #4294967295	; 0xffffffff
     130:	2b0a      	cmp	r3, #10
     132:	f200 80e9 	bhi.w	308 <TA_InvokeCommandEntryPoint+0x218>
     136:	a202      	add	r2, pc, #8	; (adr r2, 140 <TA_InvokeCommandEntryPoint+0x50>)
     138:	f852 3023 	ldr.w	r3, [r2, r3, lsl #2]
     13c:	441a      	add	r2, r3
     13e:	4710      	bx	r2
     140:	0000002d 	.word	0x0000002d
     144:	00000053 	.word	0x00000053
     148:	00000079 	.word	0x00000079
     14c:	0000009f 	.word	0x0000009f
     150:	000001c9 	.word	0x000001c9
     154:	000000c5 	.word	0x000000c5
     158:	000000f3 	.word	0x000000f3
     15c:	00000121 	.word	0x00000121
     160:	0000014f 	.word	0x0000014f
     164:	0000017d 	.word	0x0000017d
     168:	000001a3 	.word	0x000001a3
/home/st/桌面/OP-TEE/basicAlg_use/ta/CryptoVerifyTaEntry.c:186
     16c:	4b72      	ldr	r3, [pc, #456]	; (338 <TA_InvokeCommandEntryPoint+0x248>)
     16e:	447b      	add	r3, pc
     170:	9300      	str	r3, [sp, #0]
     172:	f04f 0300 	mov.w	r3, #0
     176:	f04f 0200 	mov.w	r2, #0
     17a:	f04f 0100 	mov.w	r1, #0
     17e:	f04f 0000 	mov.w	r0, #0
     182:	f00a f891 	bl	a2a8 <trace_printf>
/home/st/桌面/OP-TEE/basicAlg_use/ta/CryptoVerifyTaEntry.c:187
     186:	6839      	ldr	r1, [r7, #0]
     188:	6878      	ldr	r0, [r7, #4]
     18a:	f000 fa1d 	bl	5c8 <g_CryptoTaHandle_Random>
     18e:	6138      	str	r0, [r7, #16]
/home/st/桌面/OP-TEE/basicAlg_use/ta/CryptoVerifyTaEntry.c:188
     190:	e0be      	b.n	310 <TA_InvokeCommandEntryPoint+0x220>
/home/st/桌面/OP-TEE/basicAlg_use/ta/CryptoVerifyTaEntry.c:190
     192:	4b6a      	ldr	r3, [pc, #424]	; (33c <TA_InvokeCommandEntryPoint+0x24c>)
     194:	447b      	add	r3, pc
     196:	9300      	str	r3, [sp, #0]
     198:	f04f 0300 	mov.w	r3, #0
     19c:	f04f 0200 	mov.w	r2, #0
     1a0:	f04f 0100 	mov.w	r1, #0
     1a4:	f04f 0000 	mov.w	r0, #0
     1a8:	f00a f87e 	bl	a2a8 <trace_printf>
/home/st/桌面/OP-TEE/basicAlg_use/ta/CryptoVerifyTaEntry.c:191
     1ac:	6839      	ldr	r1, [r7, #0]
     1ae:	6878      	ldr	r0, [r7, #4]
     1b0:	f000 fa27 	bl	602 <g_CryptoTaHandle_Sha>
     1b4:	6138      	str	r0, [r7, #16]
/home/st/桌面/OP-TEE/basicAlg_use/ta/CryptoVerifyTaEntry.c:192
     1b6:	e0ab      	b.n	310 <TA_InvokeCommandEntryPoint+0x220>
/home/st/桌面/OP-TEE/basicAlg_use/ta/CryptoVerifyTaEntry.c:194
     1b8:	4b61      	ldr	r3, [pc, #388]	; (340 <TA_InvokeCommandEntryPoint+0x250>)
     1ba:	447b      	add	r3, pc
     1bc:	9300      	str	r3, [sp, #0]
     1be:	f04f 0300 	mov.w	r3, #0
     1c2:	f04f 0200 	mov.w	r2, #0
     1c6:	f04f 0100 	mov.w	r1, #0
     1ca:	f04f 0000 	mov.w	r0, #0
     1ce:	f00a f86b 	bl	a2a8 <trace_printf>
/home/st/桌面/OP-TEE/basicAlg_use/ta/CryptoVerifyTaEntry.c:195
     1d2:	6839      	ldr	r1, [r7, #0]
     1d4:	6878      	ldr	r0, [r7, #4]
     1d6:	f000 fa81 	bl	6dc <g_CryptoTaHandle_Aes>
     1da:	6138      	str	r0, [r7, #16]
/home/st/桌面/OP-TEE/basicAlg_use/ta/CryptoVerifyTaEntry.c:196
     1dc:	e098      	b.n	310 <TA_InvokeCommandEntryPoint+0x220>
/home/st/桌面/OP-TEE/basicAlg_use/ta/CryptoVerifyTaEntry.c:198
     1de:	4b59      	ldr	r3, [pc, #356]	; (344 <TA_InvokeCommandEntryPoint+0x254>)
     1e0:	447b      	add	r3, pc
     1e2:	9300      	str	r3, [sp, #0]
     1e4:	f04f 0300 	mov.w	r3, #0
     1e8:	f04f 0200 	mov.w	r2, #0
     1ec:	f04f 0100 	mov.w	r1, #0
     1f0:	f04f 0000 	mov.w	r0, #0
     1f4:	f00a f858 	bl	a2a8 <trace_printf>
/home/st/桌面/OP-TEE/basicAlg_use/ta/CryptoVerifyTaEntry.c:199
     1f8:	6839      	ldr	r1, [r7, #0]
     1fa:	6878      	ldr	r0, [r7, #4]
     1fc:	f000 fae6 	bl	7cc <g_CryptoTaHandle_Pbkdf>
     200:	6138      	str	r0, [r7, #16]
/home/st/桌面/OP-TEE/basicAlg_use/ta/CryptoVerifyTaEntry.c:200
     202:	e085      	b.n	310 <TA_InvokeCommandEntryPoint+0x220>
/home/st/桌面/OP-TEE/basicAlg_use/ta/CryptoVerifyTaEntry.c:202
     204:	4b50      	ldr	r3, [pc, #320]	; (348 <TA_InvokeCommandEntryPoint+0x258>)
     206:	447b      	add	r3, pc
     208:	9300      	str	r3, [sp, #0]
     20a:	f04f 0300 	mov.w	r3, #0
     20e:	f04f 0200 	mov.w	r2, #0
     212:	f04f 0100 	mov.w	r1, #0
     216:	f04f 0000 	mov.w	r0, #0
     21a:	f00a f845 	bl	a2a8 <trace_printf>
/home/st/桌面/OP-TEE/basicAlg_use/ta/CryptoVerifyTaEntry.c:203
     21e:	f04f 0302 	mov.w	r3, #2
     222:	f04f 0201 	mov.w	r2, #1
     226:	6839      	ldr	r1, [r7, #0]
     228:	6878      	ldr	r0, [r7, #4]
     22a:	f000 fafd 	bl	828 <g_CryptoTaHandle_Rsa>
     22e:	6138      	str	r0, [r7, #16]
/home/st/桌面/OP-TEE/basicAlg_use/ta/CryptoVerifyTaEntry.c:204
     230:	e06e      	b.n	310 <TA_InvokeCommandEntryPoint+0x220>
/home/st/桌面/OP-TEE/basicAlg_use/ta/CryptoVerifyTaEntry.c:206
     232:	4b46      	ldr	r3, [pc, #280]	; (34c <TA_InvokeCommandEntryPoint+0x25c>)
     234:	447b      	add	r3, pc
     236:	9300      	str	r3, [sp, #0]
     238:	f04f 0300 	mov.w	r3, #0
     23c:	f04f 0200 	mov.w	r2, #0
     240:	f04f 0100 	mov.w	r1, #0
     244:	f04f 0000 	mov.w	r0, #0
     248:	f00a f82e 	bl	a2a8 <trace_printf>
/home/st/桌面/OP-TEE/basicAlg_use/ta/CryptoVerifyTaEntry.c:207
     24c:	f04f 0302 	mov.w	r3, #2
     250:	f04f 0202 	mov.w	r2, #2
     254:	6839      	ldr	r1, [r7, #0]
     256:	6878      	ldr	r0, [r7, #4]
     258:	f000 fae6 	bl	828 <g_CryptoTaHandle_Rsa>
     25c:	6138      	str	r0, [r7, #16]
/home/st/桌面/OP-TEE/basicAlg_use/ta/CryptoVerifyTaEntry.c:208
     25e:	e057      	b.n	310 <TA_InvokeCommandEntryPoint+0x220>
/home/st/桌面/OP-TEE/basicAlg_use/ta/CryptoVerifyTaEntry.c:210
     260:	4b3b      	ldr	r3, [pc, #236]	; (350 <TA_InvokeCommandEntryPoint+0x260>)
     262:	447b      	add	r3, pc
     264:	9300      	str	r3, [sp, #0]
     266:	f04f 0300 	mov.w	r3, #0
     26a:	f04f 0200 	mov.w	r2, #0
     26e:	f04f 0100 	mov.w	r1, #0
     272:	f04f 0000 	mov.w	r0, #0
     276:	f00a f817 	bl	a2a8 <trace_printf>
/home/st/桌面/OP-TEE/basicAlg_use/ta/CryptoVerifyTaEntry.c:211
     27a:	f04f 0302 	mov.w	r3, #2
     27e:	f04f 0203 	mov.w	r2, #3
     282:	6839      	ldr	r1, [r7, #0]
     284:	6878      	ldr	r0, [r7, #4]
     286:	f000 facf 	bl	828 <g_CryptoTaHandle_Rsa>
     28a:	6138      	str	r0, [r7, #16]
/home/st/桌面/OP-TEE/basicAlg_use/ta/CryptoVerifyTaEntry.c:212
     28c:	e040      	b.n	310 <TA_InvokeCommandEntryPoint+0x220>
/home/st/桌面/OP-TEE/basicAlg_use/ta/CryptoVerifyTaEntry.c:214
     28e:	4b31      	ldr	r3, [pc, #196]	; (354 <TA_InvokeCommandEntryPoint+0x264>)
     290:	447b      	add	r3, pc
     292:	9300      	str	r3, [sp, #0]
     294:	f04f 0300 	mov.w	r3, #0
     298:	f04f 0200 	mov.w	r2, #0
     29c:	f04f 0100 	mov.w	r1, #0
     2a0:	f04f 0000 	mov.w	r0, #0
     2a4:	f00a f800 	bl	a2a8 <trace_printf>
/home/st/桌面/OP-TEE/basicAlg_use/ta/CryptoVerifyTaEntry.c:215
     2a8:	f04f 0302 	mov.w	r3, #2
     2ac:	f04f 0204 	mov.w	r2, #4
     2b0:	6839      	ldr	r1, [r7, #0]
     2b2:	6878      	ldr	r0, [r7, #4]
     2b4:	f000 fab8 	bl	828 <g_CryptoTaHandle_Rsa>
     2b8:	6138      	str	r0, [r7, #16]
/home/st/桌面/OP-TEE/basicAlg_use/ta/CryptoVerifyTaEntry.c:216
     2ba:	e029      	b.n	310 <TA_InvokeCommandEntryPoint+0x220>
/home/st/桌面/OP-TEE/basicAlg_use/ta/CryptoVerifyTaEntry.c:218
     2bc:	4b26      	ldr	r3, [pc, #152]	; (358 <TA_InvokeCommandEntryPoint+0x268>)
     2be:	447b      	add	r3, pc
     2c0:	9300      	str	r3, [sp, #0]
     2c2:	f04f 0300 	mov.w	r3, #0
     2c6:	f04f 0200 	mov.w	r2, #0
     2ca:	f04f 0100 	mov.w	r1, #0
     2ce:	f04f 0000 	mov.w	r0, #0
     2d2:	f009 ffe9 	bl	a2a8 <trace_printf>
/home/st/桌面/OP-TEE/basicAlg_use/ta/CryptoVerifyTaEntry.c:219
     2d6:	6839      	ldr	r1, [r7, #0]
     2d8:	6878      	ldr	r0, [r7, #4]
     2da:	f000 f9c9 	bl	670 <g_CryptoTaHandle_hmac>
     2de:	6138      	str	r0, [r7, #16]
/home/st/桌面/OP-TEE/basicAlg_use/ta/CryptoVerifyTaEntry.c:220
     2e0:	e016      	b.n	310 <TA_InvokeCommandEntryPoint+0x220>
/home/st/桌面/OP-TEE/basicAlg_use/ta/CryptoVerifyTaEntry.c:222
     2e2:	4b1e      	ldr	r3, [pc, #120]	; (35c <TA_InvokeCommandEntryPoint+0x26c>)
     2e4:	447b      	add	r3, pc
     2e6:	9300      	str	r3, [sp, #0]
     2e8:	f04f 0300 	mov.w	r3, #0
     2ec:	f04f 0200 	mov.w	r2, #0
     2f0:	f04f 0100 	mov.w	r1, #0
     2f4:	f04f 0000 	mov.w	r0, #0
     2f8:	f009 ffd6 	bl	a2a8 <trace_printf>
/home/st/桌面/OP-TEE/basicAlg_use/ta/CryptoVerifyTaEntry.c:223
     2fc:	6839      	ldr	r1, [r7, #0]
     2fe:	6878      	ldr	r0, [r7, #4]
     300:	f000 fbc4 	bl	a8c <g_CryptoTaHandle_base64>
     304:	6138      	str	r0, [r7, #16]
/home/st/桌面/OP-TEE/basicAlg_use/ta/CryptoVerifyTaEntry.c:224
     306:	e003      	b.n	310 <TA_InvokeCommandEntryPoint+0x220>
/home/st/桌面/OP-TEE/basicAlg_use/ta/CryptoVerifyTaEntry.c:227
     308:	f04f 33ff 	mov.w	r3, #4294967295	; 0xffffffff
     30c:	613b      	str	r3, [r7, #16]
/home/st/桌面/OP-TEE/basicAlg_use/ta/CryptoVerifyTaEntry.c:228
     30e:	bf00      	nop
/home/st/桌面/OP-TEE/basicAlg_use/ta/CryptoVerifyTaEntry.c:232
     310:	693b      	ldr	r3, [r7, #16]
     312:	f1b3 3fff 	cmp.w	r3, #4294967295	; 0xffffffff
     316:	d103      	bne.n	320 <TA_InvokeCommandEntryPoint+0x230>
/home/st/桌面/OP-TEE/basicAlg_use/ta/CryptoVerifyTaEntry.c:234
     318:	f04f 33ff 	mov.w	r3, #4294967295	; 0xffffffff
     31c:	617b      	str	r3, [r7, #20]
     31e:	e002      	b.n	326 <TA_InvokeCommandEntryPoint+0x236>
/home/st/桌面/OP-TEE/basicAlg_use/ta/CryptoVerifyTaEntry.c:238
     320:	f04f 0300 	mov.w	r3, #0
     324:	617b      	str	r3, [r7, #20]
/home/st/桌面/OP-TEE/basicAlg_use/ta/CryptoVerifyTaEntry.c:242
     326:	697b      	ldr	r3, [r7, #20]
/home/st/桌面/OP-TEE/basicAlg_use/ta/CryptoVerifyTaEntry.c:243
     328:	4618      	mov	r0, r3
     32a:	f107 0718 	add.w	r7, r7, #24
     32e:	46bd      	mov	sp, r7
     330:	bd80      	pop	{r7, pc}
     332:	bf00      	nop
     334:	00010986 	.word	0x00010986
     338:	0001093a 	.word	0x0001093a
     33c:	00010938 	.word	0x00010938
     340:	00010926 	.word	0x00010926
     344:	0001091c 	.word	0x0001091c
     348:	00010912 	.word	0x00010912
     34c:	00010900 	.word	0x00010900
     350:	000108ee 	.word	0x000108ee
     354:	000108dc 	.word	0x000108dc
     358:	000108ce 	.word	0x000108ce
     35c:	000108b8 	.word	0x000108b8

00000360 <l_CryptoTaHandle_SetAes128Key>:
l_CryptoTaHandle_SetAes128Key():
/home/st/桌面/OP-TEE/basicAlg_use/ta/CryptoVerifyTaHandle.c:271
     360:	f84d 7d04 	str.w	r7, [sp, #-4]!
     364:	b083      	sub	sp, #12
     366:	af00      	add	r7, sp, #0
     368:	6078      	str	r0, [r7, #4]
/home/st/桌面/OP-TEE/basicAlg_use/ta/CryptoVerifyTaHandle.c:272
     36a:	687b      	ldr	r3, [r7, #4]
     36c:	4a0a      	ldr	r2, [pc, #40]	; (398 <l_CryptoTaHandle_SetAes128Key+0x38>)
     36e:	447a      	add	r2, pc
     370:	609a      	str	r2, [r3, #8]
/home/st/桌面/OP-TEE/basicAlg_use/ta/CryptoVerifyTaHandle.c:273
     372:	687b      	ldr	r3, [r7, #4]
     374:	4a09      	ldr	r2, [pc, #36]	; (39c <l_CryptoTaHandle_SetAes128Key+0x3c>)
     376:	447a      	add	r2, pc
     378:	60da      	str	r2, [r3, #12]
/home/st/桌面/OP-TEE/basicAlg_use/ta/CryptoVerifyTaHandle.c:274
     37a:	687b      	ldr	r3, [r7, #4]
     37c:	f04f 0280 	mov.w	r2, #128	; 0x80
     380:	615a      	str	r2, [r3, #20]
/home/st/桌面/OP-TEE/basicAlg_use/ta/CryptoVerifyTaHandle.c:275
     382:	687b      	ldr	r3, [r7, #4]
     384:	f04f 0210 	mov.w	r2, #16
     388:	619a      	str	r2, [r3, #24]
/home/st/桌面/OP-TEE/basicAlg_use/ta/CryptoVerifyTaHandle.c:276
     38a:	bf00      	nop
     38c:	f107 070c 	add.w	r7, r7, #12
     390:	46bd      	mov	sp, r7
     392:	f85d 7b04 	ldr.w	r7, [sp], #4
     396:	4770      	bx	lr
     398:	00014c8e 	.word	0x00014c8e
     39c:	00014c96 	.word	0x00014c96

000003a0 <l_CryptoTaHandle_SetAesAction>:
l_CryptoTaHandle_SetAesAction():
/home/st/桌面/OP-TEE/basicAlg_use/ta/CryptoVerifyTaHandle.c:279
     3a0:	f84d 7d04 	str.w	r7, [sp, #-4]!
     3a4:	b085      	sub	sp, #20
     3a6:	af00      	add	r7, sp, #0
     3a8:	60f8      	str	r0, [r7, #12]
     3aa:	f107 0304 	add.w	r3, r7, #4
     3ae:	e883 0006 	stmia.w	r3, {r1, r2}
/home/st/桌面/OP-TEE/basicAlg_use/ta/CryptoVerifyTaHandle.c:280
     3b2:	687b      	ldr	r3, [r7, #4]
     3b4:	2b01      	cmp	r3, #1
     3b6:	d002      	beq.n	3be <l_CryptoTaHandle_SetAesAction+0x1e>
     3b8:	2b02      	cmp	r3, #2
     3ba:	d005      	beq.n	3c8 <l_CryptoTaHandle_SetAesAction+0x28>
/home/st/桌面/OP-TEE/basicAlg_use/ta/CryptoVerifyTaHandle.c:289
     3bc:	e009      	b.n	3d2 <l_CryptoTaHandle_SetAesAction+0x32>
/home/st/桌面/OP-TEE/basicAlg_use/ta/CryptoVerifyTaHandle.c:283
     3be:	68fb      	ldr	r3, [r7, #12]
     3c0:	f04f 0200 	mov.w	r2, #0
     3c4:	621a      	str	r2, [r3, #32]
/home/st/桌面/OP-TEE/basicAlg_use/ta/CryptoVerifyTaHandle.c:284
     3c6:	e004      	b.n	3d2 <l_CryptoTaHandle_SetAesAction+0x32>
/home/st/桌面/OP-TEE/basicAlg_use/ta/CryptoVerifyTaHandle.c:286
     3c8:	68fb      	ldr	r3, [r7, #12]
     3ca:	f04f 0201 	mov.w	r2, #1
     3ce:	621a      	str	r2, [r3, #32]
/home/st/桌面/OP-TEE/basicAlg_use/ta/CryptoVerifyTaHandle.c:287
     3d0:	bf00      	nop
/home/st/桌面/OP-TEE/basicAlg_use/ta/CryptoVerifyTaHandle.c:292
     3d2:	68bb      	ldr	r3, [r7, #8]
     3d4:	f103 33ff 	add.w	r3, r3, #4294967295	; 0xffffffff
     3d8:	2b03      	cmp	r3, #3
     3da:	d829      	bhi.n	430 <l_CryptoTaHandle_SetAesAction+0x90>
     3dc:	a202      	add	r2, pc, #8	; (adr r2, 3e8 <l_CryptoTaHandle_SetAesAction+0x48>)
     3de:	f852 3023 	ldr.w	r3, [r2, r3, lsl #2]
     3e2:	441a      	add	r2, r3
     3e4:	4710      	bx	r2
     3e6:	bf00      	nop
     3e8:	00000011 	.word	0x00000011
     3ec:	0000001f 	.word	0x0000001f
     3f0:	0000002d 	.word	0x0000002d
     3f4:	0000003b 	.word	0x0000003b
/home/st/桌面/OP-TEE/basicAlg_use/ta/CryptoVerifyTaHandle.c:295
     3f8:	68fa      	ldr	r2, [r7, #12]
     3fa:	f44f 7388 	mov.w	r3, #272	; 0x110
     3fe:	f2c1 0300 	movt	r3, #4096	; 0x1000
     402:	61d3      	str	r3, [r2, #28]
/home/st/桌面/OP-TEE/basicAlg_use/ta/CryptoVerifyTaHandle.c:296
     404:	e015      	b.n	432 <l_CryptoTaHandle_SetAesAction+0x92>
/home/st/桌面/OP-TEE/basicAlg_use/ta/CryptoVerifyTaHandle.c:298
     406:	68fa      	ldr	r2, [r7, #12]
     408:	f04f 0310 	mov.w	r3, #16
     40c:	f2c1 0300 	movt	r3, #4096	; 0x1000
     410:	61d3      	str	r3, [r2, #28]
/home/st/桌面/OP-TEE/basicAlg_use/ta/CryptoVerifyTaHandle.c:299
     412:	e00e      	b.n	432 <l_CryptoTaHandle_SetAesAction+0x92>
/home/st/桌面/OP-TEE/basicAlg_use/ta/CryptoVerifyTaHandle.c:301
     414:	68fa      	ldr	r2, [r7, #12]
     416:	f44f 7304 	mov.w	r3, #528	; 0x210
     41a:	f2c1 0300 	movt	r3, #4096	; 0x1000
     41e:	61d3      	str	r3, [r2, #28]
/home/st/桌面/OP-TEE/basicAlg_use/ta/CryptoVerifyTaHandle.c:302
     420:	e007      	b.n	432 <l_CryptoTaHandle_SetAesAction+0x92>
/home/st/桌面/OP-TEE/basicAlg_use/ta/CryptoVerifyTaHandle.c:304
     422:	68fa      	ldr	r2, [r7, #12]
     424:	f44f 7344 	mov.w	r3, #784	; 0x310
     428:	f2c1 0300 	movt	r3, #4096	; 0x1000
     42c:	61d3      	str	r3, [r2, #28]
/home/st/桌面/OP-TEE/basicAlg_use/ta/CryptoVerifyTaHandle.c:305
     42e:	e000      	b.n	432 <l_CryptoTaHandle_SetAesAction+0x92>
/home/st/桌面/OP-TEE/basicAlg_use/ta/CryptoVerifyTaHandle.c:307
     430:	bf00      	nop
/home/st/桌面/OP-TEE/basicAlg_use/ta/CryptoVerifyTaHandle.c:309
     432:	bf00      	nop
     434:	f107 0714 	add.w	r7, r7, #20
     438:	46bd      	mov	sp, r7
     43a:	f85d 7b04 	ldr.w	r7, [sp], #4
     43e:	4770      	bx	lr

00000440 <l_CryptoTaHandle_SetRsa1024Key>:
l_CryptoTaHandle_SetRsa1024Key():
/home/st/桌面/OP-TEE/basicAlg_use/ta/CryptoVerifyTaHandle.c:314
     440:	e96d 7e02 	strd	r7, lr, [sp, #-8]!
     444:	b086      	sub	sp, #24
     446:	af02      	add	r7, sp, #8
     448:	60f8      	str	r0, [r7, #12]
     44a:	60b9      	str	r1, [r7, #8]
     44c:	607a      	str	r2, [r7, #4]
/home/st/桌面/OP-TEE/basicAlg_use/ta/CryptoVerifyTaHandle.c:315
     44e:	68fb      	ldr	r3, [r7, #12]
     450:	4a25      	ldr	r2, [pc, #148]	; (4e8 <l_CryptoTaHandle_SetRsa1024Key+0xa8>)
     452:	447a      	add	r2, pc
     454:	605a      	str	r2, [r3, #4]
/home/st/桌面/OP-TEE/basicAlg_use/ta/CryptoVerifyTaHandle.c:316
     456:	68fb      	ldr	r3, [r7, #12]
     458:	4a24      	ldr	r2, [pc, #144]	; (4ec <l_CryptoTaHandle_SetRsa1024Key+0xac>)
     45a:	447a      	add	r2, pc
     45c:	601a      	str	r2, [r3, #0]
/home/st/桌面/OP-TEE/basicAlg_use/ta/CryptoVerifyTaHandle.c:317
     45e:	68fb      	ldr	r3, [r7, #12]
     460:	4a23      	ldr	r2, [pc, #140]	; (4f0 <l_CryptoTaHandle_SetRsa1024Key+0xb0>)
     462:	447a      	add	r2, pc
     464:	609a      	str	r2, [r3, #8]
/home/st/桌面/OP-TEE/basicAlg_use/ta/CryptoVerifyTaHandle.c:318
     466:	4b23      	ldr	r3, [pc, #140]	; (4f4 <l_CryptoTaHandle_SetRsa1024Key+0xb4>)
     468:	447b      	add	r3, pc
     46a:	681a      	ldr	r2, [r3, #0]
     46c:	68fb      	ldr	r3, [r7, #12]
     46e:	611a      	str	r2, [r3, #16]
/home/st/桌面/OP-TEE/basicAlg_use/ta/CryptoVerifyTaHandle.c:319
     470:	4b21      	ldr	r3, [pc, #132]	; (4f8 <l_CryptoTaHandle_SetRsa1024Key+0xb8>)
     472:	447b      	add	r3, pc
     474:	681a      	ldr	r2, [r3, #0]
     476:	68fb      	ldr	r3, [r7, #12]
     478:	60da      	str	r2, [r3, #12]
/home/st/桌面/OP-TEE/basicAlg_use/ta/CryptoVerifyTaHandle.c:320
     47a:	4b20      	ldr	r3, [pc, #128]	; (4fc <l_CryptoTaHandle_SetRsa1024Key+0xbc>)
     47c:	447b      	add	r3, pc
     47e:	681a      	ldr	r2, [r3, #0]
     480:	68fb      	ldr	r3, [r7, #12]
     482:	615a      	str	r2, [r3, #20]
/home/st/桌面/OP-TEE/basicAlg_use/ta/CryptoVerifyTaHandle.c:321
     484:	68bb      	ldr	r3, [r7, #8]
     486:	2b01      	cmp	r3, #1
     488:	d013      	beq.n	4b2 <l_CryptoTaHandle_SetRsa1024Key+0x72>
/home/st/桌面/OP-TEE/basicAlg_use/ta/CryptoVerifyTaHandle.c:323
     48a:	687b      	ldr	r3, [r7, #4]
     48c:	2b03      	cmp	r3, #3
     48e:	d002      	beq.n	496 <l_CryptoTaHandle_SetRsa1024Key+0x56>
/home/st/桌面/OP-TEE/basicAlg_use/ta/CryptoVerifyTaHandle.c:323 (discriminator 1)
     490:	687b      	ldr	r3, [r7, #4]
     492:	2b04      	cmp	r3, #4
     494:	d106      	bne.n	4a4 <l_CryptoTaHandle_SetRsa1024Key+0x64>
/home/st/桌面/OP-TEE/basicAlg_use/ta/CryptoVerifyTaHandle.c:324
     496:	68fa      	ldr	r2, [r7, #12]
     498:	f642 0330 	movw	r3, #10288	; 0x2830
     49c:	f2c7 0300 	movt	r3, #28672	; 0x7000
     4a0:	6193      	str	r3, [r2, #24]
     4a2:	e00c      	b.n	4be <l_CryptoTaHandle_SetRsa1024Key+0x7e>
/home/st/桌面/OP-TEE/basicAlg_use/ta/CryptoVerifyTaHandle.c:326
     4a4:	68fa      	ldr	r2, [r7, #12]
     4a6:	f44f 7398 	mov.w	r3, #304	; 0x130
     4aa:	f2c6 0300 	movt	r3, #24576	; 0x6000
     4ae:	6193      	str	r3, [r2, #24]
     4b0:	e005      	b.n	4be <l_CryptoTaHandle_SetRsa1024Key+0x7e>
/home/st/桌面/OP-TEE/basicAlg_use/ta/CryptoVerifyTaHandle.c:330
     4b2:	68fa      	ldr	r2, [r7, #12]
     4b4:	f04f 0330 	mov.w	r3, #48	; 0x30
     4b8:	f2c6 0300 	movt	r3, #24576	; 0x6000
     4bc:	6193      	str	r3, [r2, #24]
/home/st/桌面/OP-TEE/basicAlg_use/ta/CryptoVerifyTaHandle.c:333
     4be:	68fb      	ldr	r3, [r7, #12]
     4c0:	699b      	ldr	r3, [r3, #24]
     4c2:	9301      	str	r3, [sp, #4]
     4c4:	4b0e      	ldr	r3, [pc, #56]	; (500 <l_CryptoTaHandle_SetRsa1024Key+0xc0>)
     4c6:	447b      	add	r3, pc
     4c8:	9300      	str	r3, [sp, #0]
     4ca:	f04f 0300 	mov.w	r3, #0
     4ce:	f04f 0200 	mov.w	r2, #0
     4d2:	f04f 0100 	mov.w	r1, #0
     4d6:	f04f 0000 	mov.w	r0, #0
     4da:	f009 fee5 	bl	a2a8 <trace_printf>
/home/st/桌面/OP-TEE/basicAlg_use/ta/CryptoVerifyTaHandle.c:334
     4de:	bf00      	nop
     4e0:	f107 0710 	add.w	r7, r7, #16
     4e4:	46bd      	mov	sp, r7
     4e6:	bd80      	pop	{r7, pc}
     4e8:	00014c7a 	.word	0x00014c7a
     4ec:	00014bee 	.word	0x00014bee
     4f0:	00014cee 	.word	0x00014cee
     4f4:	00014ce4 	.word	0x00014ce4
     4f8:	00014c56 	.word	0x00014c56
     4fc:	00014d54 	.word	0x00014d54
     500:	000106e6 	.word	0x000106e6

00000504 <l_CryptoTaHandle_SetRsa2048Key>:
l_CryptoTaHandle_SetRsa2048Key():
/home/st/桌面/OP-TEE/basicAlg_use/ta/CryptoVerifyTaHandle.c:337
     504:	e96d 7e02 	strd	r7, lr, [sp, #-8]!
     508:	b086      	sub	sp, #24
     50a:	af02      	add	r7, sp, #8
     50c:	60f8      	str	r0, [r7, #12]
     50e:	60b9      	str	r1, [r7, #8]
     510:	607a      	str	r2, [r7, #4]
/home/st/桌面/OP-TEE/basicAlg_use/ta/CryptoVerifyTaHandle.c:338
     512:	68fb      	ldr	r3, [r7, #12]
     514:	4a25      	ldr	r2, [pc, #148]	; (5ac <l_CryptoTaHandle_SetRsa2048Key+0xa8>)
     516:	447a      	add	r2, pc
     518:	605a      	str	r2, [r3, #4]
/home/st/桌面/OP-TEE/basicAlg_use/ta/CryptoVerifyTaHandle.c:339
     51a:	68fb      	ldr	r3, [r7, #12]
     51c:	4a24      	ldr	r2, [pc, #144]	; (5b0 <l_CryptoTaHandle_SetRsa2048Key+0xac>)
     51e:	447a      	add	r2, pc
     520:	601a      	str	r2, [r3, #0]
/home/st/桌面/OP-TEE/basicAlg_use/ta/CryptoVerifyTaHandle.c:340
     522:	68fb      	ldr	r3, [r7, #12]
     524:	4a23      	ldr	r2, [pc, #140]	; (5b4 <l_CryptoTaHandle_SetRsa2048Key+0xb0>)
     526:	447a      	add	r2, pc
     528:	609a      	str	r2, [r3, #8]
/home/st/桌面/OP-TEE/basicAlg_use/ta/CryptoVerifyTaHandle.c:341
     52a:	4b23      	ldr	r3, [pc, #140]	; (5b8 <l_CryptoTaHandle_SetRsa2048Key+0xb4>)
     52c:	447b      	add	r3, pc
     52e:	681a      	ldr	r2, [r3, #0]
     530:	68fb      	ldr	r3, [r7, #12]
     532:	611a      	str	r2, [r3, #16]
/home/st/桌面/OP-TEE/basicAlg_use/ta/CryptoVerifyTaHandle.c:342
     534:	4b21      	ldr	r3, [pc, #132]	; (5bc <l_CryptoTaHandle_SetRsa2048Key+0xb8>)
     536:	447b      	add	r3, pc
     538:	681a      	ldr	r2, [r3, #0]
     53a:	68fb      	ldr	r3, [r7, #12]
     53c:	60da      	str	r2, [r3, #12]
/home/st/桌面/OP-TEE/basicAlg_use/ta/CryptoVerifyTaHandle.c:343
     53e:	4b20      	ldr	r3, [pc, #128]	; (5c0 <l_CryptoTaHandle_SetRsa2048Key+0xbc>)
     540:	447b      	add	r3, pc
     542:	681a      	ldr	r2, [r3, #0]
     544:	68fb      	ldr	r3, [r7, #12]
     546:	615a      	str	r2, [r3, #20]
/home/st/桌面/OP-TEE/basicAlg_use/ta/CryptoVerifyTaHandle.c:344
     548:	68bb      	ldr	r3, [r7, #8]
     54a:	2b01      	cmp	r3, #1
     54c:	d013      	beq.n	576 <l_CryptoTaHandle_SetRsa2048Key+0x72>
/home/st/桌面/OP-TEE/basicAlg_use/ta/CryptoVerifyTaHandle.c:346
     54e:	687b      	ldr	r3, [r7, #4]
     550:	2b03      	cmp	r3, #3
     552:	d002      	beq.n	55a <l_CryptoTaHandle_SetRsa2048Key+0x56>
/home/st/桌面/OP-TEE/basicAlg_use/ta/CryptoVerifyTaHandle.c:346 (discriminator 1)
     554:	687b      	ldr	r3, [r7, #4]
     556:	2b04      	cmp	r3, #4
     558:	d106      	bne.n	568 <l_CryptoTaHandle_SetRsa2048Key+0x64>
/home/st/桌面/OP-TEE/basicAlg_use/ta/CryptoVerifyTaHandle.c:347
     55a:	68fa      	ldr	r2, [r7, #12]
     55c:	f642 0330 	movw	r3, #10288	; 0x2830
     560:	f2c7 0300 	movt	r3, #28672	; 0x7000
     564:	6193      	str	r3, [r2, #24]
     566:	e00c      	b.n	582 <l_CryptoTaHandle_SetRsa2048Key+0x7e>
/home/st/桌面/OP-TEE/basicAlg_use/ta/CryptoVerifyTaHandle.c:349
     568:	68fa      	ldr	r2, [r7, #12]
     56a:	f44f 7398 	mov.w	r3, #304	; 0x130
     56e:	f2c6 0300 	movt	r3, #24576	; 0x6000
     572:	6193      	str	r3, [r2, #24]
     574:	e005      	b.n	582 <l_CryptoTaHandle_SetRsa2048Key+0x7e>
/home/st/桌面/OP-TEE/basicAlg_use/ta/CryptoVerifyTaHandle.c:353
     576:	68fa      	ldr	r2, [r7, #12]
     578:	f04f 0330 	mov.w	r3, #48	; 0x30
     57c:	f2c6 0300 	movt	r3, #24576	; 0x6000
     580:	6193      	str	r3, [r2, #24]
/home/st/桌面/OP-TEE/basicAlg_use/ta/CryptoVerifyTaHandle.c:356
     582:	68fb      	ldr	r3, [r7, #12]
     584:	699b      	ldr	r3, [r3, #24]
     586:	9301      	str	r3, [sp, #4]
     588:	4b0e      	ldr	r3, [pc, #56]	; (5c4 <l_CryptoTaHandle_SetRsa2048Key+0xc0>)
     58a:	447b      	add	r3, pc
     58c:	9300      	str	r3, [sp, #0]
     58e:	f04f 0300 	mov.w	r3, #0
     592:	f04f 0200 	mov.w	r2, #0
     596:	f04f 0100 	mov.w	r1, #0
     59a:	f04f 0000 	mov.w	r0, #0
     59e:	f009 fe83 	bl	a2a8 <trace_printf>
/home/st/桌面/OP-TEE/basicAlg_use/ta/CryptoVerifyTaHandle.c:357
     5a2:	bf00      	nop
     5a4:	f107 0710 	add.w	r7, r7, #16
     5a8:	46bd      	mov	sp, r7
     5aa:	bd80      	pop	{r7, pc}
     5ac:	00014dc2 	.word	0x00014dc2
     5b0:	00014cb6 	.word	0x00014cb6
     5b4:	00014eb6 	.word	0x00014eb6
     5b8:	00014eac 	.word	0x00014eac
     5bc:	00014d9e 	.word	0x00014d9e
     5c0:	00014f9c 	.word	0x00014f9c
     5c4:	00010622 	.word	0x00010622

000005c8 <g_CryptoTaHandle_Random>:
g_CryptoTaHandle_Random():
/home/st/桌面/OP-TEE/basicAlg_use/ta/CryptoVerifyTaHandle.c:361
     5c8:	e96d 7e02 	strd	r7, lr, [sp, #-8]!
     5cc:	b084      	sub	sp, #16
     5ce:	af00      	add	r7, sp, #0
     5d0:	6078      	str	r0, [r7, #4]
     5d2:	6039      	str	r1, [r7, #0]
/home/st/桌面/OP-TEE/basicAlg_use/ta/CryptoVerifyTaHandle.c:362
     5d4:	f04f 0300 	mov.w	r3, #0
     5d8:	60fb      	str	r3, [r7, #12]
/home/st/桌面/OP-TEE/basicAlg_use/ta/CryptoVerifyTaHandle.c:363
     5da:	f04f 0300 	mov.w	r3, #0
     5de:	60bb      	str	r3, [r7, #8]
/home/st/桌面/OP-TEE/basicAlg_use/ta/CryptoVerifyTaHandle.c:367
     5e0:	683b      	ldr	r3, [r7, #0]
     5e2:	685b      	ldr	r3, [r3, #4]
     5e4:	60fb      	str	r3, [r7, #12]
/home/st/桌面/OP-TEE/basicAlg_use/ta/CryptoVerifyTaHandle.c:368
     5e6:	683b      	ldr	r3, [r7, #0]
     5e8:	681b      	ldr	r3, [r3, #0]
     5ea:	60bb      	str	r3, [r7, #8]
/home/st/桌面/OP-TEE/basicAlg_use/ta/CryptoVerifyTaHandle.c:370
     5ec:	68b9      	ldr	r1, [r7, #8]
     5ee:	68f8      	ldr	r0, [r7, #12]
     5f0:	f001 f9da 	bl	19a8 <g_CryptoTaOther_Random>
/home/st/桌面/OP-TEE/basicAlg_use/ta/CryptoVerifyTaHandle.c:372
     5f4:	f04f 0300 	mov.w	r3, #0
/home/st/桌面/OP-TEE/basicAlg_use/ta/CryptoVerifyTaHandle.c:373
     5f8:	4618      	mov	r0, r3
     5fa:	f107 0710 	add.w	r7, r7, #16
     5fe:	46bd      	mov	sp, r7
     600:	bd80      	pop	{r7, pc}

00000602 <g_CryptoTaHandle_Sha>:
g_CryptoTaHandle_Sha():
/home/st/桌面/OP-TEE/basicAlg_use/ta/CryptoVerifyTaHandle.c:378
     602:	e96d 7e02 	strd	r7, lr, [sp, #-8]!
     606:	b08a      	sub	sp, #40	; 0x28
     608:	af02      	add	r7, sp, #8
     60a:	6078      	str	r0, [r7, #4]
     60c:	6039      	str	r1, [r7, #0]
/home/st/桌面/OP-TEE/basicAlg_use/ta/CryptoVerifyTaHandle.c:380
     60e:	f04f 0300 	mov.w	r3, #0
     612:	61fb      	str	r3, [r7, #28]
/home/st/桌面/OP-TEE/basicAlg_use/ta/CryptoVerifyTaHandle.c:381
     614:	f04f 0300 	mov.w	r3, #0
     618:	61bb      	str	r3, [r7, #24]
/home/st/桌面/OP-TEE/basicAlg_use/ta/CryptoVerifyTaHandle.c:382
     61a:	f04f 0300 	mov.w	r3, #0
     61e:	617b      	str	r3, [r7, #20]
/home/st/桌面/OP-TEE/basicAlg_use/ta/CryptoVerifyTaHandle.c:383
     620:	f04f 0300 	mov.w	r3, #0
     624:	60fb      	str	r3, [r7, #12]
/home/st/桌面/OP-TEE/basicAlg_use/ta/CryptoVerifyTaHandle.c:387
     626:	683b      	ldr	r3, [r7, #0]
     628:	681b      	ldr	r3, [r3, #0]
     62a:	61fb      	str	r3, [r7, #28]
/home/st/桌面/OP-TEE/basicAlg_use/ta/CryptoVerifyTaHandle.c:388
     62c:	683b      	ldr	r3, [r7, #0]
     62e:	685b      	ldr	r3, [r3, #4]
     630:	617b      	str	r3, [r7, #20]
/home/st/桌面/OP-TEE/basicAlg_use/ta/CryptoVerifyTaHandle.c:389
     632:	683b      	ldr	r3, [r7, #0]
     634:	f103 0308 	add.w	r3, r3, #8
     638:	681b      	ldr	r3, [r3, #0]
     63a:	613b      	str	r3, [r7, #16]
/home/st/桌面/OP-TEE/basicAlg_use/ta/CryptoVerifyTaHandle.c:390
     63c:	683b      	ldr	r3, [r7, #0]
     63e:	f103 0310 	add.w	r3, r3, #16
     642:	681b      	ldr	r3, [r3, #0]
     644:	61bb      	str	r3, [r7, #24]
/home/st/桌面/OP-TEE/basicAlg_use/ta/CryptoVerifyTaHandle.c:391
     646:	683b      	ldr	r3, [r7, #0]
     648:	f103 0310 	add.w	r3, r3, #16
     64c:	685b      	ldr	r3, [r3, #4]
     64e:	60fb      	str	r3, [r7, #12]
/home/st/桌面/OP-TEE/basicAlg_use/ta/CryptoVerifyTaHandle.c:394
     650:	f107 030c 	add.w	r3, r7, #12
     654:	9300      	str	r3, [sp, #0]
     656:	69bb      	ldr	r3, [r7, #24]
     658:	697a      	ldr	r2, [r7, #20]
     65a:	69f9      	ldr	r1, [r7, #28]
     65c:	6938      	ldr	r0, [r7, #16]
     65e:	f000 fbd1 	bl	e04 <g_CryptoTaHash_sha>
/home/st/桌面/OP-TEE/basicAlg_use/ta/CryptoVerifyTaHandle.c:396
     662:	f04f 0300 	mov.w	r3, #0
/home/st/桌面/OP-TEE/basicAlg_use/ta/CryptoVerifyTaHandle.c:397
     666:	4618      	mov	r0, r3
     668:	f107 0720 	add.w	r7, r7, #32
     66c:	46bd      	mov	sp, r7
     66e:	bd80      	pop	{r7, pc}

00000670 <g_CryptoTaHandle_hmac>:
g_CryptoTaHandle_hmac():
/home/st/桌面/OP-TEE/basicAlg_use/ta/CryptoVerifyTaHandle.c:401
     670:	e96d 7e02 	strd	r7, lr, [sp, #-8]!
     674:	b08a      	sub	sp, #40	; 0x28
     676:	af04      	add	r7, sp, #16
     678:	6078      	str	r0, [r7, #4]
     67a:	6039      	str	r1, [r7, #0]
/home/st/桌面/OP-TEE/basicAlg_use/ta/CryptoVerifyTaHandle.c:402
     67c:	f04f 0300 	mov.w	r3, #0
     680:	617b      	str	r3, [r7, #20]
/home/st/桌面/OP-TEE/basicAlg_use/ta/CryptoVerifyTaHandle.c:403
     682:	f04f 0300 	mov.w	r3, #0
     686:	613b      	str	r3, [r7, #16]
/home/st/桌面/OP-TEE/basicAlg_use/ta/CryptoVerifyTaHandle.c:404
     688:	f04f 0300 	mov.w	r3, #0
     68c:	60fb      	str	r3, [r7, #12]
/home/st/桌面/OP-TEE/basicAlg_use/ta/CryptoVerifyTaHandle.c:408
     68e:	683b      	ldr	r3, [r7, #0]
     690:	681b      	ldr	r3, [r3, #0]
     692:	617b      	str	r3, [r7, #20]
/home/st/桌面/OP-TEE/basicAlg_use/ta/CryptoVerifyTaHandle.c:409
     694:	683b      	ldr	r3, [r7, #0]
     696:	685b      	ldr	r3, [r3, #4]
     698:	613b      	str	r3, [r7, #16]
/home/st/桌面/OP-TEE/basicAlg_use/ta/CryptoVerifyTaHandle.c:410
     69a:	683b      	ldr	r3, [r7, #0]
     69c:	f103 0308 	add.w	r3, r3, #8
     6a0:	681b      	ldr	r3, [r3, #0]
     6a2:	60fb      	str	r3, [r7, #12]
/home/st/桌面/OP-TEE/basicAlg_use/ta/CryptoVerifyTaHandle.c:414
     6a4:	68fb      	ldr	r3, [r7, #12]
     6a6:	9302      	str	r3, [sp, #8]
     6a8:	f04f 0316 	mov.w	r3, #22
     6ac:	9301      	str	r3, [sp, #4]
     6ae:	4b09      	ldr	r3, [pc, #36]	; (6d4 <g_CryptoTaHandle_hmac+0x64>)
     6b0:	447b      	add	r3, pc
     6b2:	9300      	str	r3, [sp, #0]
     6b4:	f04f 0312 	mov.w	r3, #18
     6b8:	4a07      	ldr	r2, [pc, #28]	; (6d8 <g_CryptoTaHandle_hmac+0x68>)
     6ba:	447a      	add	r2, pc
     6bc:	6939      	ldr	r1, [r7, #16]
     6be:	6978      	ldr	r0, [r7, #20]
     6c0:	f000 fc70 	bl	fa4 <g_CryptoTaHash_hmac>
/home/st/桌面/OP-TEE/basicAlg_use/ta/CryptoVerifyTaHandle.c:417
     6c4:	f04f 0300 	mov.w	r3, #0
/home/st/桌面/OP-TEE/basicAlg_use/ta/CryptoVerifyTaHandle.c:418
     6c8:	4618      	mov	r0, r3
     6ca:	f107 0718 	add.w	r7, r7, #24
     6ce:	46bd      	mov	sp, r7
     6d0:	bd80      	pop	{r7, pc}
     6d2:	bf00      	nop
     6d4:	00014980 	.word	0x00014980
     6d8:	00014962 	.word	0x00014962

000006dc <g_CryptoTaHandle_Aes>:
g_CryptoTaHandle_Aes():
/home/st/桌面/OP-TEE/basicAlg_use/ta/CryptoVerifyTaHandle.c:425
     6dc:	e96d 7e02 	strd	r7, lr, [sp, #-8]!
     6e0:	b096      	sub	sp, #88	; 0x58
     6e2:	af06      	add	r7, sp, #24
     6e4:	6078      	str	r0, [r7, #4]
     6e6:	6039      	str	r1, [r7, #0]
/home/st/桌面/OP-TEE/basicAlg_use/ta/CryptoVerifyTaHandle.c:428
     6e8:	4b35      	ldr	r3, [pc, #212]	; (7c0 <g_CryptoTaHandle_Aes+0xe4>)
     6ea:	447b      	add	r3, pc
     6ec:	461a      	mov	r2, r3
     6ee:	f107 030c 	add.w	r3, r7, #12
     6f2:	4611      	mov	r1, r2
     6f4:	f04f 0206 	mov.w	r2, #6
     6f8:	4618      	mov	r0, r3
     6fa:	f00c fd58 	bl	d1ae <memcpy>
/home/st/桌面/OP-TEE/basicAlg_use/ta/CryptoVerifyTaHandle.c:431
     6fe:	4b31      	ldr	r3, [pc, #196]	; (7c4 <g_CryptoTaHandle_Aes+0xe8>)
     700:	447b      	add	r3, pc
     702:	9300      	str	r3, [sp, #0]
     704:	f04f 0300 	mov.w	r3, #0
     708:	f04f 0200 	mov.w	r2, #0
     70c:	f04f 0100 	mov.w	r1, #0
     710:	f04f 0000 	mov.w	r0, #0
     714:	f009 fdc8 	bl	a2a8 <trace_printf>
/home/st/桌面/OP-TEE/basicAlg_use/ta/CryptoVerifyTaHandle.c:433
     718:	683b      	ldr	r3, [r7, #0]
     71a:	681b      	ldr	r3, [r3, #0]
     71c:	617b      	str	r3, [r7, #20]
/home/st/桌面/OP-TEE/basicAlg_use/ta/CryptoVerifyTaHandle.c:434
     71e:	683b      	ldr	r3, [r7, #0]
     720:	685b      	ldr	r3, [r3, #4]
     722:	61bb      	str	r3, [r7, #24]
/home/st/桌面/OP-TEE/basicAlg_use/ta/CryptoVerifyTaHandle.c:435
     724:	683b      	ldr	r3, [r7, #0]
     726:	f103 0308 	add.w	r3, r3, #8
     72a:	681b      	ldr	r3, [r3, #0]
     72c:	61fb      	str	r3, [r7, #28]
/home/st/桌面/OP-TEE/basicAlg_use/ta/CryptoVerifyTaHandle.c:436
     72e:	683b      	ldr	r3, [r7, #0]
     730:	f103 0310 	add.w	r3, r3, #16
     734:	681b      	ldr	r3, [r3, #0]
     736:	623b      	str	r3, [r7, #32]
/home/st/桌面/OP-TEE/basicAlg_use/ta/CryptoVerifyTaHandle.c:437
     738:	683b      	ldr	r3, [r7, #0]
     73a:	f103 0318 	add.w	r3, r3, #24
     73e:	681b      	ldr	r3, [r3, #0]
     740:	62fb      	str	r3, [r7, #44]	; 0x2c
/home/st/桌面/OP-TEE/basicAlg_use/ta/CryptoVerifyTaHandle.c:438
     742:	6a3b      	ldr	r3, [r7, #32]
     744:	f107 010c 	add.w	r1, r7, #12
     748:	f04f 0206 	mov.w	r2, #6
     74c:	4618      	mov	r0, r3
     74e:	f002 fbfd 	bl	2f4c <TEE_MemMove>
/home/st/桌面/OP-TEE/basicAlg_use/ta/CryptoVerifyTaHandle.c:441
     752:	f107 031c 	add.w	r3, r7, #28
     756:	4618      	mov	r0, r3
     758:	f7ff fe02 	bl	360 <l_CryptoTaHandle_SetAes128Key>
/home/st/桌面/OP-TEE/basicAlg_use/ta/CryptoVerifyTaHandle.c:444
     75c:	f107 001c 	add.w	r0, r7, #28
     760:	f107 0314 	add.w	r3, r7, #20
     764:	e893 0006 	ldmia.w	r3, {r1, r2}
     768:	f7ff fe1a 	bl	3a0 <l_CryptoTaHandle_SetAesAction>
/home/st/桌面/OP-TEE/basicAlg_use/ta/CryptoVerifyTaHandle.c:445
     76c:	6bbb      	ldr	r3, [r7, #56]	; 0x38
     76e:	6bfa      	ldr	r2, [r7, #60]	; 0x3c
     770:	9202      	str	r2, [sp, #8]
     772:	9301      	str	r3, [sp, #4]
     774:	4b14      	ldr	r3, [pc, #80]	; (7c8 <g_CryptoTaHandle_Aes+0xec>)
     776:	447b      	add	r3, pc
     778:	9300      	str	r3, [sp, #0]
     77a:	f04f 0300 	mov.w	r3, #0
     77e:	f04f 0200 	mov.w	r2, #0
     782:	f04f 0100 	mov.w	r1, #0
     786:	f04f 0000 	mov.w	r0, #0
     78a:	f009 fd8d 	bl	a2a8 <trace_printf>
/home/st/桌面/OP-TEE/basicAlg_use/ta/CryptoVerifyTaHandle.c:448
     78e:	466a      	mov	r2, sp
     790:	f107 032c 	add.w	r3, r7, #44	; 0x2c
     794:	e9d3 0100 	ldrd	r0, r1, [r3]
     798:	e9c2 0100 	strd	r0, r1, [r2]
     79c:	e9d3 0102 	ldrd	r0, r1, [r3, #8]
     7a0:	e9c2 0102 	strd	r0, r1, [r2, #8]
     7a4:	691b      	ldr	r3, [r3, #16]
     7a6:	6113      	str	r3, [r2, #16]
     7a8:	f107 031c 	add.w	r3, r7, #28
     7ac:	cb0f      	ldmia	r3, {r0, r1, r2, r3}
     7ae:	f000 f9cf 	bl	b50 <g_CryptoTaAes_AesOper>
/home/st/桌面/OP-TEE/basicAlg_use/ta/CryptoVerifyTaHandle.c:450
     7b2:	f04f 0300 	mov.w	r3, #0
/home/st/桌面/OP-TEE/basicAlg_use/ta/CryptoVerifyTaHandle.c:451
     7b6:	4618      	mov	r0, r3
     7b8:	f107 0740 	add.w	r7, r7, #64	; 0x40
     7bc:	46bd      	mov	sp, r7
     7be:	bd80      	pop	{r7, pc}
     7c0:	00010512 	.word	0x00010512
     7c4:	000104c4 	.word	0x000104c4
     7c8:	0001046e 	.word	0x0001046e

000007cc <g_CryptoTaHandle_Pbkdf>:
g_CryptoTaHandle_Pbkdf():
/home/st/桌面/OP-TEE/basicAlg_use/ta/CryptoVerifyTaHandle.c:459
     7cc:	e96d 7e02 	strd	r7, lr, [sp, #-8]!
     7d0:	b088      	sub	sp, #32
     7d2:	af04      	add	r7, sp, #16
     7d4:	6078      	str	r0, [r7, #4]
     7d6:	6039      	str	r1, [r7, #0]
/home/st/桌面/OP-TEE/basicAlg_use/ta/CryptoVerifyTaHandle.c:460
     7d8:	f04f 0300 	mov.w	r3, #0
     7dc:	60fb      	str	r3, [r7, #12]
/home/st/桌面/OP-TEE/basicAlg_use/ta/CryptoVerifyTaHandle.c:461
     7de:	f04f 0300 	mov.w	r3, #0
     7e2:	60bb      	str	r3, [r7, #8]
/home/st/桌面/OP-TEE/basicAlg_use/ta/CryptoVerifyTaHandle.c:465
     7e4:	683b      	ldr	r3, [r7, #0]
     7e6:	681b      	ldr	r3, [r3, #0]
     7e8:	60fb      	str	r3, [r7, #12]
/home/st/桌面/OP-TEE/basicAlg_use/ta/CryptoVerifyTaHandle.c:466
     7ea:	683b      	ldr	r3, [r7, #0]
     7ec:	685b      	ldr	r3, [r3, #4]
     7ee:	60bb      	str	r3, [r7, #8]
/home/st/桌面/OP-TEE/basicAlg_use/ta/CryptoVerifyTaHandle.c:469
     7f0:	68bb      	ldr	r3, [r7, #8]
     7f2:	68fa      	ldr	r2, [r7, #12]
     7f4:	9202      	str	r2, [sp, #8]
     7f6:	9301      	str	r3, [sp, #4]
     7f8:	f44f 6380 	mov.w	r3, #1024	; 0x400
     7fc:	9300      	str	r3, [sp, #0]
     7fe:	f04f 0316 	mov.w	r3, #22
     802:	4a07      	ldr	r2, [pc, #28]	; (820 <g_CryptoTaHandle_Pbkdf+0x54>)
     804:	447a      	add	r2, pc
     806:	f04f 0112 	mov.w	r1, #18
     80a:	4806      	ldr	r0, [pc, #24]	; (824 <g_CryptoTaHandle_Pbkdf+0x58>)
     80c:	4478      	add	r0, pc
     80e:	f000 feaf 	bl	1570 <g_CryptoTaPbkdf_PBKDF2>
/home/st/桌面/OP-TEE/basicAlg_use/ta/CryptoVerifyTaHandle.c:471
     812:	f04f 0300 	mov.w	r3, #0
/home/st/桌面/OP-TEE/basicAlg_use/ta/CryptoVerifyTaHandle.c:472
     816:	4618      	mov	r0, r3
     818:	f107 0710 	add.w	r7, r7, #16
     81c:	46bd      	mov	sp, r7
     81e:	bd80      	pop	{r7, pc}
     820:	0001482c 	.word	0x0001482c
     824:	00014810 	.word	0x00014810

00000828 <g_CryptoTaHandle_Rsa>:
g_CryptoTaHandle_Rsa():
/home/st/桌面/OP-TEE/basicAlg_use/ta/CryptoVerifyTaHandle.c:478
     828:	f84d 4d0c 	str.w	r4, [sp, #-12]!
     82c:	e9cd 7e01 	strd	r7, lr, [sp, #4]
     830:	b099      	sub	sp, #100	; 0x64
     832:	af08      	add	r7, sp, #32
     834:	60f8      	str	r0, [r7, #12]
     836:	60b9      	str	r1, [r7, #8]
     838:	607a      	str	r2, [r7, #4]
     83a:	603b      	str	r3, [r7, #0]
/home/st/桌面/OP-TEE/basicAlg_use/ta/CryptoVerifyTaHandle.c:480
     83c:	f04f 0300 	mov.w	r3, #0
     840:	63fb      	str	r3, [r7, #60]	; 0x3c
/home/st/桌面/OP-TEE/basicAlg_use/ta/CryptoVerifyTaHandle.c:481
     842:	f04f 0300 	mov.w	r3, #0
     846:	63bb      	str	r3, [r7, #56]	; 0x38
/home/st/桌面/OP-TEE/basicAlg_use/ta/CryptoVerifyTaHandle.c:482
     848:	f04f 0300 	mov.w	r3, #0
     84c:	637b      	str	r3, [r7, #52]	; 0x34
/home/st/桌面/OP-TEE/basicAlg_use/ta/CryptoVerifyTaHandle.c:483
     84e:	f04f 0300 	mov.w	r3, #0
     852:	613b      	str	r3, [r7, #16]
/home/st/桌面/OP-TEE/basicAlg_use/ta/CryptoVerifyTaHandle.c:484
     854:	f04f 0303 	mov.w	r3, #3
     858:	633b      	str	r3, [r7, #48]	; 0x30
/home/st/桌面/OP-TEE/basicAlg_use/ta/CryptoVerifyTaHandle.c:488
     85a:	68bb      	ldr	r3, [r7, #8]
     85c:	681b      	ldr	r3, [r3, #0]
     85e:	63fb      	str	r3, [r7, #60]	; 0x3c
/home/st/桌面/OP-TEE/basicAlg_use/ta/CryptoVerifyTaHandle.c:489
     860:	68bb      	ldr	r3, [r7, #8]
     862:	685b      	ldr	r3, [r3, #4]
     864:	637b      	str	r3, [r7, #52]	; 0x34
/home/st/桌面/OP-TEE/basicAlg_use/ta/CryptoVerifyTaHandle.c:490
     866:	68bb      	ldr	r3, [r7, #8]
     868:	f103 0308 	add.w	r3, r3, #8
     86c:	681b      	ldr	r3, [r3, #0]
     86e:	63bb      	str	r3, [r7, #56]	; 0x38
/home/st/桌面/OP-TEE/basicAlg_use/ta/CryptoVerifyTaHandle.c:491
     870:	68bb      	ldr	r3, [r7, #8]
     872:	f103 0308 	add.w	r3, r3, #8
     876:	685b      	ldr	r3, [r3, #4]
     878:	613b      	str	r3, [r7, #16]
/home/st/桌面/OP-TEE/basicAlg_use/ta/CryptoVerifyTaHandle.c:492
     87a:	68bb      	ldr	r3, [r7, #8]
     87c:	f103 0310 	add.w	r3, r3, #16
     880:	681b      	ldr	r3, [r3, #0]
     882:	633b      	str	r3, [r7, #48]	; 0x30
/home/st/桌面/OP-TEE/basicAlg_use/ta/CryptoVerifyTaHandle.c:494
     884:	6b3b      	ldr	r3, [r7, #48]	; 0x30
     886:	2b01      	cmp	r3, #1
     888:	d116      	bne.n	8b8 <g_CryptoTaHandle_Rsa+0x90>
/home/st/桌面/OP-TEE/basicAlg_use/ta/CryptoVerifyTaHandle.c:496
     88a:	f107 0314 	add.w	r3, r7, #20
     88e:	687a      	ldr	r2, [r7, #4]
     890:	6839      	ldr	r1, [r7, #0]
     892:	4618      	mov	r0, r3
     894:	f7ff fdd4 	bl	440 <l_CryptoTaHandle_SetRsa1024Key>
/home/st/桌面/OP-TEE/basicAlg_use/ta/CryptoVerifyTaHandle.c:497
     898:	683b      	ldr	r3, [r7, #0]
     89a:	9301      	str	r3, [sp, #4]
     89c:	4b74      	ldr	r3, [pc, #464]	; (a70 <g_CryptoTaHandle_Rsa+0x248>)
     89e:	447b      	add	r3, pc
     8a0:	9300      	str	r3, [sp, #0]
     8a2:	f04f 0300 	mov.w	r3, #0
     8a6:	f04f 0200 	mov.w	r2, #0
     8aa:	f04f 0100 	mov.w	r1, #0
     8ae:	f04f 0000 	mov.w	r0, #0
     8b2:	f009 fcf9 	bl	a2a8 <trace_printf>
     8b6:	e027      	b.n	908 <g_CryptoTaHandle_Rsa+0xe0>
/home/st/桌面/OP-TEE/basicAlg_use/ta/CryptoVerifyTaHandle.c:499
     8b8:	6b3b      	ldr	r3, [r7, #48]	; 0x30
     8ba:	2b02      	cmp	r3, #2
     8bc:	d124      	bne.n	908 <g_CryptoTaHandle_Rsa+0xe0>
/home/st/桌面/OP-TEE/basicAlg_use/ta/CryptoVerifyTaHandle.c:501
     8be:	f107 0314 	add.w	r3, r7, #20
     8c2:	687a      	ldr	r2, [r7, #4]
     8c4:	6839      	ldr	r1, [r7, #0]
     8c6:	4618      	mov	r0, r3
     8c8:	f7ff fe1c 	bl	504 <l_CryptoTaHandle_SetRsa2048Key>
/home/st/桌面/OP-TEE/basicAlg_use/ta/CryptoVerifyTaHandle.c:502
     8cc:	683b      	ldr	r3, [r7, #0]
     8ce:	9301      	str	r3, [sp, #4]
     8d0:	4b68      	ldr	r3, [pc, #416]	; (a74 <g_CryptoTaHandle_Rsa+0x24c>)
     8d2:	447b      	add	r3, pc
     8d4:	9300      	str	r3, [sp, #0]
     8d6:	f04f 0300 	mov.w	r3, #0
     8da:	f04f 0200 	mov.w	r2, #0
     8de:	f04f 0100 	mov.w	r1, #0
     8e2:	f04f 0000 	mov.w	r0, #0
     8e6:	f009 fcdf 	bl	a2a8 <trace_printf>
/home/st/桌面/OP-TEE/basicAlg_use/ta/CryptoVerifyTaHandle.c:503
     8ea:	6afb      	ldr	r3, [r7, #44]	; 0x2c
     8ec:	9301      	str	r3, [sp, #4]
     8ee:	4b62      	ldr	r3, [pc, #392]	; (a78 <g_CryptoTaHandle_Rsa+0x250>)
     8f0:	447b      	add	r3, pc
     8f2:	9300      	str	r3, [sp, #0]
     8f4:	f04f 0300 	mov.w	r3, #0
     8f8:	f04f 0200 	mov.w	r2, #0
     8fc:	f04f 0100 	mov.w	r1, #0
     900:	f04f 0000 	mov.w	r0, #0
     904:	f009 fcd0 	bl	a2a8 <trace_printf>
/home/st/桌面/OP-TEE/basicAlg_use/ta/CryptoVerifyTaHandle.c:509
     908:	687b      	ldr	r3, [r7, #4]
     90a:	f103 33ff 	add.w	r3, r3, #4294967295	; 0xffffffff
     90e:	2b03      	cmp	r3, #3
     910:	f200 80a2 	bhi.w	a58 <g_CryptoTaHandle_Rsa+0x230>
     914:	a202      	add	r2, pc, #8	; (adr r2, 920 <g_CryptoTaHandle_Rsa+0xf8>)
     916:	f852 3023 	ldr.w	r3, [r2, r3, lsl #2]
     91a:	441a      	add	r2, r3
     91c:	4710      	bx	r2
     91e:	bf00      	nop
     920:	00000011 	.word	0x00000011
     924:	0000005b 	.word	0x0000005b
     928:	000000a5 	.word	0x000000a5
     92c:	000000ef 	.word	0x000000ef
/home/st/桌面/OP-TEE/basicAlg_use/ta/CryptoVerifyTaHandle.c:512
     930:	4b52      	ldr	r3, [pc, #328]	; (a7c <g_CryptoTaHandle_Rsa+0x254>)
     932:	447b      	add	r3, pc
     934:	9300      	str	r3, [sp, #0]
     936:	f04f 0300 	mov.w	r3, #0
     93a:	f04f 0200 	mov.w	r2, #0
     93e:	f04f 0100 	mov.w	r1, #0
     942:	f04f 0000 	mov.w	r0, #0
     946:	f009 fcaf 	bl	a2a8 <trace_printf>
/home/st/桌面/OP-TEE/basicAlg_use/ta/CryptoVerifyTaHandle.c:513
     94a:	f107 0310 	add.w	r3, r7, #16
     94e:	9306      	str	r3, [sp, #24]
     950:	6b7b      	ldr	r3, [r7, #52]	; 0x34
     952:	9305      	str	r3, [sp, #20]
     954:	6bbb      	ldr	r3, [r7, #56]	; 0x38
     956:	9304      	str	r3, [sp, #16]
     958:	6bfb      	ldr	r3, [r7, #60]	; 0x3c
     95a:	9303      	str	r3, [sp, #12]
     95c:	4669      	mov	r1, sp
     95e:	f107 0224 	add.w	r2, r7, #36	; 0x24
     962:	e9d2 3400 	ldrd	r3, r4, [r2]
     966:	e9c1 3400 	strd	r3, r4, [r1]
     96a:	6893      	ldr	r3, [r2, #8]
     96c:	608b      	str	r3, [r1, #8]
     96e:	f107 0314 	add.w	r3, r7, #20
     972:	cb0f      	ldmia	r3, {r0, r1, r2, r3}
     974:	f001 fc32 	bl	21dc <g_CryptoTaRsa_rsaEncOper>
/home/st/桌面/OP-TEE/basicAlg_use/ta/CryptoVerifyTaHandle.c:514
     978:	e06f      	b.n	a5a <g_CryptoTaHandle_Rsa+0x232>
/home/st/桌面/OP-TEE/basicAlg_use/ta/CryptoVerifyTaHandle.c:516
     97a:	4b41      	ldr	r3, [pc, #260]	; (a80 <g_CryptoTaHandle_Rsa+0x258>)
     97c:	447b      	add	r3, pc
     97e:	9300      	str	r3, [sp, #0]
     980:	f04f 0300 	mov.w	r3, #0
     984:	f04f 0200 	mov.w	r2, #0
     988:	f04f 0100 	mov.w	r1, #0
     98c:	f04f 0000 	mov.w	r0, #0
     990:	f009 fc8a 	bl	a2a8 <trace_printf>
/home/st/桌面/OP-TEE/basicAlg_use/ta/CryptoVerifyTaHandle.c:517
     994:	f107 0310 	add.w	r3, r7, #16
     998:	9306      	str	r3, [sp, #24]
     99a:	6b7b      	ldr	r3, [r7, #52]	; 0x34
     99c:	9305      	str	r3, [sp, #20]
     99e:	6bbb      	ldr	r3, [r7, #56]	; 0x38
     9a0:	9304      	str	r3, [sp, #16]
     9a2:	6bfb      	ldr	r3, [r7, #60]	; 0x3c
     9a4:	9303      	str	r3, [sp, #12]
     9a6:	4669      	mov	r1, sp
     9a8:	f107 0224 	add.w	r2, r7, #36	; 0x24
     9ac:	e9d2 3400 	ldrd	r3, r4, [r2]
     9b0:	e9c1 3400 	strd	r3, r4, [r1]
     9b4:	6893      	ldr	r3, [r2, #8]
     9b6:	608b      	str	r3, [r1, #8]
     9b8:	f107 0314 	add.w	r3, r7, #20
     9bc:	cb0f      	ldmia	r3, {r0, r1, r2, r3}
     9be:	f001 fcf5 	bl	23ac <g_CryptoTaRsa_rsaDecOper>
/home/st/桌面/OP-TEE/basicAlg_use/ta/CryptoVerifyTaHandle.c:518
     9c2:	e04a      	b.n	a5a <g_CryptoTaHandle_Rsa+0x232>
/home/st/桌面/OP-TEE/basicAlg_use/ta/CryptoVerifyTaHandle.c:520
     9c4:	4b2f      	ldr	r3, [pc, #188]	; (a84 <g_CryptoTaHandle_Rsa+0x25c>)
     9c6:	447b      	add	r3, pc
     9c8:	9300      	str	r3, [sp, #0]
     9ca:	f04f 0300 	mov.w	r3, #0
     9ce:	f04f 0200 	mov.w	r2, #0
     9d2:	f04f 0100 	mov.w	r1, #0
     9d6:	f04f 0000 	mov.w	r0, #0
     9da:	f009 fc65 	bl	a2a8 <trace_printf>
/home/st/桌面/OP-TEE/basicAlg_use/ta/CryptoVerifyTaHandle.c:521
     9de:	f107 0310 	add.w	r3, r7, #16
     9e2:	9306      	str	r3, [sp, #24]
     9e4:	6b7b      	ldr	r3, [r7, #52]	; 0x34
     9e6:	9305      	str	r3, [sp, #20]
     9e8:	6bbb      	ldr	r3, [r7, #56]	; 0x38
     9ea:	9304      	str	r3, [sp, #16]
     9ec:	6bfb      	ldr	r3, [r7, #60]	; 0x3c
     9ee:	9303      	str	r3, [sp, #12]
     9f0:	4669      	mov	r1, sp
     9f2:	f107 0224 	add.w	r2, r7, #36	; 0x24
     9f6:	e9d2 3400 	ldrd	r3, r4, [r2]
     9fa:	e9c1 3400 	strd	r3, r4, [r1]
     9fe:	6893      	ldr	r3, [r2, #8]
     a00:	608b      	str	r3, [r1, #8]
     a02:	f107 0314 	add.w	r3, r7, #20
     a06:	cb0f      	ldmia	r3, {r0, r1, r2, r3}
     a08:	f001 fdb8 	bl	257c <g_CryptoTaRsa_rsaSignOper>
/home/st/桌面/OP-TEE/basicAlg_use/ta/CryptoVerifyTaHandle.c:522
     a0c:	e025      	b.n	a5a <g_CryptoTaHandle_Rsa+0x232>
/home/st/桌面/OP-TEE/basicAlg_use/ta/CryptoVerifyTaHandle.c:524
     a0e:	4b1e      	ldr	r3, [pc, #120]	; (a88 <g_CryptoTaHandle_Rsa+0x260>)
     a10:	447b      	add	r3, pc
     a12:	9300      	str	r3, [sp, #0]
     a14:	f04f 0300 	mov.w	r3, #0
     a18:	f04f 0200 	mov.w	r2, #0
     a1c:	f04f 0100 	mov.w	r1, #0
     a20:	f04f 0000 	mov.w	r0, #0
     a24:	f009 fc40 	bl	a2a8 <trace_printf>
/home/st/桌面/OP-TEE/basicAlg_use/ta/CryptoVerifyTaHandle.c:525
     a28:	f107 0310 	add.w	r3, r7, #16
     a2c:	9306      	str	r3, [sp, #24]
     a2e:	6b7b      	ldr	r3, [r7, #52]	; 0x34
     a30:	9305      	str	r3, [sp, #20]
     a32:	6bbb      	ldr	r3, [r7, #56]	; 0x38
     a34:	9304      	str	r3, [sp, #16]
     a36:	6bfb      	ldr	r3, [r7, #60]	; 0x3c
     a38:	9303      	str	r3, [sp, #12]
     a3a:	4669      	mov	r1, sp
     a3c:	f107 0224 	add.w	r2, r7, #36	; 0x24
     a40:	e9d2 3400 	ldrd	r3, r4, [r2]
     a44:	e9c1 3400 	strd	r3, r4, [r1]
     a48:	6893      	ldr	r3, [r2, #8]
     a4a:	608b      	str	r3, [r1, #8]
     a4c:	f107 0314 	add.w	r3, r7, #20
     a50:	cb0f      	ldmia	r3, {r0, r1, r2, r3}
     a52:	f001 fe9b 	bl	278c <g_CryptoTaRsa_rsaVerifyOper>
/home/st/桌面/OP-TEE/basicAlg_use/ta/CryptoVerifyTaHandle.c:526
     a56:	e000      	b.n	a5a <g_CryptoTaHandle_Rsa+0x232>
/home/st/桌面/OP-TEE/basicAlg_use/ta/CryptoVerifyTaHandle.c:528
     a58:	bf00      	nop
/home/st/桌面/OP-TEE/basicAlg_use/ta/CryptoVerifyTaHandle.c:531
     a5a:	f04f 0300 	mov.w	r3, #0
/home/st/桌面/OP-TEE/basicAlg_use/ta/CryptoVerifyTaHandle.c:532
     a5e:	4618      	mov	r0, r3
     a60:	f107 0744 	add.w	r7, r7, #68	; 0x44
     a64:	46bd      	mov	sp, r7
     a66:	e9dd 4700 	ldrd	r4, r7, [sp]
     a6a:	b002      	add	sp, #8
     a6c:	f85d fb04 	ldr.w	pc, [sp], #4
     a70:	00010366 	.word	0x00010366
     a74:	0001034a 	.word	0x0001034a
     a78:	00010344 	.word	0x00010344
     a7c:	00010316 	.word	0x00010316
     a80:	000102d8 	.word	0x000102d8
     a84:	0001029a 	.word	0x0001029a
     a88:	0001025c 	.word	0x0001025c

00000a8c <g_CryptoTaHandle_base64>:
g_CryptoTaHandle_base64():
/home/st/桌面/OP-TEE/basicAlg_use/ta/CryptoVerifyTaHandle.c:538
     a8c:	e96d 7e02 	strd	r7, lr, [sp, #-8]!
     a90:	b08a      	sub	sp, #40	; 0x28
     a92:	af02      	add	r7, sp, #8
     a94:	6078      	str	r0, [r7, #4]
     a96:	6039      	str	r1, [r7, #0]
/home/st/桌面/OP-TEE/basicAlg_use/ta/CryptoVerifyTaHandle.c:539
     a98:	f04f 0300 	mov.w	r3, #0
     a9c:	61fb      	str	r3, [r7, #28]
/home/st/桌面/OP-TEE/basicAlg_use/ta/CryptoVerifyTaHandle.c:540
     a9e:	f04f 0300 	mov.w	r3, #0
     aa2:	61bb      	str	r3, [r7, #24]
/home/st/桌面/OP-TEE/basicAlg_use/ta/CryptoVerifyTaHandle.c:541
     aa4:	f04f 0300 	mov.w	r3, #0
     aa8:	617b      	str	r3, [r7, #20]
/home/st/桌面/OP-TEE/basicAlg_use/ta/CryptoVerifyTaHandle.c:542
     aaa:	f04f 0300 	mov.w	r3, #0
     aae:	613b      	str	r3, [r7, #16]
/home/st/桌面/OP-TEE/basicAlg_use/ta/CryptoVerifyTaHandle.c:543
     ab0:	f04f 0300 	mov.w	r3, #0
     ab4:	60fb      	str	r3, [r7, #12]
/home/st/桌面/OP-TEE/basicAlg_use/ta/CryptoVerifyTaHandle.c:547
     ab6:	683b      	ldr	r3, [r7, #0]
     ab8:	681b      	ldr	r3, [r3, #0]
     aba:	617b      	str	r3, [r7, #20]
/home/st/桌面/OP-TEE/basicAlg_use/ta/CryptoVerifyTaHandle.c:548
     abc:	683b      	ldr	r3, [r7, #0]
     abe:	685b      	ldr	r3, [r3, #4]
     ac0:	613b      	str	r3, [r7, #16]
/home/st/桌面/OP-TEE/basicAlg_use/ta/CryptoVerifyTaHandle.c:549
     ac2:	683b      	ldr	r3, [r7, #0]
     ac4:	f103 0308 	add.w	r3, r3, #8
     ac8:	681b      	ldr	r3, [r3, #0]
     aca:	61fb      	str	r3, [r7, #28]
/home/st/桌面/OP-TEE/basicAlg_use/ta/CryptoVerifyTaHandle.c:550
     acc:	683b      	ldr	r3, [r7, #0]
     ace:	f103 0308 	add.w	r3, r3, #8
     ad2:	685b      	ldr	r3, [r3, #4]
     ad4:	61bb      	str	r3, [r7, #24]
/home/st/桌面/OP-TEE/basicAlg_use/ta/CryptoVerifyTaHandle.c:551
     ad6:	683b      	ldr	r3, [r7, #0]
     ad8:	f103 0310 	add.w	r3, r3, #16
     adc:	681b      	ldr	r3, [r3, #0]
     ade:	60fb      	str	r3, [r7, #12]
/home/st/桌面/OP-TEE/basicAlg_use/ta/CryptoVerifyTaHandle.c:552
     ae0:	693b      	ldr	r3, [r7, #16]
     ae2:	9301      	str	r3, [sp, #4]
     ae4:	4b18      	ldr	r3, [pc, #96]	; (b48 <g_CryptoTaHandle_base64+0xbc>)
     ae6:	447b      	add	r3, pc
     ae8:	9300      	str	r3, [sp, #0]
     aea:	f04f 0300 	mov.w	r3, #0
     aee:	f04f 0200 	mov.w	r2, #0
     af2:	f04f 0100 	mov.w	r1, #0
     af6:	f04f 0000 	mov.w	r0, #0
     afa:	f009 fbd5 	bl	a2a8 <trace_printf>
/home/st/桌面/OP-TEE/basicAlg_use/ta/CryptoVerifyTaHandle.c:553
     afe:	6939      	ldr	r1, [r7, #16]
     b00:	6978      	ldr	r0, [r7, #20]
     b02:	f000 fefd 	bl	1900 <g_TA_Printf>
/home/st/桌面/OP-TEE/basicAlg_use/ta/CryptoVerifyTaHandle.c:556
     b06:	68fb      	ldr	r3, [r7, #12]
     b08:	9300      	str	r3, [sp, #0]
     b0a:	69bb      	ldr	r3, [r7, #24]
     b0c:	69fa      	ldr	r2, [r7, #28]
     b0e:	6939      	ldr	r1, [r7, #16]
     b10:	6978      	ldr	r0, [r7, #20]
     b12:	f001 f927 	bl	1d64 <g_CryptoTaOther_base64>
/home/st/桌面/OP-TEE/basicAlg_use/ta/CryptoVerifyTaHandle.c:558
     b16:	4b0d      	ldr	r3, [pc, #52]	; (b4c <g_CryptoTaHandle_base64+0xc0>)
     b18:	447b      	add	r3, pc
     b1a:	9300      	str	r3, [sp, #0]
     b1c:	f04f 0300 	mov.w	r3, #0
     b20:	f04f 0200 	mov.w	r2, #0
     b24:	f04f 0100 	mov.w	r1, #0
     b28:	f04f 0000 	mov.w	r0, #0
     b2c:	f009 fbbc 	bl	a2a8 <trace_printf>
/home/st/桌面/OP-TEE/basicAlg_use/ta/CryptoVerifyTaHandle.c:559
     b30:	69b9      	ldr	r1, [r7, #24]
     b32:	69f8      	ldr	r0, [r7, #28]
     b34:	f000 fee4 	bl	1900 <g_TA_Printf>
/home/st/桌面/OP-TEE/basicAlg_use/ta/CryptoVerifyTaHandle.c:562
     b38:	f04f 0300 	mov.w	r3, #0
/home/st/桌面/OP-TEE/basicAlg_use/ta/CryptoVerifyTaHandle.c:563
     b3c:	4618      	mov	r0, r3
     b3e:	f107 0720 	add.w	r7, r7, #32
     b42:	46bd      	mov	sp, r7
     b44:	bd80      	pop	{r7, pc}
     b46:	bf00      	nop
     b48:	00010196 	.word	0x00010196
     b4c:	00010194 	.word	0x00010194

00000b50 <g_CryptoTaAes_AesOper>:
g_CryptoTaAes_AesOper():
/home/st/桌面/OP-TEE/basicAlg_use/ta/CryptoVerifyTaAes.c:100
     b50:	b084      	sub	sp, #16
     b52:	e96d 7e02 	strd	r7, lr, [sp, #-8]!
     b56:	b08c      	sub	sp, #48	; 0x30
     b58:	af02      	add	r7, sp, #8
     b5a:	f107 0e30 	add.w	lr, r7, #48	; 0x30
     b5e:	e88e 000f 	stmia.w	lr, {r0, r1, r2, r3}
/home/st/桌面/OP-TEE/basicAlg_use/ta/CryptoVerifyTaAes.c:101
     b62:	f04f 0300 	mov.w	r3, #0
     b66:	617b      	str	r3, [r7, #20]
/home/st/桌面/OP-TEE/basicAlg_use/ta/CryptoVerifyTaAes.c:102
     b68:	f04f 0300 	mov.w	r3, #0
     b6c:	613b      	str	r3, [r7, #16]
/home/st/桌面/OP-TEE/basicAlg_use/ta/CryptoVerifyTaAes.c:104
     b6e:	6b3b      	ldr	r3, [r7, #48]	; 0x30
     b70:	623b      	str	r3, [r7, #32]
/home/st/桌面/OP-TEE/basicAlg_use/ta/CryptoVerifyTaAes.c:105
     b72:	6b7b      	ldr	r3, [r7, #52]	; 0x34
     b74:	61fb      	str	r3, [r7, #28]
/home/st/桌面/OP-TEE/basicAlg_use/ta/CryptoVerifyTaAes.c:106
     b76:	6c3b      	ldr	r3, [r7, #64]	; 0x40
     b78:	603b      	str	r3, [r7, #0]
/home/st/桌面/OP-TEE/basicAlg_use/ta/CryptoVerifyTaAes.c:107
     b7a:	f04f 33ff 	mov.w	r3, #4294967295	; 0xffffffff
     b7e:	61bb      	str	r3, [r7, #24]
/home/st/桌面/OP-TEE/basicAlg_use/ta/CryptoVerifyTaAes.c:108
     b80:	f04f 33ff 	mov.w	r3, #4294967295	; 0xffffffff
     b84:	627b      	str	r3, [r7, #36]	; 0x24
/home/st/桌面/OP-TEE/basicAlg_use/ta/CryptoVerifyTaAes.c:111
     b86:	4b93      	ldr	r3, [pc, #588]	; (dd4 <g_CryptoTaAes_AesOper+0x284>)
     b88:	447b      	add	r3, pc
     b8a:	9300      	str	r3, [sp, #0]
     b8c:	f04f 0300 	mov.w	r3, #0
     b90:	f04f 0200 	mov.w	r2, #0
     b94:	f04f 0100 	mov.w	r1, #0
     b98:	f04f 0000 	mov.w	r0, #0
     b9c:	f009 fb84 	bl	a2a8 <trace_printf>
/home/st/桌面/OP-TEE/basicAlg_use/ta/CryptoVerifyTaAes.c:112
     ba0:	4b8d      	ldr	r3, [pc, #564]	; (dd8 <g_CryptoTaAes_AesOper+0x288>)
     ba2:	447b      	add	r3, pc
     ba4:	9300      	str	r3, [sp, #0]
     ba6:	f04f 0300 	mov.w	r3, #0
     baa:	f04f 0200 	mov.w	r2, #0
     bae:	f04f 0100 	mov.w	r1, #0
     bb2:	f04f 0000 	mov.w	r0, #0
     bb6:	f009 fb77 	bl	a2a8 <trace_printf>
/home/st/桌面/OP-TEE/basicAlg_use/ta/CryptoVerifyTaAes.c:113
     bba:	6bbb      	ldr	r3, [r7, #56]	; 0x38
     bbc:	6c7a      	ldr	r2, [r7, #68]	; 0x44
     bbe:	4611      	mov	r1, r2
     bc0:	4618      	mov	r0, r3
     bc2:	f000 fe9d 	bl	1900 <g_TA_Printf>
/home/st/桌面/OP-TEE/basicAlg_use/ta/CryptoVerifyTaAes.c:114
     bc6:	4b85      	ldr	r3, [pc, #532]	; (ddc <g_CryptoTaAes_AesOper+0x28c>)
     bc8:	447b      	add	r3, pc
     bca:	9300      	str	r3, [sp, #0]
     bcc:	f04f 0300 	mov.w	r3, #0
     bd0:	f04f 0200 	mov.w	r2, #0
     bd4:	f04f 0100 	mov.w	r1, #0
     bd8:	f04f 0000 	mov.w	r0, #0
     bdc:	f009 fb64 	bl	a2a8 <trace_printf>
/home/st/桌面/OP-TEE/basicAlg_use/ta/CryptoVerifyTaAes.c:115
     be0:	6bfb      	ldr	r3, [r7, #60]	; 0x3c
     be2:	6cba      	ldr	r2, [r7, #72]	; 0x48
     be4:	4611      	mov	r1, r2
     be6:	4618      	mov	r0, r3
     be8:	f000 fe8a 	bl	1900 <g_TA_Printf>
/home/st/桌面/OP-TEE/basicAlg_use/ta/CryptoVerifyTaAes.c:116
     bec:	6cfb      	ldr	r3, [r7, #76]	; 0x4c
     bee:	9301      	str	r3, [sp, #4]
     bf0:	4b7b      	ldr	r3, [pc, #492]	; (de0 <g_CryptoTaAes_AesOper+0x290>)
     bf2:	447b      	add	r3, pc
     bf4:	9300      	str	r3, [sp, #0]
     bf6:	f04f 0300 	mov.w	r3, #0
     bfa:	f04f 0200 	mov.w	r2, #0
     bfe:	f04f 0100 	mov.w	r1, #0
     c02:	f04f 0000 	mov.w	r0, #0
     c06:	f009 fb4f 	bl	a2a8 <trace_printf>
/home/st/桌面/OP-TEE/basicAlg_use/ta/CryptoVerifyTaAes.c:117
     c0a:	6d3b      	ldr	r3, [r7, #80]	; 0x50
     c0c:	9301      	str	r3, [sp, #4]
     c0e:	4b75      	ldr	r3, [pc, #468]	; (de4 <g_CryptoTaAes_AesOper+0x294>)
     c10:	447b      	add	r3, pc
     c12:	9300      	str	r3, [sp, #0]
     c14:	f04f 0300 	mov.w	r3, #0
     c18:	f04f 0200 	mov.w	r2, #0
     c1c:	f04f 0100 	mov.w	r1, #0
     c20:	f04f 0000 	mov.w	r0, #0
     c24:	f009 fb40 	bl	a2a8 <trace_printf>
/home/st/桌面/OP-TEE/basicAlg_use/ta/CryptoVerifyTaAes.c:118
     c28:	4b6f      	ldr	r3, [pc, #444]	; (de8 <g_CryptoTaAes_AesOper+0x298>)
     c2a:	447b      	add	r3, pc
     c2c:	9300      	str	r3, [sp, #0]
     c2e:	f04f 0300 	mov.w	r3, #0
     c32:	f04f 0200 	mov.w	r2, #0
     c36:	f04f 0100 	mov.w	r1, #0
     c3a:	f04f 0000 	mov.w	r0, #0
     c3e:	f009 fb33 	bl	a2a8 <trace_printf>
/home/st/桌面/OP-TEE/basicAlg_use/ta/CryptoVerifyTaAes.c:119
     c42:	6b3b      	ldr	r3, [r7, #48]	; 0x30
     c44:	6c3a      	ldr	r2, [r7, #64]	; 0x40
     c46:	4611      	mov	r1, r2
     c48:	4618      	mov	r0, r3
     c4a:	f000 fe59 	bl	1900 <g_TA_Printf>
/home/st/桌面/OP-TEE/basicAlg_use/ta/CryptoVerifyTaAes.c:122
     c4e:	6cf9      	ldr	r1, [r7, #76]	; 0x4c
     c50:	6d3a      	ldr	r2, [r7, #80]	; 0x50
     c52:	6c7b      	ldr	r3, [r7, #68]	; 0x44
     c54:	f107 0014 	add.w	r0, r7, #20
     c58:	f002 fac0 	bl	31dc <TEE_AllocateOperation>
     c5c:	61b8      	str	r0, [r7, #24]
/home/st/桌面/OP-TEE/basicAlg_use/ta/CryptoVerifyTaAes.c:123
     c5e:	69bb      	ldr	r3, [r7, #24]
     c60:	2b00      	cmp	r3, #0
     c62:	d003      	beq.n	c6c <g_CryptoTaAes_AesOper+0x11c>
/home/st/桌面/OP-TEE/basicAlg_use/ta/CryptoVerifyTaAes.c:125
     c64:	f04f 33ff 	mov.w	r3, #4294967295	; 0xffffffff
     c68:	627b      	str	r3, [r7, #36]	; 0x24
/home/st/桌面/OP-TEE/basicAlg_use/ta/CryptoVerifyTaAes.c:126
     c6a:	e0a9      	b.n	dc0 <g_CryptoTaAes_AesOper+0x270>
/home/st/桌面/OP-TEE/basicAlg_use/ta/CryptoVerifyTaAes.c:129
     c6c:	4b5f      	ldr	r3, [pc, #380]	; (dec <g_CryptoTaAes_AesOper+0x29c>)
     c6e:	447b      	add	r3, pc
     c70:	9300      	str	r3, [sp, #0]
     c72:	f04f 0300 	mov.w	r3, #0
     c76:	f04f 0200 	mov.w	r2, #0
     c7a:	f04f 0100 	mov.w	r1, #0
     c7e:	f04f 0000 	mov.w	r0, #0
     c82:	f009 fb11 	bl	a2a8 <trace_printf>
/home/st/桌面/OP-TEE/basicAlg_use/ta/CryptoVerifyTaAes.c:131
     c86:	6c7b      	ldr	r3, [r7, #68]	; 0x44
     c88:	f107 0210 	add.w	r2, r7, #16
     c8c:	4619      	mov	r1, r3
     c8e:	f04f 0010 	mov.w	r0, #16
     c92:	f2ca 0000 	movt	r0, #40960	; 0xa000
     c96:	f00b fba8 	bl	c3ea <TEE_AllocateTransientObject>
     c9a:	61b8      	str	r0, [r7, #24]
/home/st/桌面/OP-TEE/basicAlg_use/ta/CryptoVerifyTaAes.c:132
     c9c:	69bb      	ldr	r3, [r7, #24]
     c9e:	2b00      	cmp	r3, #0
     ca0:	d003      	beq.n	caa <g_CryptoTaAes_AesOper+0x15a>
/home/st/桌面/OP-TEE/basicAlg_use/ta/CryptoVerifyTaAes.c:134
     ca2:	f04f 33ff 	mov.w	r3, #4294967295	; 0xffffffff
     ca6:	627b      	str	r3, [r7, #36]	; 0x24
/home/st/桌面/OP-TEE/basicAlg_use/ta/CryptoVerifyTaAes.c:135
     ca8:	e08a      	b.n	dc0 <g_CryptoTaAes_AesOper+0x270>
/home/st/桌面/OP-TEE/basicAlg_use/ta/CryptoVerifyTaAes.c:138
     caa:	4b51      	ldr	r3, [pc, #324]	; (df0 <g_CryptoTaAes_AesOper+0x2a0>)
     cac:	447b      	add	r3, pc
     cae:	9300      	str	r3, [sp, #0]
     cb0:	f04f 0300 	mov.w	r3, #0
     cb4:	f04f 0200 	mov.w	r2, #0
     cb8:	f04f 0100 	mov.w	r1, #0
     cbc:	f04f 0000 	mov.w	r0, #0
     cc0:	f009 faf2 	bl	a2a8 <trace_printf>
/home/st/桌面/OP-TEE/basicAlg_use/ta/CryptoVerifyTaAes.c:140
     cc4:	6bba      	ldr	r2, [r7, #56]	; 0x38
     cc6:	f107 0004 	add.w	r0, r7, #4
     cca:	f04f 0310 	mov.w	r3, #16
     cce:	f04f 4140 	mov.w	r1, #3221225472	; 0xc0000000
     cd2:	f00b fcb1 	bl	c638 <TEE_InitRefAttribute>
/home/st/桌面/OP-TEE/basicAlg_use/ta/CryptoVerifyTaAes.c:141
     cd6:	693b      	ldr	r3, [r7, #16]
     cd8:	f107 0104 	add.w	r1, r7, #4
     cdc:	f04f 0201 	mov.w	r2, #1
     ce0:	4618      	mov	r0, r3
     ce2:	f00b fc12 	bl	c50a <TEE_PopulateTransientObject>
     ce6:	61b8      	str	r0, [r7, #24]
/home/st/桌面/OP-TEE/basicAlg_use/ta/CryptoVerifyTaAes.c:142
     ce8:	69bb      	ldr	r3, [r7, #24]
     cea:	2b00      	cmp	r3, #0
     cec:	d003      	beq.n	cf6 <g_CryptoTaAes_AesOper+0x1a6>
/home/st/桌面/OP-TEE/basicAlg_use/ta/CryptoVerifyTaAes.c:144
     cee:	f04f 33ff 	mov.w	r3, #4294967295	; 0xffffffff
     cf2:	627b      	str	r3, [r7, #36]	; 0x24
/home/st/桌面/OP-TEE/basicAlg_use/ta/CryptoVerifyTaAes.c:145
     cf4:	e064      	b.n	dc0 <g_CryptoTaAes_AesOper+0x270>
/home/st/桌面/OP-TEE/basicAlg_use/ta/CryptoVerifyTaAes.c:148
     cf6:	4b3f      	ldr	r3, [pc, #252]	; (df4 <g_CryptoTaAes_AesOper+0x2a4>)
     cf8:	447b      	add	r3, pc
     cfa:	9300      	str	r3, [sp, #0]
     cfc:	f04f 0300 	mov.w	r3, #0
     d00:	f04f 0200 	mov.w	r2, #0
     d04:	f04f 0100 	mov.w	r1, #0
     d08:	f04f 0000 	mov.w	r0, #0
     d0c:	f009 facc 	bl	a2a8 <trace_printf>
/home/st/桌面/OP-TEE/basicAlg_use/ta/CryptoVerifyTaAes.c:150
     d10:	697b      	ldr	r3, [r7, #20]
     d12:	693a      	ldr	r2, [r7, #16]
     d14:	4611      	mov	r1, r2
     d16:	4618      	mov	r0, r3
     d18:	f003 f860 	bl	3ddc <TEE_SetOperationKey>
     d1c:	61b8      	str	r0, [r7, #24]
/home/st/桌面/OP-TEE/basicAlg_use/ta/CryptoVerifyTaAes.c:151
     d1e:	69bb      	ldr	r3, [r7, #24]
     d20:	2b00      	cmp	r3, #0
     d22:	d003      	beq.n	d2c <g_CryptoTaAes_AesOper+0x1dc>
/home/st/桌面/OP-TEE/basicAlg_use/ta/CryptoVerifyTaAes.c:153
     d24:	f04f 33ff 	mov.w	r3, #4294967295	; 0xffffffff
     d28:	627b      	str	r3, [r7, #36]	; 0x24
/home/st/桌面/OP-TEE/basicAlg_use/ta/CryptoVerifyTaAes.c:154
     d2a:	e045      	b.n	db8 <g_CryptoTaAes_AesOper+0x268>
/home/st/桌面/OP-TEE/basicAlg_use/ta/CryptoVerifyTaAes.c:157
     d2c:	4b32      	ldr	r3, [pc, #200]	; (df8 <g_CryptoTaAes_AesOper+0x2a8>)
     d2e:	447b      	add	r3, pc
     d30:	9300      	str	r3, [sp, #0]
     d32:	f04f 0300 	mov.w	r3, #0
     d36:	f04f 0200 	mov.w	r2, #0
     d3a:	f04f 0100 	mov.w	r1, #0
     d3e:	f04f 0000 	mov.w	r0, #0
     d42:	f009 fab1 	bl	a2a8 <trace_printf>
/home/st/桌面/OP-TEE/basicAlg_use/ta/CryptoVerifyTaAes.c:159
     d46:	697b      	ldr	r3, [r7, #20]
     d48:	6bf9      	ldr	r1, [r7, #60]	; 0x3c
     d4a:	6cba      	ldr	r2, [r7, #72]	; 0x48
     d4c:	4618      	mov	r0, r3
     d4e:	f003 fb45 	bl	43dc <TEE_CipherInit>
/home/st/桌面/OP-TEE/basicAlg_use/ta/CryptoVerifyTaAes.c:197
     d52:	4b2a      	ldr	r3, [pc, #168]	; (dfc <g_CryptoTaAes_AesOper+0x2ac>)
     d54:	447b      	add	r3, pc
     d56:	9300      	str	r3, [sp, #0]
     d58:	f04f 0300 	mov.w	r3, #0
     d5c:	f04f 0200 	mov.w	r2, #0
     d60:	f04f 0100 	mov.w	r1, #0
     d64:	f04f 0000 	mov.w	r0, #0
     d68:	f009 fa9e 	bl	a2a8 <trace_printf>
/home/st/桌面/OP-TEE/basicAlg_use/ta/CryptoVerifyTaAes.c:199
     d6c:	6978      	ldr	r0, [r7, #20]
     d6e:	683a      	ldr	r2, [r7, #0]
     d70:	463b      	mov	r3, r7
     d72:	9300      	str	r3, [sp, #0]
     d74:	69fb      	ldr	r3, [r7, #28]
     d76:	6a39      	ldr	r1, [r7, #32]
     d78:	f003 fde2 	bl	4940 <TEE_CipherDoFinal>
     d7c:	61b8      	str	r0, [r7, #24]
/home/st/桌面/OP-TEE/basicAlg_use/ta/CryptoVerifyTaAes.c:200
     d7e:	69bb      	ldr	r3, [r7, #24]
     d80:	2b00      	cmp	r3, #0
     d82:	d003      	beq.n	d8c <g_CryptoTaAes_AesOper+0x23c>
/home/st/桌面/OP-TEE/basicAlg_use/ta/CryptoVerifyTaAes.c:202
     d84:	f04f 33ff 	mov.w	r3, #4294967295	; 0xffffffff
     d88:	627b      	str	r3, [r7, #36]	; 0x24
     d8a:	e002      	b.n	d92 <g_CryptoTaAes_AesOper+0x242>
/home/st/桌面/OP-TEE/basicAlg_use/ta/CryptoVerifyTaAes.c:206
     d8c:	f04f 0300 	mov.w	r3, #0
     d90:	627b      	str	r3, [r7, #36]	; 0x24
/home/st/桌面/OP-TEE/basicAlg_use/ta/CryptoVerifyTaAes.c:209
     d92:	4b1b      	ldr	r3, [pc, #108]	; (e00 <g_CryptoTaAes_AesOper+0x2b0>)
     d94:	447b      	add	r3, pc
     d96:	9300      	str	r3, [sp, #0]
     d98:	f04f 0300 	mov.w	r3, #0
     d9c:	f04f 0200 	mov.w	r2, #0
     da0:	f04f 0100 	mov.w	r1, #0
     da4:	f04f 0000 	mov.w	r0, #0
     da8:	f009 fa7e 	bl	a2a8 <trace_printf>
/home/st/桌面/OP-TEE/basicAlg_use/ta/CryptoVerifyTaAes.c:210
     dac:	6b7b      	ldr	r3, [r7, #52]	; 0x34
     dae:	6c3a      	ldr	r2, [r7, #64]	; 0x40
     db0:	4611      	mov	r1, r2
     db2:	4618      	mov	r0, r3
     db4:	f000 fda4 	bl	1900 <g_TA_Printf>
/home/st/桌面/OP-TEE/basicAlg_use/ta/CryptoVerifyTaAes.c:215
     db8:	697b      	ldr	r3, [r7, #20]
     dba:	4618      	mov	r0, r3
     dbc:	f002 feae 	bl	3b1c <TEE_FreeOperation>
/home/st/桌面/OP-TEE/basicAlg_use/ta/CryptoVerifyTaAes.c:217
     dc0:	6a7b      	ldr	r3, [r7, #36]	; 0x24
/home/st/桌面/OP-TEE/basicAlg_use/ta/CryptoVerifyTaAes.c:218
     dc2:	4618      	mov	r0, r3
     dc4:	f107 0728 	add.w	r7, r7, #40	; 0x28
     dc8:	46bd      	mov	sp, r7
     dca:	e9dd 7e00 	ldrd	r7, lr, [sp]
     dce:	b002      	add	sp, #8
     dd0:	b004      	add	sp, #16
     dd2:	4770      	bx	lr
     dd4:	00010150 	.word	0x00010150
     dd8:	0001016a 	.word	0x0001016a
     ddc:	00010150 	.word	0x00010150
     de0:	0001012e 	.word	0x0001012e
     de4:	00010120 	.word	0x00010120
     de8:	00010112 	.word	0x00010112
     dec:	000100e6 	.word	0x000100e6
     df0:	000100bc 	.word	0x000100bc
     df4:	00010080 	.word	0x00010080
     df8:	00010056 	.word	0x00010056
     dfc:	00010040 	.word	0x00010040
     e00:	00010014 	.word	0x00010014

00000e04 <g_CryptoTaHash_sha>:
g_CryptoTaHash_sha():
/home/st/桌面/OP-TEE/basicAlg_use/ta/CryptoVerifyTaHash.c:94
     e04:	e96d 7e02 	strd	r7, lr, [sp, #-8]!
     e08:	b08c      	sub	sp, #48	; 0x30
     e0a:	af04      	add	r7, sp, #16
     e0c:	60f8      	str	r0, [r7, #12]
     e0e:	60b9      	str	r1, [r7, #8]
     e10:	607a      	str	r2, [r7, #4]
     e12:	603b      	str	r3, [r7, #0]
/home/st/桌面/OP-TEE/basicAlg_use/ta/CryptoVerifyTaHash.c:98
     e14:	f04f 0300 	mov.w	r3, #0
     e18:	61bb      	str	r3, [r7, #24]
/home/st/桌面/OP-TEE/basicAlg_use/ta/CryptoVerifyTaHash.c:100
     e1a:	683b      	ldr	r3, [r7, #0]
     e1c:	9302      	str	r3, [sp, #8]
     e1e:	687b      	ldr	r3, [r7, #4]
     e20:	9301      	str	r3, [sp, #4]
     e22:	4b59      	ldr	r3, [pc, #356]	; (f88 <g_CryptoTaHash_sha+0x184>)
     e24:	447b      	add	r3, pc
     e26:	9300      	str	r3, [sp, #0]
     e28:	f04f 0300 	mov.w	r3, #0
     e2c:	f04f 0200 	mov.w	r2, #0
     e30:	f04f 0100 	mov.w	r1, #0
     e34:	f04f 0000 	mov.w	r0, #0
     e38:	f009 fa36 	bl	a2a8 <trace_printf>
/home/st/桌面/OP-TEE/basicAlg_use/ta/CryptoVerifyTaHash.c:104
     e3c:	68fb      	ldr	r3, [r7, #12]
     e3e:	2b01      	cmp	r3, #1
     e40:	d002      	beq.n	e48 <g_CryptoTaHash_sha+0x44>
     e42:	2b03      	cmp	r3, #3
     e44:	d013      	beq.n	e6e <g_CryptoTaHash_sha+0x6a>
     e46:	e018      	b.n	e7a <g_CryptoTaHash_sha+0x76>
/home/st/桌面/OP-TEE/basicAlg_use/ta/CryptoVerifyTaHash.c:107
     e48:	4b50      	ldr	r3, [pc, #320]	; (f8c <g_CryptoTaHash_sha+0x188>)
     e4a:	447b      	add	r3, pc
     e4c:	9300      	str	r3, [sp, #0]
     e4e:	f04f 0300 	mov.w	r3, #0
     e52:	f04f 0200 	mov.w	r2, #0
     e56:	f04f 0100 	mov.w	r1, #0
     e5a:	f04f 0000 	mov.w	r0, #0
     e5e:	f009 fa23 	bl	a2a8 <trace_printf>
/home/st/桌面/OP-TEE/basicAlg_use/ta/CryptoVerifyTaHash.c:108
     e62:	f04f 0302 	mov.w	r3, #2
     e66:	f2c5 0300 	movt	r3, #20480	; 0x5000
     e6a:	61fb      	str	r3, [r7, #28]
/home/st/桌面/OP-TEE/basicAlg_use/ta/CryptoVerifyTaHash.c:109
     e6c:	e00c      	b.n	e88 <g_CryptoTaHash_sha+0x84>
/home/st/桌面/OP-TEE/basicAlg_use/ta/CryptoVerifyTaHash.c:111
     e6e:	f04f 0304 	mov.w	r3, #4
     e72:	f2c5 0300 	movt	r3, #20480	; 0x5000
     e76:	61fb      	str	r3, [r7, #28]
/home/st/桌面/OP-TEE/basicAlg_use/ta/CryptoVerifyTaHash.c:112
     e78:	e006      	b.n	e88 <g_CryptoTaHash_sha+0x84>
/home/st/桌面/OP-TEE/basicAlg_use/ta/CryptoVerifyTaHash.c:114
     e7a:	f64f 73ff 	movw	r3, #65535	; 0xffff
     e7e:	61fb      	str	r3, [r7, #28]
/home/st/桌面/OP-TEE/basicAlg_use/ta/CryptoVerifyTaHash.c:115
     e80:	f04f 33ff 	mov.w	r3, #4294967295	; 0xffffffff
     e84:	61bb      	str	r3, [r7, #24]
/home/st/桌面/OP-TEE/basicAlg_use/ta/CryptoVerifyTaHash.c:116
     e86:	e078      	b.n	f7a <g_CryptoTaHash_sha+0x176>
/home/st/桌面/OP-TEE/basicAlg_use/ta/CryptoVerifyTaHash.c:122
     e88:	f107 0010 	add.w	r0, r7, #16
     e8c:	f04f 0300 	mov.w	r3, #0
     e90:	f04f 0205 	mov.w	r2, #5
     e94:	69f9      	ldr	r1, [r7, #28]
     e96:	f002 f9a1 	bl	31dc <TEE_AllocateOperation>
     e9a:	6178      	str	r0, [r7, #20]
/home/st/桌面/OP-TEE/basicAlg_use/ta/CryptoVerifyTaHash.c:123
     e9c:	697b      	ldr	r3, [r7, #20]
     e9e:	2b00      	cmp	r3, #0
     ea0:	d010      	beq.n	ec4 <g_CryptoTaHash_sha+0xc0>
/home/st/桌面/OP-TEE/basicAlg_use/ta/CryptoVerifyTaHash.c:125
     ea2:	4b3b      	ldr	r3, [pc, #236]	; (f90 <g_CryptoTaHash_sha+0x18c>)
     ea4:	447b      	add	r3, pc
     ea6:	9300      	str	r3, [sp, #0]
     ea8:	f04f 0300 	mov.w	r3, #0
     eac:	f04f 0200 	mov.w	r2, #0
     eb0:	f04f 0100 	mov.w	r1, #0
     eb4:	f04f 0000 	mov.w	r0, #0
     eb8:	f009 f9f6 	bl	a2a8 <trace_printf>
/home/st/桌面/OP-TEE/basicAlg_use/ta/CryptoVerifyTaHash.c:126
     ebc:	f04f 33ff 	mov.w	r3, #4294967295	; 0xffffffff
     ec0:	61bb      	str	r3, [r7, #24]
/home/st/桌面/OP-TEE/basicAlg_use/ta/CryptoVerifyTaHash.c:127
     ec2:	e05a      	b.n	f7a <g_CryptoTaHash_sha+0x176>
/home/st/桌面/OP-TEE/basicAlg_use/ta/CryptoVerifyTaHash.c:130
     ec4:	693b      	ldr	r3, [r7, #16]
     ec6:	687a      	ldr	r2, [r7, #4]
     ec8:	68b9      	ldr	r1, [r7, #8]
     eca:	4618      	mov	r0, r3
     ecc:	f003 f9f8 	bl	42c0 <TEE_DigestUpdate>
/home/st/桌面/OP-TEE/basicAlg_use/ta/CryptoVerifyTaHash.c:133
     ed0:	6938      	ldr	r0, [r7, #16]
     ed2:	6abb      	ldr	r3, [r7, #40]	; 0x28
     ed4:	9300      	str	r3, [sp, #0]
     ed6:	683b      	ldr	r3, [r7, #0]
     ed8:	f04f 0200 	mov.w	r2, #0
     edc:	f04f 0100 	mov.w	r1, #0
     ee0:	f003 fa1c 	bl	431c <TEE_DigestDoFinal>
     ee4:	6178      	str	r0, [r7, #20]
/home/st/桌面/OP-TEE/basicAlg_use/ta/CryptoVerifyTaHash.c:134
     ee6:	6abb      	ldr	r3, [r7, #40]	; 0x28
     ee8:	681b      	ldr	r3, [r3, #0]
     eea:	9301      	str	r3, [sp, #4]
     eec:	4b29      	ldr	r3, [pc, #164]	; (f94 <g_CryptoTaHash_sha+0x190>)
     eee:	447b      	add	r3, pc
     ef0:	9300      	str	r3, [sp, #0]
     ef2:	f04f 0300 	mov.w	r3, #0
     ef6:	f04f 0200 	mov.w	r2, #0
     efa:	f04f 0100 	mov.w	r1, #0
     efe:	f04f 0000 	mov.w	r0, #0
     f02:	f009 f9d1 	bl	a2a8 <trace_printf>
/home/st/桌面/OP-TEE/basicAlg_use/ta/CryptoVerifyTaHash.c:135
     f06:	697b      	ldr	r3, [r7, #20]
     f08:	9301      	str	r3, [sp, #4]
     f0a:	4b23      	ldr	r3, [pc, #140]	; (f98 <g_CryptoTaHash_sha+0x194>)
     f0c:	447b      	add	r3, pc
     f0e:	9300      	str	r3, [sp, #0]
     f10:	f04f 0300 	mov.w	r3, #0
     f14:	f04f 0200 	mov.w	r2, #0
     f18:	f04f 0100 	mov.w	r1, #0
     f1c:	f04f 0000 	mov.w	r0, #0
     f20:	f009 f9c2 	bl	a2a8 <trace_printf>
/home/st/桌面/OP-TEE/basicAlg_use/ta/CryptoVerifyTaHash.c:137
     f24:	697b      	ldr	r3, [r7, #20]
     f26:	2b00      	cmp	r3, #0
     f28:	d010      	beq.n	f4c <g_CryptoTaHash_sha+0x148>
/home/st/桌面/OP-TEE/basicAlg_use/ta/CryptoVerifyTaHash.c:139
     f2a:	4b1c      	ldr	r3, [pc, #112]	; (f9c <g_CryptoTaHash_sha+0x198>)
     f2c:	447b      	add	r3, pc
     f2e:	9300      	str	r3, [sp, #0]
     f30:	f04f 0300 	mov.w	r3, #0
     f34:	f04f 0200 	mov.w	r2, #0
     f38:	f04f 0100 	mov.w	r1, #0
     f3c:	f04f 0000 	mov.w	r0, #0
     f40:	f009 f9b2 	bl	a2a8 <trace_printf>
/home/st/桌面/OP-TEE/basicAlg_use/ta/CryptoVerifyTaHash.c:140
     f44:	f04f 33ff 	mov.w	r3, #4294967295	; 0xffffffff
     f48:	61bb      	str	r3, [r7, #24]
/home/st/桌面/OP-TEE/basicAlg_use/ta/CryptoVerifyTaHash.c:141
     f4a:	e012      	b.n	f72 <g_CryptoTaHash_sha+0x16e>
/home/st/桌面/OP-TEE/basicAlg_use/ta/CryptoVerifyTaHash.c:144
     f4c:	4b14      	ldr	r3, [pc, #80]	; (fa0 <g_CryptoTaHash_sha+0x19c>)
     f4e:	447b      	add	r3, pc
     f50:	9300      	str	r3, [sp, #0]
     f52:	f04f 0300 	mov.w	r3, #0
     f56:	f04f 0200 	mov.w	r2, #0
     f5a:	f04f 0100 	mov.w	r1, #0
     f5e:	f04f 0000 	mov.w	r0, #0
     f62:	f009 f9a1 	bl	a2a8 <trace_printf>
/home/st/桌面/OP-TEE/basicAlg_use/ta/CryptoVerifyTaHash.c:145
     f66:	6abb      	ldr	r3, [r7, #40]	; 0x28
     f68:	681b      	ldr	r3, [r3, #0]
     f6a:	4619      	mov	r1, r3
     f6c:	6838      	ldr	r0, [r7, #0]
     f6e:	f000 fcc7 	bl	1900 <g_TA_Printf>
/home/st/桌面/OP-TEE/basicAlg_use/ta/CryptoVerifyTaHash.c:149
     f72:	693b      	ldr	r3, [r7, #16]
     f74:	4618      	mov	r0, r3
     f76:	f002 fdd1 	bl	3b1c <TEE_FreeOperation>
/home/st/桌面/OP-TEE/basicAlg_use/ta/CryptoVerifyTaHash.c:151
     f7a:	69bb      	ldr	r3, [r7, #24]
/home/st/桌面/OP-TEE/basicAlg_use/ta/CryptoVerifyTaHash.c:152
     f7c:	4618      	mov	r0, r3
     f7e:	f107 0720 	add.w	r7, r7, #32
     f82:	46bd      	mov	sp, r7
     f84:	bd80      	pop	{r7, pc}
     f86:	bf00      	nop
     f88:	0000ffb4 	.word	0x0000ffb4
     f8c:	0000ffba 	.word	0x0000ffba
     f90:	0000ff78 	.word	0x0000ff78
     f94:	0000ff52 	.word	0x0000ff52
     f98:	0000ff50 	.word	0x0000ff50
     f9c:	0000ff4c 	.word	0x0000ff4c
     fa0:	0000ff4e 	.word	0x0000ff4e

00000fa4 <g_CryptoTaHash_hmac>:
g_CryptoTaHash_hmac():
/home/st/桌面/OP-TEE/basicAlg_use/ta/CryptoVerifyTaHash.c:171
     fa4:	f84d 4d0c 	str.w	r4, [sp, #-12]!
     fa8:	e9cd 7e01 	strd	r7, lr, [sp, #4]
     fac:	b099      	sub	sp, #100	; 0x64
     fae:	af02      	add	r7, sp, #8
     fb0:	60f8      	str	r0, [r7, #12]
     fb2:	60b9      	str	r1, [r7, #8]
     fb4:	607a      	str	r2, [r7, #4]
     fb6:	603b      	str	r3, [r7, #0]
/home/st/桌面/OP-TEE/basicAlg_use/ta/CryptoVerifyTaHash.c:173
     fb8:	f04f 0300 	mov.w	r3, #0
     fbc:	657b      	str	r3, [r7, #84]	; 0x54
/home/st/桌面/OP-TEE/basicAlg_use/ta/CryptoVerifyTaHash.c:178
     fbe:	f107 0214 	add.w	r2, r7, #20
     fc2:	f04f 0300 	mov.w	r3, #0
     fc6:	f04f 0400 	mov.w	r4, #0
     fca:	e9c2 3400 	strd	r3, r4, [r2]
     fce:	e9c2 3402 	strd	r3, r4, [r2, #8]
     fd2:	e9c2 3404 	strd	r3, r4, [r2, #16]
     fd6:	e9c2 3406 	strd	r3, r4, [r2, #24]
     fda:	6213      	str	r3, [r2, #32]
/home/st/桌面/OP-TEE/basicAlg_use/ta/CryptoVerifyTaHash.c:181
     fdc:	687b      	ldr	r3, [r7, #4]
     fde:	9301      	str	r3, [sp, #4]
     fe0:	4ba6      	ldr	r3, [pc, #664]	; (127c <g_CryptoTaHash_hmac+0x2d8>)
     fe2:	447b      	add	r3, pc
     fe4:	9300      	str	r3, [sp, #0]
     fe6:	f04f 0300 	mov.w	r3, #0
     fea:	f04f 0200 	mov.w	r2, #0
     fee:	f04f 0100 	mov.w	r1, #0
     ff2:	f04f 0000 	mov.w	r0, #0
     ff6:	f009 f957 	bl	a2a8 <trace_printf>
/home/st/桌面/OP-TEE/basicAlg_use/ta/CryptoVerifyTaHash.c:182
     ffa:	683b      	ldr	r3, [r7, #0]
     ffc:	9301      	str	r3, [sp, #4]
     ffe:	4ba0      	ldr	r3, [pc, #640]	; (1280 <g_CryptoTaHash_hmac+0x2dc>)
    1000:	447b      	add	r3, pc
    1002:	9300      	str	r3, [sp, #0]
    1004:	f04f 0300 	mov.w	r3, #0
    1008:	f04f 0200 	mov.w	r2, #0
    100c:	f04f 0100 	mov.w	r1, #0
    1010:	f04f 0000 	mov.w	r0, #0
    1014:	f009 f948 	bl	a2a8 <trace_printf>
/home/st/桌面/OP-TEE/basicAlg_use/ta/CryptoVerifyTaHash.c:183
    1018:	6ebb      	ldr	r3, [r7, #104]	; 0x68
    101a:	9301      	str	r3, [sp, #4]
    101c:	4b99      	ldr	r3, [pc, #612]	; (1284 <g_CryptoTaHash_hmac+0x2e0>)
    101e:	447b      	add	r3, pc
    1020:	9300      	str	r3, [sp, #0]
    1022:	f04f 0300 	mov.w	r3, #0
    1026:	f04f 0200 	mov.w	r2, #0
    102a:	f04f 0100 	mov.w	r1, #0
    102e:	f04f 0000 	mov.w	r0, #0
    1032:	f009 f939 	bl	a2a8 <trace_printf>
/home/st/桌面/OP-TEE/basicAlg_use/ta/CryptoVerifyTaHash.c:184
    1036:	6efb      	ldr	r3, [r7, #108]	; 0x6c
    1038:	9301      	str	r3, [sp, #4]
    103a:	4b93      	ldr	r3, [pc, #588]	; (1288 <g_CryptoTaHash_hmac+0x2e4>)
    103c:	447b      	add	r3, pc
    103e:	9300      	str	r3, [sp, #0]
    1040:	f04f 0300 	mov.w	r3, #0
    1044:	f04f 0200 	mov.w	r2, #0
    1048:	f04f 0100 	mov.w	r1, #0
    104c:	f04f 0000 	mov.w	r0, #0
    1050:	f009 f92a 	bl	a2a8 <trace_printf>
/home/st/桌面/OP-TEE/basicAlg_use/ta/CryptoVerifyTaHash.c:185
    1054:	68bb      	ldr	r3, [r7, #8]
    1056:	9301      	str	r3, [sp, #4]
    1058:	4b8c      	ldr	r3, [pc, #560]	; (128c <g_CryptoTaHash_hmac+0x2e8>)
    105a:	447b      	add	r3, pc
    105c:	9300      	str	r3, [sp, #0]
    105e:	f04f 0300 	mov.w	r3, #0
    1062:	f04f 0200 	mov.w	r2, #0
    1066:	f04f 0100 	mov.w	r1, #0
    106a:	f04f 0000 	mov.w	r0, #0
    106e:	f009 f91b 	bl	a2a8 <trace_printf>
/home/st/桌面/OP-TEE/basicAlg_use/ta/CryptoVerifyTaHash.c:186
    1072:	6f3b      	ldr	r3, [r7, #112]	; 0x70
    1074:	9301      	str	r3, [sp, #4]
    1076:	4b86      	ldr	r3, [pc, #536]	; (1290 <g_CryptoTaHash_hmac+0x2ec>)
    1078:	447b      	add	r3, pc
    107a:	9300      	str	r3, [sp, #0]
    107c:	f04f 0300 	mov.w	r3, #0
    1080:	f04f 0200 	mov.w	r2, #0
    1084:	f04f 0100 	mov.w	r1, #0
    1088:	f04f 0000 	mov.w	r0, #0
    108c:	f009 f90c 	bl	a2a8 <trace_printf>
/home/st/桌面/OP-TEE/basicAlg_use/ta/CryptoVerifyTaHash.c:189
    1090:	f107 004c 	add.w	r0, r7, #76	; 0x4c
    1094:	f44f 6300 	mov.w	r3, #2048	; 0x800
    1098:	f04f 0206 	mov.w	r2, #6
    109c:	f242 01c2 	movw	r1, #8386	; 0x20c2
    10a0:	f2c8 0100 	movt	r1, #32768	; 0x8000
    10a4:	f002 f89a 	bl	31dc <TEE_AllocateOperation>
    10a8:	6538      	str	r0, [r7, #80]	; 0x50
/home/st/桌面/OP-TEE/basicAlg_use/ta/CryptoVerifyTaHash.c:190
    10aa:	6d3b      	ldr	r3, [r7, #80]	; 0x50
    10ac:	2b00      	cmp	r3, #0
    10ae:	d010      	beq.n	10d2 <g_CryptoTaHash_hmac+0x12e>
/home/st/桌面/OP-TEE/basicAlg_use/ta/CryptoVerifyTaHash.c:192
    10b0:	4b78      	ldr	r3, [pc, #480]	; (1294 <g_CryptoTaHash_hmac+0x2f0>)
    10b2:	447b      	add	r3, pc
    10b4:	9300      	str	r3, [sp, #0]
    10b6:	f04f 0300 	mov.w	r3, #0
    10ba:	f04f 0200 	mov.w	r2, #0
    10be:	f04f 0100 	mov.w	r1, #0
    10c2:	f04f 0000 	mov.w	r0, #0
    10c6:	f009 f8ef 	bl	a2a8 <trace_printf>
/home/st/桌面/OP-TEE/basicAlg_use/ta/CryptoVerifyTaHash.c:193
    10ca:	f04f 33ff 	mov.w	r3, #4294967295	; 0xffffffff
    10ce:	657b      	str	r3, [r7, #84]	; 0x54
/home/st/桌面/OP-TEE/basicAlg_use/ta/CryptoVerifyTaHash.c:194
    10d0:	e0ca      	b.n	1268 <g_CryptoTaHash_hmac+0x2c4>
/home/st/桌面/OP-TEE/basicAlg_use/ta/CryptoVerifyTaHash.c:198
    10d2:	f107 0344 	add.w	r3, r7, #68	; 0x44
    10d6:	461a      	mov	r2, r3
    10d8:	f44f 6100 	mov.w	r1, #2048	; 0x800
    10dc:	f04f 00c2 	mov.w	r0, #194	; 0xc2
    10e0:	f2ca 1000 	movt	r0, #41216	; 0xa100
    10e4:	f00b f981 	bl	c3ea <TEE_AllocateTransientObject>
    10e8:	6538      	str	r0, [r7, #80]	; 0x50
/home/st/桌面/OP-TEE/basicAlg_use/ta/CryptoVerifyTaHash.c:200
    10ea:	6d3b      	ldr	r3, [r7, #80]	; 0x50
    10ec:	2b00      	cmp	r3, #0
    10ee:	d010      	beq.n	1112 <g_CryptoTaHash_hmac+0x16e>
/home/st/桌面/OP-TEE/basicAlg_use/ta/CryptoVerifyTaHash.c:202
    10f0:	4b69      	ldr	r3, [pc, #420]	; (1298 <g_CryptoTaHash_hmac+0x2f4>)
    10f2:	447b      	add	r3, pc
    10f4:	9300      	str	r3, [sp, #0]
    10f6:	f04f 0300 	mov.w	r3, #0
    10fa:	f04f 0200 	mov.w	r2, #0
    10fe:	f04f 0100 	mov.w	r1, #0
    1102:	f04f 0000 	mov.w	r0, #0
    1106:	f009 f8cf 	bl	a2a8 <trace_printf>
/home/st/桌面/OP-TEE/basicAlg_use/ta/CryptoVerifyTaHash.c:203
    110a:	f04f 33ff 	mov.w	r3, #4294967295	; 0xffffffff
    110e:	657b      	str	r3, [r7, #84]	; 0x54
/home/st/桌面/OP-TEE/basicAlg_use/ta/CryptoVerifyTaHash.c:204
    1110:	e0a6      	b.n	1260 <g_CryptoTaHash_hmac+0x2bc>
/home/st/桌面/OP-TEE/basicAlg_use/ta/CryptoVerifyTaHash.c:207
    1112:	f44f 73e1 	mov.w	r3, #450	; 0x1c2
    1116:	f2cc 0300 	movt	r3, #49152	; 0xc000
    111a:	63bb      	str	r3, [r7, #56]	; 0x38
/home/st/桌面/OP-TEE/basicAlg_use/ta/CryptoVerifyTaHash.c:208
    111c:	687b      	ldr	r3, [r7, #4]
    111e:	63fb      	str	r3, [r7, #60]	; 0x3c
/home/st/桌面/OP-TEE/basicAlg_use/ta/CryptoVerifyTaHash.c:209
    1120:	683b      	ldr	r3, [r7, #0]
    1122:	643b      	str	r3, [r7, #64]	; 0x40
/home/st/桌面/OP-TEE/basicAlg_use/ta/CryptoVerifyTaHash.c:212
    1124:	6c7b      	ldr	r3, [r7, #68]	; 0x44
    1126:	f107 0138 	add.w	r1, r7, #56	; 0x38
    112a:	f04f 0201 	mov.w	r2, #1
    112e:	4618      	mov	r0, r3
    1130:	f00b f9eb 	bl	c50a <TEE_PopulateTransientObject>
    1134:	6538      	str	r0, [r7, #80]	; 0x50
/home/st/桌面/OP-TEE/basicAlg_use/ta/CryptoVerifyTaHash.c:214
    1136:	6d3b      	ldr	r3, [r7, #80]	; 0x50
    1138:	2b00      	cmp	r3, #0
    113a:	d010      	beq.n	115e <g_CryptoTaHash_hmac+0x1ba>
/home/st/桌面/OP-TEE/basicAlg_use/ta/CryptoVerifyTaHash.c:216
    113c:	4b57      	ldr	r3, [pc, #348]	; (129c <g_CryptoTaHash_hmac+0x2f8>)
    113e:	447b      	add	r3, pc
    1140:	9300      	str	r3, [sp, #0]
    1142:	f04f 0300 	mov.w	r3, #0
    1146:	f04f 0200 	mov.w	r2, #0
    114a:	f04f 0100 	mov.w	r1, #0
    114e:	f04f 0000 	mov.w	r0, #0
    1152:	f009 f8a9 	bl	a2a8 <trace_printf>
/home/st/桌面/OP-TEE/basicAlg_use/ta/CryptoVerifyTaHash.c:217
    1156:	f04f 33ff 	mov.w	r3, #4294967295	; 0xffffffff
    115a:	657b      	str	r3, [r7, #84]	; 0x54
/home/st/桌面/OP-TEE/basicAlg_use/ta/CryptoVerifyTaHash.c:218
    115c:	e080      	b.n	1260 <g_CryptoTaHash_hmac+0x2bc>
/home/st/桌面/OP-TEE/basicAlg_use/ta/CryptoVerifyTaHash.c:221
    115e:	6cfb      	ldr	r3, [r7, #76]	; 0x4c
    1160:	6c7a      	ldr	r2, [r7, #68]	; 0x44
    1162:	4611      	mov	r1, r2
    1164:	4618      	mov	r0, r3
    1166:	f002 fe39 	bl	3ddc <TEE_SetOperationKey>
    116a:	6538      	str	r0, [r7, #80]	; 0x50
/home/st/桌面/OP-TEE/basicAlg_use/ta/CryptoVerifyTaHash.c:222
    116c:	6d3b      	ldr	r3, [r7, #80]	; 0x50
    116e:	2b00      	cmp	r3, #0
    1170:	d010      	beq.n	1194 <g_CryptoTaHash_hmac+0x1f0>
/home/st/桌面/OP-TEE/basicAlg_use/ta/CryptoVerifyTaHash.c:224
    1172:	4b4b      	ldr	r3, [pc, #300]	; (12a0 <g_CryptoTaHash_hmac+0x2fc>)
    1174:	447b      	add	r3, pc
    1176:	9300      	str	r3, [sp, #0]
    1178:	f04f 0300 	mov.w	r3, #0
    117c:	f04f 0200 	mov.w	r2, #0
    1180:	f04f 0100 	mov.w	r1, #0
    1184:	f04f 0000 	mov.w	r0, #0
    1188:	f009 f88e 	bl	a2a8 <trace_printf>
/home/st/桌面/OP-TEE/basicAlg_use/ta/CryptoVerifyTaHash.c:225
    118c:	f04f 33ff 	mov.w	r3, #4294967295	; 0xffffffff
    1190:	657b      	str	r3, [r7, #84]	; 0x54
/home/st/桌面/OP-TEE/basicAlg_use/ta/CryptoVerifyTaHash.c:226
    1192:	e065      	b.n	1260 <g_CryptoTaHash_hmac+0x2bc>
/home/st/桌面/OP-TEE/basicAlg_use/ta/CryptoVerifyTaHash.c:230
    1194:	68bb      	ldr	r3, [r7, #8]
    1196:	ea4f 03c3 	mov.w	r3, r3, lsl #3
    119a:	f107 0248 	add.w	r2, r7, #72	; 0x48
    119e:	4619      	mov	r1, r3
    11a0:	f04f 4020 	mov.w	r0, #2684354560	; 0xa0000000
    11a4:	f00b f921 	bl	c3ea <TEE_AllocateTransientObject>
    11a8:	6538      	str	r0, [r7, #80]	; 0x50
/home/st/桌面/OP-TEE/basicAlg_use/ta/CryptoVerifyTaHash.c:232
    11aa:	6d3b      	ldr	r3, [r7, #80]	; 0x50
    11ac:	2b00      	cmp	r3, #0
    11ae:	d010      	beq.n	11d2 <g_CryptoTaHash_hmac+0x22e>
/home/st/桌面/OP-TEE/basicAlg_use/ta/CryptoVerifyTaHash.c:234
    11b0:	4b3c      	ldr	r3, [pc, #240]	; (12a4 <g_CryptoTaHash_hmac+0x300>)
    11b2:	447b      	add	r3, pc
    11b4:	9300      	str	r3, [sp, #0]
    11b6:	f04f 0300 	mov.w	r3, #0
    11ba:	f04f 0200 	mov.w	r2, #0
    11be:	f04f 0100 	mov.w	r1, #0
    11c2:	f04f 0000 	mov.w	r0, #0
    11c6:	f009 f86f 	bl	a2a8 <trace_printf>
/home/st/桌面/OP-TEE/basicAlg_use/ta/CryptoVerifyTaHash.c:235
    11ca:	f04f 33ff 	mov.w	r3, #4294967295	; 0xffffffff
    11ce:	657b      	str	r3, [r7, #84]	; 0x54
/home/st/桌面/OP-TEE/basicAlg_use/ta/CryptoVerifyTaHash.c:236
    11d0:	e046      	b.n	1260 <g_CryptoTaHash_hmac+0x2bc>
/home/st/桌面/OP-TEE/basicAlg_use/ta/CryptoVerifyTaHash.c:239
    11d2:	f240 23c2 	movw	r3, #706	; 0x2c2
    11d6:	f2cd 0300 	movt	r3, #53248	; 0xd000
    11da:	617b      	str	r3, [r7, #20]
/home/st/桌面/OP-TEE/basicAlg_use/ta/CryptoVerifyTaHash.c:240
    11dc:	6ebb      	ldr	r3, [r7, #104]	; 0x68
    11de:	61bb      	str	r3, [r7, #24]
/home/st/桌面/OP-TEE/basicAlg_use/ta/CryptoVerifyTaHash.c:241
    11e0:	6efb      	ldr	r3, [r7, #108]	; 0x6c
    11e2:	61fb      	str	r3, [r7, #28]
/home/st/桌面/OP-TEE/basicAlg_use/ta/CryptoVerifyTaHash.c:243
    11e4:	f240 43c2 	movw	r3, #1218	; 0x4c2
    11e8:	f2cf 0300 	movt	r3, #61440	; 0xf000
    11ec:	623b      	str	r3, [r7, #32]
/home/st/桌面/OP-TEE/basicAlg_use/ta/CryptoVerifyTaHash.c:244
    11ee:	68bb      	ldr	r3, [r7, #8]
    11f0:	627b      	str	r3, [r7, #36]	; 0x24
/home/st/桌面/OP-TEE/basicAlg_use/ta/CryptoVerifyTaHash.c:245
    11f2:	f04f 0300 	mov.w	r3, #0
    11f6:	62bb      	str	r3, [r7, #40]	; 0x28
/home/st/桌面/OP-TEE/basicAlg_use/ta/CryptoVerifyTaHash.c:247
    11f8:	f240 33c2 	movw	r3, #962	; 0x3c2
    11fc:	f2cf 0300 	movt	r3, #61440	; 0xf000
    1200:	62fb      	str	r3, [r7, #44]	; 0x2c
/home/st/桌面/OP-TEE/basicAlg_use/ta/CryptoVerifyTaHash.c:248
    1202:	6f3b      	ldr	r3, [r7, #112]	; 0x70
    1204:	633b      	str	r3, [r7, #48]	; 0x30
/home/st/桌面/OP-TEE/basicAlg_use/ta/CryptoVerifyTaHash.c:249
    1206:	f04f 0300 	mov.w	r3, #0
    120a:	637b      	str	r3, [r7, #52]	; 0x34
/home/st/桌面/OP-TEE/basicAlg_use/ta/CryptoVerifyTaHash.c:251
    120c:	6cf8      	ldr	r0, [r7, #76]	; 0x4c
    120e:	6cbb      	ldr	r3, [r7, #72]	; 0x48
    1210:	f107 0114 	add.w	r1, r7, #20
    1214:	f04f 0203 	mov.w	r2, #3
    1218:	f004 fc88 	bl	5b2c <TEE_DeriveKey>
/home/st/桌面/OP-TEE/basicAlg_use/ta/CryptoVerifyTaHash.c:253
    121c:	6cb8      	ldr	r0, [r7, #72]	; 0x48
    121e:	f107 0308 	add.w	r3, r7, #8
    1222:	68fa      	ldr	r2, [r7, #12]
    1224:	f04f 4140 	mov.w	r1, #3221225472	; 0xc0000000
    1228:	f00a fff6 	bl	c218 <TEE_GetObjectBufferAttribute>
    122c:	6538      	str	r0, [r7, #80]	; 0x50
/home/st/桌面/OP-TEE/basicAlg_use/ta/CryptoVerifyTaHash.c:255
    122e:	6d3b      	ldr	r3, [r7, #80]	; 0x50
    1230:	2b00      	cmp	r3, #0
    1232:	d010      	beq.n	1256 <g_CryptoTaHash_hmac+0x2b2>
/home/st/桌面/OP-TEE/basicAlg_use/ta/CryptoVerifyTaHash.c:257
    1234:	4b1c      	ldr	r3, [pc, #112]	; (12a8 <g_CryptoTaHash_hmac+0x304>)
    1236:	447b      	add	r3, pc
    1238:	9300      	str	r3, [sp, #0]
    123a:	f04f 0300 	mov.w	r3, #0
    123e:	f04f 0200 	mov.w	r2, #0
    1242:	f04f 0100 	mov.w	r1, #0
    1246:	f04f 0000 	mov.w	r0, #0
    124a:	f009 f82d 	bl	a2a8 <trace_printf>
/home/st/桌面/OP-TEE/basicAlg_use/ta/CryptoVerifyTaHash.c:258
    124e:	f04f 33ff 	mov.w	r3, #4294967295	; 0xffffffff
    1252:	657b      	str	r3, [r7, #84]	; 0x54
/home/st/桌面/OP-TEE/basicAlg_use/ta/CryptoVerifyTaHash.c:259
    1254:	e004      	b.n	1260 <g_CryptoTaHash_hmac+0x2bc>
/home/st/桌面/OP-TEE/basicAlg_use/ta/CryptoVerifyTaHash.c:263
    1256:	68bb      	ldr	r3, [r7, #8]
    1258:	4619      	mov	r1, r3
    125a:	68f8      	ldr	r0, [r7, #12]
    125c:	f000 fb50 	bl	1900 <g_TA_Printf>
/home/st/桌面/OP-TEE/basicAlg_use/ta/CryptoVerifyTaHash.c:267
    1260:	6cfb      	ldr	r3, [r7, #76]	; 0x4c
    1262:	4618      	mov	r0, r3
    1264:	f002 fc5a 	bl	3b1c <TEE_FreeOperation>
/home/st/桌面/OP-TEE/basicAlg_use/ta/CryptoVerifyTaHash.c:269
    1268:	6d7b      	ldr	r3, [r7, #84]	; 0x54
/home/st/桌面/OP-TEE/basicAlg_use/ta/CryptoVerifyTaHash.c:270
    126a:	4618      	mov	r0, r3
    126c:	f107 075c 	add.w	r7, r7, #92	; 0x5c
    1270:	46bd      	mov	sp, r7
    1272:	e9dd 4700 	ldrd	r4, r7, [sp]
    1276:	b002      	add	sp, #8
    1278:	f85d fb04 	ldr.w	pc, [sp], #4
    127c:	0000feda 	.word	0x0000feda
    1280:	0000fec4 	.word	0x0000fec4
    1284:	0000feb2 	.word	0x0000feb2
    1288:	0000fea0 	.word	0x0000fea0
    128c:	0000fe92 	.word	0x0000fe92
    1290:	0000fe80 	.word	0x0000fe80
    1294:	0000fd6a 	.word	0x0000fd6a
    1298:	0000fe0e 	.word	0x0000fe0e
    129c:	0000fdc2 	.word	0x0000fdc2
    12a0:	0000fd8c 	.word	0x0000fd8c
    12a4:	0000fd4e 	.word	0x0000fd4e
    12a8:	0000fcca 	.word	0x0000fcca

000012ac <l_CryptoTaPbkdf_HMAC>:
l_CryptoTaPbkdf_HMAC():
/home/st/桌面/OP-TEE/basicAlg_use/ta/CryptoVerifyTaPbkdf2.c:92
    12ac:	f84d 4d0c 	str.w	r4, [sp, #-12]!
    12b0:	e9cd 7e01 	strd	r7, lr, [sp, #4]
    12b4:	f5ad 7d07 	sub.w	sp, sp, #540	; 0x21c
    12b8:	af02      	add	r7, sp, #8
    12ba:	f107 040c 	add.w	r4, r7, #12
    12be:	6020      	str	r0, [r4, #0]
    12c0:	f107 0008 	add.w	r0, r7, #8
    12c4:	6001      	str	r1, [r0, #0]
    12c6:	f107 0104 	add.w	r1, r7, #4
    12ca:	600a      	str	r2, [r1, #0]
    12cc:	463a      	mov	r2, r7
    12ce:	6013      	str	r3, [r2, #0]
/home/st/桌面/OP-TEE/basicAlg_use/ta/CryptoVerifyTaPbkdf2.c:93
    12d0:	f507 73e0 	add.w	r3, r7, #448	; 0x1c0
    12d4:	f04f 0240 	mov.w	r2, #64	; 0x40
    12d8:	f04f 0100 	mov.w	r1, #0
    12dc:	4618      	mov	r0, r3
    12de:	f00c f87e 	bl	d3de <memset>
/home/st/桌面/OP-TEE/basicAlg_use/ta/CryptoVerifyTaPbkdf2.c:94
    12e2:	f107 03c0 	add.w	r3, r7, #192	; 0xc0
    12e6:	4618      	mov	r0, r3
    12e8:	f44f 7380 	mov.w	r3, #256	; 0x100
    12ec:	461a      	mov	r2, r3
    12ee:	f04f 0100 	mov.w	r1, #0
    12f2:	f00c f874 	bl	d3de <memset>
/home/st/桌面/OP-TEE/basicAlg_use/ta/CryptoVerifyTaPbkdf2.c:95
    12f6:	f107 03ac 	add.w	r3, r7, #172	; 0xac
    12fa:	461a      	mov	r2, r3
    12fc:	f04f 0300 	mov.w	r3, #0
    1300:	f04f 0400 	mov.w	r4, #0
    1304:	e9c2 3400 	strd	r3, r4, [r2]
    1308:	e9c2 3402 	strd	r3, r4, [r2, #8]
    130c:	6113      	str	r3, [r2, #16]
/home/st/桌面/OP-TEE/basicAlg_use/ta/CryptoVerifyTaPbkdf2.c:96
    130e:	f04f 0340 	mov.w	r3, #64	; 0x40
    1312:	f8c7 320c 	str.w	r3, [r7, #524]	; 0x20c
/home/st/桌面/OP-TEE/basicAlg_use/ta/CryptoVerifyTaPbkdf2.c:97
    1316:	f04f 0340 	mov.w	r3, #64	; 0x40
    131a:	f8c7 3208 	str.w	r3, [r7, #520]	; 0x208
/home/st/桌面/OP-TEE/basicAlg_use/ta/CryptoVerifyTaPbkdf2.c:98
    131e:	f107 0398 	add.w	r3, r7, #152	; 0x98
    1322:	461a      	mov	r2, r3
    1324:	f04f 0300 	mov.w	r3, #0
    1328:	f04f 0400 	mov.w	r4, #0
    132c:	e9c2 3400 	strd	r3, r4, [r2]
    1330:	e9c2 3402 	strd	r3, r4, [r2, #8]
    1334:	6113      	str	r3, [r2, #16]
/home/st/桌面/OP-TEE/basicAlg_use/ta/CryptoVerifyTaPbkdf2.c:99
    1336:	f04f 0336 	mov.w	r3, #54	; 0x36
    133a:	f887 3203 	strb.w	r3, [r7, #515]	; 0x203
/home/st/桌面/OP-TEE/basicAlg_use/ta/CryptoVerifyTaPbkdf2.c:100
    133e:	f04f 035c 	mov.w	r3, #92	; 0x5c
    1342:	f887 3202 	strb.w	r3, [r7, #514]	; 0x202
/home/st/桌面/OP-TEE/basicAlg_use/ta/CryptoVerifyTaPbkdf2.c:101
    1346:	f04f 0300 	mov.w	r3, #0
    134a:	f8c7 3204 	str.w	r3, [r7, #516]	; 0x204
/home/st/桌面/OP-TEE/basicAlg_use/ta/CryptoVerifyTaPbkdf2.c:102
    134e:	f107 0358 	add.w	r3, r7, #88	; 0x58
    1352:	4618      	mov	r0, r3
    1354:	f04f 0340 	mov.w	r3, #64	; 0x40
    1358:	461a      	mov	r2, r3
    135a:	f04f 0100 	mov.w	r1, #0
    135e:	f00c f83e 	bl	d3de <memset>
/home/st/桌面/OP-TEE/basicAlg_use/ta/CryptoVerifyTaPbkdf2.c:103
    1362:	f107 0318 	add.w	r3, r7, #24
    1366:	4618      	mov	r0, r3
    1368:	f04f 0340 	mov.w	r3, #64	; 0x40
    136c:	461a      	mov	r2, r3
    136e:	f04f 0100 	mov.w	r1, #0
    1372:	f00c f834 	bl	d3de <memset>
/home/st/桌面/OP-TEE/basicAlg_use/ta/CryptoVerifyTaPbkdf2.c:104
    1376:	f107 0314 	add.w	r3, r7, #20
    137a:	f04f 0214 	mov.w	r2, #20
    137e:	601a      	str	r2, [r3, #0]
/home/st/桌面/OP-TEE/basicAlg_use/ta/CryptoVerifyTaPbkdf2.c:108
    1380:	463b      	mov	r3, r7
    1382:	681b      	ldr	r3, [r3, #0]
    1384:	2b40      	cmp	r3, #64	; 0x40
    1386:	d909      	bls.n	139c <l_CryptoTaPbkdf_HMAC+0xf0>
/home/st/桌面/OP-TEE/basicAlg_use/ta/CryptoVerifyTaPbkdf2.c:110
    1388:	f107 0304 	add.w	r3, r7, #4
    138c:	f507 70e0 	add.w	r0, r7, #448	; 0x1c0
    1390:	f04f 0240 	mov.w	r2, #64	; 0x40
    1394:	6819      	ldr	r1, [r3, #0]
    1396:	f001 fdd9 	bl	2f4c <TEE_MemMove>
    139a:	e008      	b.n	13ae <l_CryptoTaPbkdf_HMAC+0x102>
/home/st/桌面/OP-TEE/basicAlg_use/ta/CryptoVerifyTaPbkdf2.c:114
    139c:	463a      	mov	r2, r7
    139e:	f107 0304 	add.w	r3, r7, #4
    13a2:	f507 70e0 	add.w	r0, r7, #448	; 0x1c0
    13a6:	6812      	ldr	r2, [r2, #0]
    13a8:	6819      	ldr	r1, [r3, #0]
    13aa:	f001 fdcf 	bl	2f4c <TEE_MemMove>
/home/st/桌面/OP-TEE/basicAlg_use/ta/CryptoVerifyTaPbkdf2.c:119
    13ae:	f04f 0300 	mov.w	r3, #0
    13b2:	f8c7 3204 	str.w	r3, [r7, #516]	; 0x204
    13b6:	e029      	b.n	140c <l_CryptoTaPbkdf_HMAC+0x160>
/home/st/桌面/OP-TEE/basicAlg_use/ta/CryptoVerifyTaPbkdf2.c:121 (discriminator 3)
    13b8:	f507 72e0 	add.w	r2, r7, #448	; 0x1c0
    13bc:	f8d7 3204 	ldr.w	r3, [r7, #516]	; 0x204
    13c0:	4413      	add	r3, r2
    13c2:	781a      	ldrb	r2, [r3, #0]
    13c4:	f897 3203 	ldrb.w	r3, [r7, #515]	; 0x203
    13c8:	ea83 0302 	eor.w	r3, r3, r2
    13cc:	b2d9      	uxtb	r1, r3
    13ce:	f107 0258 	add.w	r2, r7, #88	; 0x58
    13d2:	f8d7 3204 	ldr.w	r3, [r7, #516]	; 0x204
    13d6:	4413      	add	r3, r2
    13d8:	460a      	mov	r2, r1
    13da:	701a      	strb	r2, [r3, #0]
/home/st/桌面/OP-TEE/basicAlg_use/ta/CryptoVerifyTaPbkdf2.c:122 (discriminator 3)
    13dc:	f507 72e0 	add.w	r2, r7, #448	; 0x1c0
    13e0:	f8d7 3204 	ldr.w	r3, [r7, #516]	; 0x204
    13e4:	4413      	add	r3, r2
    13e6:	781a      	ldrb	r2, [r3, #0]
    13e8:	f897 3202 	ldrb.w	r3, [r7, #514]	; 0x202
    13ec:	ea83 0302 	eor.w	r3, r3, r2
    13f0:	b2d9      	uxtb	r1, r3
    13f2:	f107 0218 	add.w	r2, r7, #24
    13f6:	f8d7 3204 	ldr.w	r3, [r7, #516]	; 0x204
    13fa:	4413      	add	r3, r2
    13fc:	460a      	mov	r2, r1
    13fe:	701a      	strb	r2, [r3, #0]
/home/st/桌面/OP-TEE/basicAlg_use/ta/CryptoVerifyTaPbkdf2.c:119 (discriminator 3)
    1400:	f8d7 3204 	ldr.w	r3, [r7, #516]	; 0x204
    1404:	f103 0301 	add.w	r3, r3, #1
    1408:	f8c7 3204 	str.w	r3, [r7, #516]	; 0x204
/home/st/桌面/OP-TEE/basicAlg_use/ta/CryptoVerifyTaPbkdf2.c:119 (discriminator 1)
    140c:	f8d7 3204 	ldr.w	r3, [r7, #516]	; 0x204
    1410:	2b3f      	cmp	r3, #63	; 0x3f
    1412:	d9d1      	bls.n	13b8 <l_CryptoTaPbkdf_HMAC+0x10c>
/home/st/桌面/OP-TEE/basicAlg_use/ta/CryptoVerifyTaPbkdf2.c:126
    1414:	f04f 0300 	mov.w	r3, #0
    1418:	f8c7 3204 	str.w	r3, [r7, #516]	; 0x204
    141c:	e012      	b.n	1444 <l_CryptoTaPbkdf_HMAC+0x198>
/home/st/桌面/OP-TEE/basicAlg_use/ta/CryptoVerifyTaPbkdf2.c:128 (discriminator 3)
    141e:	f107 0258 	add.w	r2, r7, #88	; 0x58
    1422:	f8d7 3204 	ldr.w	r3, [r7, #516]	; 0x204
    1426:	4413      	add	r3, r2
    1428:	7819      	ldrb	r1, [r3, #0]
    142a:	f107 02c0 	add.w	r2, r7, #192	; 0xc0
    142e:	f8d7 3204 	ldr.w	r3, [r7, #516]	; 0x204
    1432:	4413      	add	r3, r2
    1434:	460a      	mov	r2, r1
    1436:	701a      	strb	r2, [r3, #0]
/home/st/桌面/OP-TEE/basicAlg_use/ta/CryptoVerifyTaPbkdf2.c:126 (discriminator 3)
    1438:	f8d7 3204 	ldr.w	r3, [r7, #516]	; 0x204
    143c:	f103 0301 	add.w	r3, r3, #1
    1440:	f8c7 3204 	str.w	r3, [r7, #516]	; 0x204
/home/st/桌面/OP-TEE/basicAlg_use/ta/CryptoVerifyTaPbkdf2.c:126 (discriminator 1)
    1444:	f8d7 3204 	ldr.w	r3, [r7, #516]	; 0x204
    1448:	2b3f      	cmp	r3, #63	; 0x3f
    144a:	d9e8      	bls.n	141e <l_CryptoTaPbkdf_HMAC+0x172>
/home/st/桌面/OP-TEE/basicAlg_use/ta/CryptoVerifyTaPbkdf2.c:131
    144c:	f04f 0300 	mov.w	r3, #0
    1450:	f8c7 3204 	str.w	r3, [r7, #516]	; 0x204
    1454:	e019      	b.n	148a <l_CryptoTaPbkdf_HMAC+0x1de>
/home/st/桌面/OP-TEE/basicAlg_use/ta/CryptoVerifyTaPbkdf2.c:133 (discriminator 3)
    1456:	f8d7 3204 	ldr.w	r3, [r7, #516]	; 0x204
    145a:	f103 0340 	add.w	r3, r3, #64	; 0x40
    145e:	f107 020c 	add.w	r2, r7, #12
    1462:	6811      	ldr	r1, [r2, #0]
    1464:	f8d7 2204 	ldr.w	r2, [r7, #516]	; 0x204
    1468:	440a      	add	r2, r1
    146a:	7811      	ldrb	r1, [r2, #0]
    146c:	f107 02c0 	add.w	r2, r7, #192	; 0xc0
    1470:	54d1      	strb	r1, [r2, r3]
/home/st/桌面/OP-TEE/basicAlg_use/ta/CryptoVerifyTaPbkdf2.c:134 (discriminator 3)
    1472:	f8d7 320c 	ldr.w	r3, [r7, #524]	; 0x20c
    1476:	f103 0301 	add.w	r3, r3, #1
    147a:	f8c7 320c 	str.w	r3, [r7, #524]	; 0x20c
/home/st/桌面/OP-TEE/basicAlg_use/ta/CryptoVerifyTaPbkdf2.c:131 (discriminator 3)
    147e:	f8d7 3204 	ldr.w	r3, [r7, #516]	; 0x204
    1482:	f103 0301 	add.w	r3, r3, #1
    1486:	f8c7 3204 	str.w	r3, [r7, #516]	; 0x204
/home/st/桌面/OP-TEE/basicAlg_use/ta/CryptoVerifyTaPbkdf2.c:131 (discriminator 1)
    148a:	f107 0308 	add.w	r3, r7, #8
    148e:	f8d7 2204 	ldr.w	r2, [r7, #516]	; 0x204
    1492:	681b      	ldr	r3, [r3, #0]
    1494:	429a      	cmp	r2, r3
    1496:	d3de      	bcc.n	1456 <l_CryptoTaPbkdf_HMAC+0x1aa>
/home/st/桌面/OP-TEE/basicAlg_use/ta/CryptoVerifyTaPbkdf2.c:138
    1498:	f107 02ac 	add.w	r2, r7, #172	; 0xac
    149c:	f107 01c0 	add.w	r1, r7, #192	; 0xc0
    14a0:	f107 0314 	add.w	r3, r7, #20
    14a4:	9300      	str	r3, [sp, #0]
    14a6:	4613      	mov	r3, r2
    14a8:	f8d7 220c 	ldr.w	r2, [r7, #524]	; 0x20c
    14ac:	f04f 0001 	mov.w	r0, #1
    14b0:	f7ff fca8 	bl	e04 <g_CryptoTaHash_sha>
/home/st/桌面/OP-TEE/basicAlg_use/ta/CryptoVerifyTaPbkdf2.c:141
    14b4:	f04f 0300 	mov.w	r3, #0
    14b8:	f8c7 3204 	str.w	r3, [r7, #516]	; 0x204
    14bc:	e012      	b.n	14e4 <l_CryptoTaPbkdf_HMAC+0x238>
/home/st/桌面/OP-TEE/basicAlg_use/ta/CryptoVerifyTaPbkdf2.c:143 (discriminator 3)
    14be:	f107 0218 	add.w	r2, r7, #24
    14c2:	f8d7 3204 	ldr.w	r3, [r7, #516]	; 0x204
    14c6:	4413      	add	r3, r2
    14c8:	7819      	ldrb	r1, [r3, #0]
    14ca:	f107 02c0 	add.w	r2, r7, #192	; 0xc0
    14ce:	f8d7 3204 	ldr.w	r3, [r7, #516]	; 0x204
    14d2:	4413      	add	r3, r2
    14d4:	460a      	mov	r2, r1
    14d6:	701a      	strb	r2, [r3, #0]
/home/st/桌面/OP-TEE/basicAlg_use/ta/CryptoVerifyTaPbkdf2.c:141 (discriminator 3)
    14d8:	f8d7 3204 	ldr.w	r3, [r7, #516]	; 0x204
    14dc:	f103 0301 	add.w	r3, r3, #1
    14e0:	f8c7 3204 	str.w	r3, [r7, #516]	; 0x204
/home/st/桌面/OP-TEE/basicAlg_use/ta/CryptoVerifyTaPbkdf2.c:141 (discriminator 1)
    14e4:	f8d7 3204 	ldr.w	r3, [r7, #516]	; 0x204
    14e8:	2b3f      	cmp	r3, #63	; 0x3f
    14ea:	d9e8      	bls.n	14be <l_CryptoTaPbkdf_HMAC+0x212>
/home/st/桌面/OP-TEE/basicAlg_use/ta/CryptoVerifyTaPbkdf2.c:146
    14ec:	f04f 0300 	mov.w	r3, #0
    14f0:	f8c7 3204 	str.w	r3, [r7, #516]	; 0x204
    14f4:	e018      	b.n	1528 <l_CryptoTaPbkdf_HMAC+0x27c>
/home/st/桌面/OP-TEE/basicAlg_use/ta/CryptoVerifyTaPbkdf2.c:148 (discriminator 3)
    14f6:	f8d7 3204 	ldr.w	r3, [r7, #516]	; 0x204
    14fa:	f103 0340 	add.w	r3, r3, #64	; 0x40
    14fe:	f107 01ac 	add.w	r1, r7, #172	; 0xac
    1502:	f8d7 2204 	ldr.w	r2, [r7, #516]	; 0x204
    1506:	440a      	add	r2, r1
    1508:	7811      	ldrb	r1, [r2, #0]
    150a:	f107 02c0 	add.w	r2, r7, #192	; 0xc0
    150e:	54d1      	strb	r1, [r2, r3]
/home/st/桌面/OP-TEE/basicAlg_use/ta/CryptoVerifyTaPbkdf2.c:149 (discriminator 3)
    1510:	f8d7 3208 	ldr.w	r3, [r7, #520]	; 0x208
    1514:	f103 0301 	add.w	r3, r3, #1
    1518:	f8c7 3208 	str.w	r3, [r7, #520]	; 0x208
/home/st/桌面/OP-TEE/basicAlg_use/ta/CryptoVerifyTaPbkdf2.c:146 (discriminator 3)
    151c:	f8d7 3204 	ldr.w	r3, [r7, #516]	; 0x204
    1520:	f103 0301 	add.w	r3, r3, #1
    1524:	f8c7 3204 	str.w	r3, [r7, #516]	; 0x204
/home/st/桌面/OP-TEE/basicAlg_use/ta/CryptoVerifyTaPbkdf2.c:146 (discriminator 1)
    1528:	f8d7 3204 	ldr.w	r3, [r7, #516]	; 0x204
    152c:	2b13      	cmp	r3, #19
    152e:	d9e2      	bls.n	14f6 <l_CryptoTaPbkdf_HMAC+0x24a>
/home/st/桌面/OP-TEE/basicAlg_use/ta/CryptoVerifyTaPbkdf2.c:153
    1530:	f107 0298 	add.w	r2, r7, #152	; 0x98
    1534:	f107 01c0 	add.w	r1, r7, #192	; 0xc0
    1538:	f107 0314 	add.w	r3, r7, #20
    153c:	9300      	str	r3, [sp, #0]
    153e:	4613      	mov	r3, r2
    1540:	f8d7 2208 	ldr.w	r2, [r7, #520]	; 0x208
    1544:	f04f 0001 	mov.w	r0, #1
    1548:	f7ff fc5c 	bl	e04 <g_CryptoTaHash_sha>
/home/st/桌面/OP-TEE/basicAlg_use/ta/CryptoVerifyTaPbkdf2.c:156
    154c:	f107 0398 	add.w	r3, r7, #152	; 0x98
    1550:	f04f 0214 	mov.w	r2, #20
    1554:	4619      	mov	r1, r3
    1556:	f8d7 0220 	ldr.w	r0, [r7, #544]	; 0x220
    155a:	f001 fcf7 	bl	2f4c <TEE_MemMove>
/home/st/桌面/OP-TEE/basicAlg_use/ta/CryptoVerifyTaPbkdf2.c:157
    155e:	bf00      	nop
    1560:	f507 7705 	add.w	r7, r7, #532	; 0x214
    1564:	46bd      	mov	sp, r7
    1566:	e9dd 4700 	ldrd	r4, r7, [sp]
    156a:	b002      	add	sp, #8
    156c:	f85d fb04 	ldr.w	pc, [sp], #4

00001570 <g_CryptoTaPbkdf_PBKDF2>:
g_CryptoTaPbkdf_PBKDF2():
/home/st/桌面/OP-TEE/basicAlg_use/ta/CryptoVerifyTaPbkdf2.c:195
    1570:	f84d 4d0c 	str.w	r4, [sp, #-12]!
    1574:	e9cd 7e01 	strd	r7, lr, [sp, #4]
    1578:	f5ad 7d31 	sub.w	sp, sp, #708	; 0x2c4
    157c:	af02      	add	r7, sp, #8
    157e:	f107 040c 	add.w	r4, r7, #12
    1582:	6020      	str	r0, [r4, #0]
    1584:	f107 0008 	add.w	r0, r7, #8
    1588:	6001      	str	r1, [r0, #0]
    158a:	f107 0104 	add.w	r1, r7, #4
    158e:	600a      	str	r2, [r1, #0]
    1590:	463a      	mov	r2, r7
    1592:	6013      	str	r3, [r2, #0]
/home/st/桌面/OP-TEE/basicAlg_use/ta/CryptoVerifyTaPbkdf2.c:196
    1594:	f507 7224 	add.w	r2, r7, #656	; 0x290
    1598:	f04f 0300 	mov.w	r3, #0
    159c:	f04f 0400 	mov.w	r4, #0
    15a0:	e9c2 3400 	strd	r3, r4, [r2]
    15a4:	e9c2 3402 	strd	r3, r4, [r2, #8]
    15a8:	6113      	str	r3, [r2, #16]
/home/st/桌面/OP-TEE/basicAlg_use/ta/CryptoVerifyTaPbkdf2.c:197
    15aa:	f107 0390 	add.w	r3, r7, #144	; 0x90
    15ae:	4618      	mov	r0, r3
    15b0:	f44f 7300 	mov.w	r3, #512	; 0x200
    15b4:	461a      	mov	r2, r3
    15b6:	f04f 0100 	mov.w	r1, #0
    15ba:	f00b ff10 	bl	d3de <memset>
/home/st/桌面/OP-TEE/basicAlg_use/ta/CryptoVerifyTaPbkdf2.c:198
    15be:	f107 0310 	add.w	r3, r7, #16
    15c2:	4618      	mov	r0, r3
    15c4:	f04f 0380 	mov.w	r3, #128	; 0x80
    15c8:	461a      	mov	r2, r3
    15ca:	f04f 0100 	mov.w	r1, #0
    15ce:	f00b ff06 	bl	d3de <memset>
/home/st/桌面/OP-TEE/basicAlg_use/ta/CryptoVerifyTaPbkdf2.c:199
    15d2:	f04f 0300 	mov.w	r3, #0
    15d6:	f8c7 32a4 	str.w	r3, [r7, #676]	; 0x2a4
/home/st/桌面/OP-TEE/basicAlg_use/ta/CryptoVerifyTaPbkdf2.c:200
    15da:	f04f 0300 	mov.w	r3, #0
    15de:	f8c7 32b4 	str.w	r3, [r7, #692]	; 0x2b4
/home/st/桌面/OP-TEE/basicAlg_use/ta/CryptoVerifyTaPbkdf2.c:202
    15e2:	f04f 0300 	mov.w	r3, #0
    15e6:	f8c7 32b0 	str.w	r3, [r7, #688]	; 0x2b0
/home/st/桌面/OP-TEE/basicAlg_use/ta/CryptoVerifyTaPbkdf2.c:203
    15ea:	f04f 0300 	mov.w	r3, #0
    15ee:	f8c7 32ac 	str.w	r3, [r7, #684]	; 0x2ac
/home/st/桌面/OP-TEE/basicAlg_use/ta/CryptoVerifyTaPbkdf2.c:204
    15f2:	f04f 0300 	mov.w	r3, #0
    15f6:	f8c7 32a8 	str.w	r3, [r7, #680]	; 0x2a8
/home/st/桌面/OP-TEE/basicAlg_use/ta/CryptoVerifyTaPbkdf2.c:205
    15fa:	f107 030c 	add.w	r3, r7, #12
    15fe:	681b      	ldr	r3, [r3, #0]
    1600:	9301      	str	r3, [sp, #4]
    1602:	4bb9      	ldr	r3, [pc, #740]	; (18e8 <g_CryptoTaPbkdf_PBKDF2+0x378>)
    1604:	447b      	add	r3, pc
    1606:	9300      	str	r3, [sp, #0]
    1608:	f04f 0300 	mov.w	r3, #0
    160c:	f04f 0200 	mov.w	r2, #0
    1610:	f04f 0100 	mov.w	r1, #0
    1614:	f04f 0000 	mov.w	r0, #0
    1618:	f008 fe46 	bl	a2a8 <trace_printf>
/home/st/桌面/OP-TEE/basicAlg_use/ta/CryptoVerifyTaPbkdf2.c:206
    161c:	f107 0308 	add.w	r3, r7, #8
    1620:	681b      	ldr	r3, [r3, #0]
    1622:	9301      	str	r3, [sp, #4]
    1624:	4bb1      	ldr	r3, [pc, #708]	; (18ec <g_CryptoTaPbkdf_PBKDF2+0x37c>)
    1626:	447b      	add	r3, pc
    1628:	9300      	str	r3, [sp, #0]
    162a:	f04f 0300 	mov.w	r3, #0
    162e:	f04f 0200 	mov.w	r2, #0
    1632:	f04f 0100 	mov.w	r1, #0
    1636:	f04f 0000 	mov.w	r0, #0
    163a:	f008 fe35 	bl	a2a8 <trace_printf>
/home/st/桌面/OP-TEE/basicAlg_use/ta/CryptoVerifyTaPbkdf2.c:207
    163e:	f107 0304 	add.w	r3, r7, #4
    1642:	681b      	ldr	r3, [r3, #0]
    1644:	9301      	str	r3, [sp, #4]
    1646:	4baa      	ldr	r3, [pc, #680]	; (18f0 <g_CryptoTaPbkdf_PBKDF2+0x380>)
    1648:	447b      	add	r3, pc
    164a:	9300      	str	r3, [sp, #0]
    164c:	f04f 0300 	mov.w	r3, #0
    1650:	f04f 0200 	mov.w	r2, #0
    1654:	f04f 0100 	mov.w	r1, #0
    1658:	f04f 0000 	mov.w	r0, #0
    165c:	f008 fe24 	bl	a2a8 <trace_printf>
/home/st/桌面/OP-TEE/basicAlg_use/ta/CryptoVerifyTaPbkdf2.c:208
    1660:	463b      	mov	r3, r7
    1662:	681b      	ldr	r3, [r3, #0]
    1664:	9301      	str	r3, [sp, #4]
    1666:	4ba3      	ldr	r3, [pc, #652]	; (18f4 <g_CryptoTaPbkdf_PBKDF2+0x384>)
    1668:	447b      	add	r3, pc
    166a:	9300      	str	r3, [sp, #0]
    166c:	f04f 0300 	mov.w	r3, #0
    1670:	f04f 0200 	mov.w	r2, #0
    1674:	f04f 0100 	mov.w	r1, #0
    1678:	f04f 0000 	mov.w	r0, #0
    167c:	f008 fe14 	bl	a2a8 <trace_printf>
/home/st/桌面/OP-TEE/basicAlg_use/ta/CryptoVerifyTaPbkdf2.c:209
    1680:	f8d7 32cc 	ldr.w	r3, [r7, #716]	; 0x2cc
    1684:	9301      	str	r3, [sp, #4]
    1686:	4b9c      	ldr	r3, [pc, #624]	; (18f8 <g_CryptoTaPbkdf_PBKDF2+0x388>)
    1688:	447b      	add	r3, pc
    168a:	9300      	str	r3, [sp, #0]
    168c:	f04f 0300 	mov.w	r3, #0
    1690:	f04f 0200 	mov.w	r2, #0
    1694:	f04f 0100 	mov.w	r1, #0
    1698:	f04f 0000 	mov.w	r0, #0
    169c:	f008 fe04 	bl	a2a8 <trace_printf>
/home/st/桌面/OP-TEE/basicAlg_use/ta/CryptoVerifyTaPbkdf2.c:210
    16a0:	f8d7 32c8 	ldr.w	r3, [r7, #712]	; 0x2c8
    16a4:	9301      	str	r3, [sp, #4]
    16a6:	4b95      	ldr	r3, [pc, #596]	; (18fc <g_CryptoTaPbkdf_PBKDF2+0x38c>)
    16a8:	447b      	add	r3, pc
    16aa:	9300      	str	r3, [sp, #0]
    16ac:	f04f 0300 	mov.w	r3, #0
    16b0:	f04f 0200 	mov.w	r2, #0
    16b4:	f04f 0100 	mov.w	r1, #0
    16b8:	f04f 0000 	mov.w	r0, #0
    16bc:	f008 fdf4 	bl	a2a8 <trace_printf>
/home/st/桌面/OP-TEE/basicAlg_use/ta/CryptoVerifyTaPbkdf2.c:214
    16c0:	f8d7 12cc 	ldr.w	r1, [r7, #716]	; 0x2cc
    16c4:	f246 6367 	movw	r3, #26215	; 0x6667
    16c8:	f2c6 6366 	movt	r3, #26214	; 0x6666
    16cc:	fb83 2301 	smull	r2, r3, r3, r1
    16d0:	ea4f 02e3 	mov.w	r2, r3, asr #3
    16d4:	ea4f 73e1 	mov.w	r3, r1, asr #31
    16d8:	eba2 0203 	sub.w	r2, r2, r3
    16dc:	4613      	mov	r3, r2
    16de:	ea4f 0383 	mov.w	r3, r3, lsl #2
    16e2:	4413      	add	r3, r2
    16e4:	ea4f 0383 	mov.w	r3, r3, lsl #2
    16e8:	eba1 0203 	sub.w	r2, r1, r3
    16ec:	2a00      	cmp	r2, #0
    16ee:	d114      	bne.n	171a <g_CryptoTaPbkdf_PBKDF2+0x1aa>
/home/st/桌面/OP-TEE/basicAlg_use/ta/CryptoVerifyTaPbkdf2.c:214 (discriminator 1)
    16f0:	f8d7 32cc 	ldr.w	r3, [r7, #716]	; 0x2cc
    16f4:	2b14      	cmp	r3, #20
    16f6:	dd10      	ble.n	171a <g_CryptoTaPbkdf_PBKDF2+0x1aa>
/home/st/桌面/OP-TEE/basicAlg_use/ta/CryptoVerifyTaPbkdf2.c:216
    16f8:	f8d7 22cc 	ldr.w	r2, [r7, #716]	; 0x2cc
    16fc:	f246 6367 	movw	r3, #26215	; 0x6667
    1700:	f2c6 6366 	movt	r3, #26214	; 0x6666
    1704:	fb83 1302 	smull	r1, r3, r3, r2
    1708:	ea4f 01e3 	mov.w	r1, r3, asr #3
    170c:	ea4f 73e2 	mov.w	r3, r2, asr #31
    1710:	eba1 0303 	sub.w	r3, r1, r3
    1714:	f8c7 32b4 	str.w	r3, [r7, #692]	; 0x2b4
    1718:	e00d      	b.n	1736 <g_CryptoTaPbkdf_PBKDF2+0x1c6>
/home/st/桌面/OP-TEE/basicAlg_use/ta/CryptoVerifyTaPbkdf2.c:220
    171a:	f8d7 22cc 	ldr.w	r2, [r7, #716]	; 0x2cc
    171e:	f64c 43cd 	movw	r3, #52429	; 0xcccd
    1722:	f6cc 43cc 	movt	r3, #52428	; 0xcccc
    1726:	fba3 2302 	umull	r2, r3, r3, r2
    172a:	ea4f 1313 	mov.w	r3, r3, lsr #4
    172e:	f103 0301 	add.w	r3, r3, #1
    1732:	f8c7 32b4 	str.w	r3, [r7, #692]	; 0x2b4
/home/st/桌面/OP-TEE/basicAlg_use/ta/CryptoVerifyTaPbkdf2.c:226
    1736:	f04f 0301 	mov.w	r3, #1
    173a:	f8c7 32b0 	str.w	r3, [r7, #688]	; 0x2b0
    173e:	e0b9      	b.n	18b4 <g_CryptoTaPbkdf_PBKDF2+0x344>
/home/st/桌面/OP-TEE/basicAlg_use/ta/CryptoVerifyTaPbkdf2.c:229
    1740:	f107 0310 	add.w	r3, r7, #16
    1744:	f04f 0280 	mov.w	r2, #128	; 0x80
    1748:	f04f 0100 	mov.w	r1, #0
    174c:	4618      	mov	r0, r3
    174e:	f001 fc21 	bl	2f94 <TEE_MemFill>
/home/st/桌面/OP-TEE/basicAlg_use/ta/CryptoVerifyTaPbkdf2.c:230
    1752:	463b      	mov	r3, r7
    1754:	681a      	ldr	r2, [r3, #0]
    1756:	f107 0304 	add.w	r3, r7, #4
    175a:	f107 0010 	add.w	r0, r7, #16
    175e:	6819      	ldr	r1, [r3, #0]
    1760:	f001 fbf4 	bl	2f4c <TEE_MemMove>
/home/st/桌面/OP-TEE/basicAlg_use/ta/CryptoVerifyTaPbkdf2.c:231
    1764:	463b      	mov	r3, r7
    1766:	681b      	ldr	r3, [r3, #0]
    1768:	f103 0303 	add.w	r3, r3, #3
    176c:	f8d7 22b0 	ldr.w	r2, [r7, #688]	; 0x2b0
    1770:	b2d1      	uxtb	r1, r2
    1772:	f107 0210 	add.w	r2, r7, #16
    1776:	54d1      	strb	r1, [r2, r3]
/home/st/桌面/OP-TEE/basicAlg_use/ta/CryptoVerifyTaPbkdf2.c:232
    1778:	463b      	mov	r3, r7
    177a:	681b      	ldr	r3, [r3, #0]
    177c:	f103 0304 	add.w	r3, r3, #4
    1780:	f8c7 32a4 	str.w	r3, [r7, #676]	; 0x2a4
/home/st/桌面/OP-TEE/basicAlg_use/ta/CryptoVerifyTaPbkdf2.c:236
    1784:	f107 0308 	add.w	r3, r7, #8
    1788:	6819      	ldr	r1, [r3, #0]
    178a:	f107 020c 	add.w	r2, r7, #12
    178e:	f107 0010 	add.w	r0, r7, #16
    1792:	f507 7324 	add.w	r3, r7, #656	; 0x290
    1796:	9300      	str	r3, [sp, #0]
    1798:	460b      	mov	r3, r1
    179a:	6812      	ldr	r2, [r2, #0]
    179c:	f8d7 12a4 	ldr.w	r1, [r7, #676]	; 0x2a4
    17a0:	f7ff fd84 	bl	12ac <l_CryptoTaPbkdf_HMAC>
/home/st/桌面/OP-TEE/basicAlg_use/ta/CryptoVerifyTaPbkdf2.c:240
    17a4:	f107 0310 	add.w	r3, r7, #16
    17a8:	f04f 0280 	mov.w	r2, #128	; 0x80
    17ac:	f04f 0100 	mov.w	r1, #0
    17b0:	4618      	mov	r0, r3
    17b2:	f001 fbef 	bl	2f94 <TEE_MemFill>
/home/st/桌面/OP-TEE/basicAlg_use/ta/CryptoVerifyTaPbkdf2.c:241
    17b6:	f507 7124 	add.w	r1, r7, #656	; 0x290
    17ba:	f107 0310 	add.w	r3, r7, #16
    17be:	f04f 0214 	mov.w	r2, #20
    17c2:	4618      	mov	r0, r3
    17c4:	f001 fbc2 	bl	2f4c <TEE_MemMove>
/home/st/桌面/OP-TEE/basicAlg_use/ta/CryptoVerifyTaPbkdf2.c:242
    17c8:	f04f 0314 	mov.w	r3, #20
    17cc:	f8c7 32a4 	str.w	r3, [r7, #676]	; 0x2a4
/home/st/桌面/OP-TEE/basicAlg_use/ta/CryptoVerifyTaPbkdf2.c:244
    17d0:	f04f 0301 	mov.w	r3, #1
    17d4:	f8c7 32ac 	str.w	r3, [r7, #684]	; 0x2ac
    17d8:	e03a      	b.n	1850 <g_CryptoTaPbkdf_PBKDF2+0x2e0>
/home/st/桌面/OP-TEE/basicAlg_use/ta/CryptoVerifyTaPbkdf2.c:247
    17da:	f107 0308 	add.w	r3, r7, #8
    17de:	6819      	ldr	r1, [r3, #0]
    17e0:	f107 020c 	add.w	r2, r7, #12
    17e4:	f507 7024 	add.w	r0, r7, #656	; 0x290
    17e8:	f507 7324 	add.w	r3, r7, #656	; 0x290
    17ec:	9300      	str	r3, [sp, #0]
    17ee:	460b      	mov	r3, r1
    17f0:	6812      	ldr	r2, [r2, #0]
    17f2:	f8d7 12a4 	ldr.w	r1, [r7, #676]	; 0x2a4
    17f6:	f7ff fd59 	bl	12ac <l_CryptoTaPbkdf_HMAC>
/home/st/桌面/OP-TEE/basicAlg_use/ta/CryptoVerifyTaPbkdf2.c:251
    17fa:	f04f 0300 	mov.w	r3, #0
    17fe:	f8c7 32a8 	str.w	r3, [r7, #680]	; 0x2a8
    1802:	e01b      	b.n	183c <g_CryptoTaPbkdf_PBKDF2+0x2cc>
/home/st/桌面/OP-TEE/basicAlg_use/ta/CryptoVerifyTaPbkdf2.c:253 (discriminator 3)
    1804:	f107 0210 	add.w	r2, r7, #16
    1808:	f8d7 32a8 	ldr.w	r3, [r7, #680]	; 0x2a8
    180c:	4413      	add	r3, r2
    180e:	781a      	ldrb	r2, [r3, #0]
    1810:	f507 7124 	add.w	r1, r7, #656	; 0x290
    1814:	f8d7 32a8 	ldr.w	r3, [r7, #680]	; 0x2a8
    1818:	440b      	add	r3, r1
    181a:	781b      	ldrb	r3, [r3, #0]
    181c:	ea83 0302 	eor.w	r3, r3, r2
    1820:	b2d9      	uxtb	r1, r3
    1822:	f107 0210 	add.w	r2, r7, #16
    1826:	f8d7 32a8 	ldr.w	r3, [r7, #680]	; 0x2a8
    182a:	4413      	add	r3, r2
    182c:	460a      	mov	r2, r1
    182e:	701a      	strb	r2, [r3, #0]
/home/st/桌面/OP-TEE/basicAlg_use/ta/CryptoVerifyTaPbkdf2.c:251 (discriminator 3)
    1830:	f8d7 32a8 	ldr.w	r3, [r7, #680]	; 0x2a8
    1834:	f103 0301 	add.w	r3, r3, #1
    1838:	f8c7 32a8 	str.w	r3, [r7, #680]	; 0x2a8
/home/st/桌面/OP-TEE/basicAlg_use/ta/CryptoVerifyTaPbkdf2.c:251 (discriminator 1)
    183c:	f8d7 32a8 	ldr.w	r3, [r7, #680]	; 0x2a8
    1840:	2b13      	cmp	r3, #19
    1842:	d9df      	bls.n	1804 <g_CryptoTaPbkdf_PBKDF2+0x294>
/home/st/桌面/OP-TEE/basicAlg_use/ta/CryptoVerifyTaPbkdf2.c:244 (discriminator 2)
    1844:	f8d7 32ac 	ldr.w	r3, [r7, #684]	; 0x2ac
    1848:	f103 0301 	add.w	r3, r3, #1
    184c:	f8c7 32ac 	str.w	r3, [r7, #684]	; 0x2ac
/home/st/桌面/OP-TEE/basicAlg_use/ta/CryptoVerifyTaPbkdf2.c:244 (discriminator 1)
    1850:	f8d7 32c8 	ldr.w	r3, [r7, #712]	; 0x2c8
    1854:	f8d7 22ac 	ldr.w	r2, [r7, #684]	; 0x2ac
    1858:	429a      	cmp	r2, r3
    185a:	d3be      	bcc.n	17da <g_CryptoTaPbkdf_PBKDF2+0x26a>
/home/st/桌面/OP-TEE/basicAlg_use/ta/CryptoVerifyTaPbkdf2.c:257
    185c:	f04f 0300 	mov.w	r3, #0
    1860:	f8c7 32a8 	str.w	r3, [r7, #680]	; 0x2a8
    1864:	e01c      	b.n	18a0 <g_CryptoTaPbkdf_PBKDF2+0x330>
/home/st/桌面/OP-TEE/basicAlg_use/ta/CryptoVerifyTaPbkdf2.c:259 (discriminator 3)
    1866:	f8d7 22b0 	ldr.w	r2, [r7, #688]	; 0x2b0
    186a:	4613      	mov	r3, r2
    186c:	ea4f 0383 	mov.w	r3, r3, lsl #2
    1870:	4413      	add	r3, r2
    1872:	ea4f 0383 	mov.w	r3, r3, lsl #2
    1876:	461a      	mov	r2, r3
    1878:	f8d7 32a8 	ldr.w	r3, [r7, #680]	; 0x2a8
    187c:	4413      	add	r3, r2
    187e:	f1a3 0314 	sub.w	r3, r3, #20
    1882:	f107 0110 	add.w	r1, r7, #16
    1886:	f8d7 22a8 	ldr.w	r2, [r7, #680]	; 0x2a8
    188a:	440a      	add	r2, r1
    188c:	7811      	ldrb	r1, [r2, #0]
    188e:	f107 0290 	add.w	r2, r7, #144	; 0x90
    1892:	54d1      	strb	r1, [r2, r3]
/home/st/桌面/OP-TEE/basicAlg_use/ta/CryptoVerifyTaPbkdf2.c:257 (discriminator 3)
    1894:	f8d7 32a8 	ldr.w	r3, [r7, #680]	; 0x2a8
    1898:	f103 0301 	add.w	r3, r3, #1
    189c:	f8c7 32a8 	str.w	r3, [r7, #680]	; 0x2a8
/home/st/桌面/OP-TEE/basicAlg_use/ta/CryptoVerifyTaPbkdf2.c:257 (discriminator 1)
    18a0:	f8d7 32a8 	ldr.w	r3, [r7, #680]	; 0x2a8
    18a4:	2b13      	cmp	r3, #19
    18a6:	d9de      	bls.n	1866 <g_CryptoTaPbkdf_PBKDF2+0x2f6>
/home/st/桌面/OP-TEE/basicAlg_use/ta/CryptoVerifyTaPbkdf2.c:226 (discriminator 2)
    18a8:	f8d7 32b0 	ldr.w	r3, [r7, #688]	; 0x2b0
    18ac:	f103 0301 	add.w	r3, r3, #1
    18b0:	f8c7 32b0 	str.w	r3, [r7, #688]	; 0x2b0
/home/st/桌面/OP-TEE/basicAlg_use/ta/CryptoVerifyTaPbkdf2.c:226 (discriminator 1)
    18b4:	f8d7 22b0 	ldr.w	r2, [r7, #688]	; 0x2b0
    18b8:	f8d7 32b4 	ldr.w	r3, [r7, #692]	; 0x2b4
    18bc:	429a      	cmp	r2, r3
    18be:	f67f af3f 	bls.w	1740 <g_CryptoTaPbkdf_PBKDF2+0x1d0>
/home/st/桌面/OP-TEE/basicAlg_use/ta/CryptoVerifyTaPbkdf2.c:264
    18c2:	f8d7 22cc 	ldr.w	r2, [r7, #716]	; 0x2cc
    18c6:	f107 0390 	add.w	r3, r7, #144	; 0x90
    18ca:	4619      	mov	r1, r3
    18cc:	f8d7 02d0 	ldr.w	r0, [r7, #720]	; 0x2d0
    18d0:	f001 fb3c 	bl	2f4c <TEE_MemMove>
/home/st/桌面/OP-TEE/basicAlg_use/ta/CryptoVerifyTaPbkdf2.c:265
    18d4:	bf00      	nop
    18d6:	f507 772f 	add.w	r7, r7, #700	; 0x2bc
    18da:	46bd      	mov	sp, r7
    18dc:	e9dd 4700 	ldrd	r4, r7, [sp]
    18e0:	b002      	add	sp, #8
    18e2:	f85d fb04 	ldr.w	pc, [sp], #4
    18e6:	bf00      	nop
    18e8:	0000f920 	.word	0x0000f920
    18ec:	0000f906 	.word	0x0000f906
    18f0:	0000f8f0 	.word	0x0000f8f0
    18f4:	0000f8dc 	.word	0x0000f8dc
    18f8:	0000f8cc 	.word	0x0000f8cc
    18fc:	0000f8b8 	.word	0x0000f8b8

00001900 <g_TA_Printf>:
g_TA_Printf():
/home/st/桌面/OP-TEE/basicAlg_use/ta/CryptoVerifyTaDebug.c:92
    1900:	e96d 7e02 	strd	r7, lr, [sp, #-8]!
    1904:	b086      	sub	sp, #24
    1906:	af02      	add	r7, sp, #8
    1908:	6078      	str	r0, [r7, #4]
    190a:	6039      	str	r1, [r7, #0]
/home/st/桌面/OP-TEE/basicAlg_use/ta/CryptoVerifyTaDebug.c:93
    190c:	f04f 0300 	mov.w	r3, #0
    1910:	60fb      	str	r3, [r7, #12]
/home/st/桌面/OP-TEE/basicAlg_use/ta/CryptoVerifyTaDebug.c:94
    1912:	f04f 0300 	mov.w	r3, #0
    1916:	60fb      	str	r3, [r7, #12]
    1918:	e02a      	b.n	1970 <g_TA_Printf+0x70>
/home/st/桌面/OP-TEE/basicAlg_use/ta/CryptoVerifyTaDebug.c:96
    191a:	68fb      	ldr	r3, [r7, #12]
    191c:	2b0e      	cmp	r3, #14
    191e:	d911      	bls.n	1944 <g_TA_Printf+0x44>
/home/st/桌面/OP-TEE/basicAlg_use/ta/CryptoVerifyTaDebug.c:99
    1920:	68fb      	ldr	r3, [r7, #12]
    1922:	f003 030f 	and.w	r3, r3, #15
    1926:	2b00      	cmp	r3, #0
    1928:	d10c      	bne.n	1944 <g_TA_Printf+0x44>
/home/st/桌面/OP-TEE/basicAlg_use/ta/CryptoVerifyTaDebug.c:101
    192a:	4b1c      	ldr	r3, [pc, #112]	; (199c <g_TA_Printf+0x9c>)
    192c:	447b      	add	r3, pc
    192e:	9300      	str	r3, [sp, #0]
    1930:	f04f 0300 	mov.w	r3, #0
    1934:	f04f 0200 	mov.w	r2, #0
    1938:	f04f 0100 	mov.w	r1, #0
    193c:	f04f 0000 	mov.w	r0, #0
    1940:	f008 fcb2 	bl	a2a8 <trace_printf>
/home/st/桌面/OP-TEE/basicAlg_use/ta/CryptoVerifyTaDebug.c:107 (discriminator 2)
    1944:	687a      	ldr	r2, [r7, #4]
    1946:	68fb      	ldr	r3, [r7, #12]
    1948:	4413      	add	r3, r2
    194a:	781b      	ldrb	r3, [r3, #0]
    194c:	9301      	str	r3, [sp, #4]
    194e:	4b14      	ldr	r3, [pc, #80]	; (19a0 <g_TA_Printf+0xa0>)
    1950:	447b      	add	r3, pc
    1952:	9300      	str	r3, [sp, #0]
    1954:	f04f 0300 	mov.w	r3, #0
    1958:	f04f 0200 	mov.w	r2, #0
    195c:	f04f 0100 	mov.w	r1, #0
    1960:	f04f 0000 	mov.w	r0, #0
    1964:	f008 fca0 	bl	a2a8 <trace_printf>
/home/st/桌面/OP-TEE/basicAlg_use/ta/CryptoVerifyTaDebug.c:94 (discriminator 2)
    1968:	68fb      	ldr	r3, [r7, #12]
    196a:	f103 0301 	add.w	r3, r3, #1
    196e:	60fb      	str	r3, [r7, #12]
/home/st/桌面/OP-TEE/basicAlg_use/ta/CryptoVerifyTaDebug.c:94 (discriminator 1)
    1970:	68fa      	ldr	r2, [r7, #12]
    1972:	683b      	ldr	r3, [r7, #0]
    1974:	429a      	cmp	r2, r3
    1976:	d3d0      	bcc.n	191a <g_TA_Printf+0x1a>
/home/st/桌面/OP-TEE/basicAlg_use/ta/CryptoVerifyTaDebug.c:110
    1978:	4b0a      	ldr	r3, [pc, #40]	; (19a4 <g_TA_Printf+0xa4>)
    197a:	447b      	add	r3, pc
    197c:	9300      	str	r3, [sp, #0]
    197e:	f04f 0300 	mov.w	r3, #0
    1982:	f04f 0200 	mov.w	r2, #0
    1986:	f04f 0100 	mov.w	r1, #0
    198a:	f04f 0000 	mov.w	r0, #0
    198e:	f008 fc8b 	bl	a2a8 <trace_printf>
/home/st/桌面/OP-TEE/basicAlg_use/ta/CryptoVerifyTaDebug.c:111
    1992:	bf00      	nop
    1994:	f107 0710 	add.w	r7, r7, #16
    1998:	46bd      	mov	sp, r7
    199a:	bd80      	pop	{r7, pc}
    199c:	0000f63c 	.word	0x0000f63c
    19a0:	0000f61c 	.word	0x0000f61c
    19a4:	0000f5fe 	.word	0x0000f5fe

000019a8 <g_CryptoTaOther_Random>:
g_CryptoTaOther_Random():
/home/st/桌面/OP-TEE/basicAlg_use/ta/CryptoVerifyTaOther.c:118
    19a8:	e96d 7e02 	strd	r7, lr, [sp, #-8]!
    19ac:	b084      	sub	sp, #16
    19ae:	af02      	add	r7, sp, #8
    19b0:	6078      	str	r0, [r7, #4]
    19b2:	6039      	str	r1, [r7, #0]
/home/st/桌面/OP-TEE/basicAlg_use/ta/CryptoVerifyTaOther.c:119
    19b4:	4b0a      	ldr	r3, [pc, #40]	; (19e0 <g_CryptoTaOther_Random+0x38>)
    19b6:	447b      	add	r3, pc
    19b8:	9300      	str	r3, [sp, #0]
    19ba:	f04f 0300 	mov.w	r3, #0
    19be:	f04f 0200 	mov.w	r2, #0
    19c2:	f04f 0100 	mov.w	r1, #0
    19c6:	f04f 0000 	mov.w	r0, #0
    19ca:	f008 fc6d 	bl	a2a8 <trace_printf>
/home/st/桌面/OP-TEE/basicAlg_use/ta/CryptoVerifyTaOther.c:120
    19ce:	6879      	ldr	r1, [r7, #4]
    19d0:	6838      	ldr	r0, [r7, #0]
    19d2:	f004 f97b 	bl	5ccc <TEE_GenerateRandom>
/home/st/桌面/OP-TEE/basicAlg_use/ta/CryptoVerifyTaOther.c:121
    19d6:	bf00      	nop
    19d8:	f107 0708 	add.w	r7, r7, #8
    19dc:	46bd      	mov	sp, r7
    19de:	bd80      	pop	{r7, pc}
    19e0:	0000f70a 	.word	0x0000f70a

000019e4 <l_DeviceIdTaBase64_encode>:
l_DeviceIdTaBase64_encode():
/home/st/桌面/OP-TEE/basicAlg_use/ta/CryptoVerifyTaOther.c:135
    19e4:	e96d 7e02 	strd	r7, lr, [sp, #-8]!
    19e8:	b08e      	sub	sp, #56	; 0x38
    19ea:	af02      	add	r7, sp, #8
    19ec:	60f8      	str	r0, [r7, #12]
    19ee:	60b9      	str	r1, [r7, #8]
    19f0:	607a      	str	r2, [r7, #4]
    19f2:	603b      	str	r3, [r7, #0]
/home/st/桌面/OP-TEE/basicAlg_use/ta/CryptoVerifyTaOther.c:138
    19f4:	f04f 33ff 	mov.w	r3, #4294967295	; 0xffffffff
    19f8:	627b      	str	r3, [r7, #36]	; 0x24
/home/st/桌面/OP-TEE/basicAlg_use/ta/CryptoVerifyTaOther.c:141
    19fa:	68bb      	ldr	r3, [r7, #8]
    19fc:	f103 0202 	add.w	r2, r3, #2
    1a00:	f64a 23ab 	movw	r3, #43691	; 0xaaab
    1a04:	f6ca 23aa 	movt	r3, #43690	; 0xaaaa
    1a08:	fba3 2302 	umull	r2, r3, r3, r2
    1a0c:	ea4f 0353 	mov.w	r3, r3, lsr #1
    1a10:	ea4f 0383 	mov.w	r3, r3, lsl #2
    1a14:	623b      	str	r3, [r7, #32]
/home/st/桌面/OP-TEE/basicAlg_use/ta/CryptoVerifyTaOther.c:142
    1a16:	683b      	ldr	r3, [r7, #0]
    1a18:	681a      	ldr	r2, [r3, #0]
    1a1a:	6a3b      	ldr	r3, [r7, #32]
    1a1c:	f103 0301 	add.w	r3, r3, #1
    1a20:	429a      	cmp	r2, r3
    1a22:	d213      	bcs.n	1a4c <l_DeviceIdTaBase64_encode+0x68>
/home/st/桌面/OP-TEE/basicAlg_use/ta/CryptoVerifyTaOther.c:144
    1a24:	6a3b      	ldr	r3, [r7, #32]
    1a26:	f103 0201 	add.w	r2, r3, #1
    1a2a:	683b      	ldr	r3, [r7, #0]
    1a2c:	601a      	str	r2, [r3, #0]
/home/st/桌面/OP-TEE/basicAlg_use/ta/CryptoVerifyTaOther.c:145
    1a2e:	4b79      	ldr	r3, [pc, #484]	; (1c14 <l_DeviceIdTaBase64_encode+0x230>)
    1a30:	447b      	add	r3, pc
    1a32:	9300      	str	r3, [sp, #0]
    1a34:	f04f 0300 	mov.w	r3, #0
    1a38:	f04f 0200 	mov.w	r2, #0
    1a3c:	f04f 0100 	mov.w	r1, #0
    1a40:	f04f 0000 	mov.w	r0, #0
    1a44:	f008 fc30 	bl	a2a8 <trace_printf>
/home/st/桌面/OP-TEE/basicAlg_use/ta/CryptoVerifyTaOther.c:146
    1a48:	6a7b      	ldr	r3, [r7, #36]	; 0x24
    1a4a:	e0dd      	b.n	1c08 <l_DeviceIdTaBase64_encode+0x224>
/home/st/桌面/OP-TEE/basicAlg_use/ta/CryptoVerifyTaOther.c:148
    1a4c:	687b      	ldr	r3, [r7, #4]
    1a4e:	62bb      	str	r3, [r7, #40]	; 0x28
/home/st/桌面/OP-TEE/basicAlg_use/ta/CryptoVerifyTaOther.c:149
    1a50:	68ba      	ldr	r2, [r7, #8]
    1a52:	f64a 23ab 	movw	r3, #43691	; 0xaaab
    1a56:	f6ca 23aa 	movt	r3, #43690	; 0xaaaa
    1a5a:	fba3 2302 	umull	r2, r3, r3, r2
    1a5e:	ea4f 0253 	mov.w	r2, r3, lsr #1
    1a62:	4613      	mov	r3, r2
    1a64:	ea4f 0343 	mov.w	r3, r3, lsl #1
    1a68:	4413      	add	r3, r2
    1a6a:	61fb      	str	r3, [r7, #28]
/home/st/桌面/OP-TEE/basicAlg_use/ta/CryptoVerifyTaOther.c:150
    1a6c:	f04f 0300 	mov.w	r3, #0
    1a70:	62fb      	str	r3, [r7, #44]	; 0x2c
    1a72:	e05e      	b.n	1b32 <l_DeviceIdTaBase64_encode+0x14e>
/home/st/桌面/OP-TEE/basicAlg_use/ta/CryptoVerifyTaOther.c:152 (discriminator 3)
    1a74:	6abb      	ldr	r3, [r7, #40]	; 0x28
    1a76:	f103 0201 	add.w	r2, r3, #1
    1a7a:	62ba      	str	r2, [r7, #40]	; 0x28
    1a7c:	4a66      	ldr	r2, [pc, #408]	; (1c18 <l_DeviceIdTaBase64_encode+0x234>)
    1a7e:	447a      	add	r2, pc
    1a80:	6811      	ldr	r1, [r2, #0]
    1a82:	68fa      	ldr	r2, [r7, #12]
    1a84:	7812      	ldrb	r2, [r2, #0]
    1a86:	ea4f 0292 	mov.w	r2, r2, lsr #2
    1a8a:	b2d2      	uxtb	r2, r2
    1a8c:	f002 023f 	and.w	r2, r2, #63	; 0x3f
    1a90:	440a      	add	r2, r1
    1a92:	7812      	ldrb	r2, [r2, #0]
    1a94:	701a      	strb	r2, [r3, #0]
/home/st/桌面/OP-TEE/basicAlg_use/ta/CryptoVerifyTaOther.c:153 (discriminator 3)
    1a96:	6abb      	ldr	r3, [r7, #40]	; 0x28
    1a98:	f103 0201 	add.w	r2, r3, #1
    1a9c:	62ba      	str	r2, [r7, #40]	; 0x28
    1a9e:	4a5f      	ldr	r2, [pc, #380]	; (1c1c <l_DeviceIdTaBase64_encode+0x238>)
    1aa0:	447a      	add	r2, pc
    1aa2:	6811      	ldr	r1, [r2, #0]
    1aa4:	68fa      	ldr	r2, [r7, #12]
    1aa6:	7812      	ldrb	r2, [r2, #0]
    1aa8:	ea4f 1202 	mov.w	r2, r2, lsl #4
    1aac:	f002 0230 	and.w	r2, r2, #48	; 0x30
    1ab0:	68f8      	ldr	r0, [r7, #12]
    1ab2:	f100 0001 	add.w	r0, r0, #1
    1ab6:	7800      	ldrb	r0, [r0, #0]
    1ab8:	ea4f 1010 	mov.w	r0, r0, lsr #4
    1abc:	b2c0      	uxtb	r0, r0
    1abe:	4402      	add	r2, r0
    1ac0:	f002 023f 	and.w	r2, r2, #63	; 0x3f
    1ac4:	440a      	add	r2, r1
    1ac6:	7812      	ldrb	r2, [r2, #0]
    1ac8:	701a      	strb	r2, [r3, #0]
/home/st/桌面/OP-TEE/basicAlg_use/ta/CryptoVerifyTaOther.c:154 (discriminator 3)
    1aca:	6abb      	ldr	r3, [r7, #40]	; 0x28
    1acc:	f103 0201 	add.w	r2, r3, #1
    1ad0:	62ba      	str	r2, [r7, #40]	; 0x28
    1ad2:	4a53      	ldr	r2, [pc, #332]	; (1c20 <l_DeviceIdTaBase64_encode+0x23c>)
    1ad4:	447a      	add	r2, pc
    1ad6:	6811      	ldr	r1, [r2, #0]
    1ad8:	68fa      	ldr	r2, [r7, #12]
    1ada:	f102 0201 	add.w	r2, r2, #1
    1ade:	7812      	ldrb	r2, [r2, #0]
    1ae0:	ea4f 0282 	mov.w	r2, r2, lsl #2
    1ae4:	f002 023c 	and.w	r2, r2, #60	; 0x3c
    1ae8:	68f8      	ldr	r0, [r7, #12]
    1aea:	f100 0002 	add.w	r0, r0, #2
    1aee:	7800      	ldrb	r0, [r0, #0]
    1af0:	ea4f 1090 	mov.w	r0, r0, lsr #6
    1af4:	b2c0      	uxtb	r0, r0
    1af6:	4402      	add	r2, r0
    1af8:	f002 023f 	and.w	r2, r2, #63	; 0x3f
    1afc:	440a      	add	r2, r1
    1afe:	7812      	ldrb	r2, [r2, #0]
    1b00:	701a      	strb	r2, [r3, #0]
/home/st/桌面/OP-TEE/basicAlg_use/ta/CryptoVerifyTaOther.c:155 (discriminator 3)
    1b02:	6abb      	ldr	r3, [r7, #40]	; 0x28
    1b04:	f103 0201 	add.w	r2, r3, #1
    1b08:	62ba      	str	r2, [r7, #40]	; 0x28
    1b0a:	4a46      	ldr	r2, [pc, #280]	; (1c24 <l_DeviceIdTaBase64_encode+0x240>)
    1b0c:	447a      	add	r2, pc
    1b0e:	6811      	ldr	r1, [r2, #0]
    1b10:	68fa      	ldr	r2, [r7, #12]
    1b12:	f102 0202 	add.w	r2, r2, #2
    1b16:	7812      	ldrb	r2, [r2, #0]
    1b18:	f002 023f 	and.w	r2, r2, #63	; 0x3f
    1b1c:	440a      	add	r2, r1
    1b1e:	7812      	ldrb	r2, [r2, #0]
    1b20:	701a      	strb	r2, [r3, #0]
/home/st/桌面/OP-TEE/basicAlg_use/ta/CryptoVerifyTaOther.c:156 (discriminator 3)
    1b22:	68fb      	ldr	r3, [r7, #12]
    1b24:	f103 0303 	add.w	r3, r3, #3
    1b28:	60fb      	str	r3, [r7, #12]
/home/st/桌面/OP-TEE/basicAlg_use/ta/CryptoVerifyTaOther.c:150 (discriminator 3)
    1b2a:	6afb      	ldr	r3, [r7, #44]	; 0x2c
    1b2c:	f103 0303 	add.w	r3, r3, #3
    1b30:	62fb      	str	r3, [r7, #44]	; 0x2c
/home/st/桌面/OP-TEE/basicAlg_use/ta/CryptoVerifyTaOther.c:150 (discriminator 1)
    1b32:	6afa      	ldr	r2, [r7, #44]	; 0x2c
    1b34:	69fb      	ldr	r3, [r7, #28]
    1b36:	429a      	cmp	r2, r3
    1b38:	d39c      	bcc.n	1a74 <l_DeviceIdTaBase64_encode+0x90>
/home/st/桌面/OP-TEE/basicAlg_use/ta/CryptoVerifyTaOther.c:159
    1b3a:	6afa      	ldr	r2, [r7, #44]	; 0x2c
    1b3c:	68bb      	ldr	r3, [r7, #8]
    1b3e:	429a      	cmp	r2, r3
    1b40:	d253      	bcs.n	1bea <l_DeviceIdTaBase64_encode+0x206>
/home/st/桌面/OP-TEE/basicAlg_use/ta/CryptoVerifyTaOther.c:161
    1b42:	68fb      	ldr	r3, [r7, #12]
    1b44:	781b      	ldrb	r3, [r3, #0]
    1b46:	61bb      	str	r3, [r7, #24]
/home/st/桌面/OP-TEE/basicAlg_use/ta/CryptoVerifyTaOther.c:162
    1b48:	6afb      	ldr	r3, [r7, #44]	; 0x2c
    1b4a:	f103 0201 	add.w	r2, r3, #1
    1b4e:	68bb      	ldr	r3, [r7, #8]
    1b50:	429a      	cmp	r2, r3
    1b52:	d204      	bcs.n	1b5e <l_DeviceIdTaBase64_encode+0x17a>
/home/st/桌面/OP-TEE/basicAlg_use/ta/CryptoVerifyTaOther.c:162 (discriminator 1)
    1b54:	68fb      	ldr	r3, [r7, #12]
    1b56:	f103 0301 	add.w	r3, r3, #1
    1b5a:	781b      	ldrb	r3, [r3, #0]
    1b5c:	e001      	b.n	1b62 <l_DeviceIdTaBase64_encode+0x17e>
/home/st/桌面/OP-TEE/basicAlg_use/ta/CryptoVerifyTaOther.c:162 (discriminator 2)
    1b5e:	f04f 0300 	mov.w	r3, #0
/home/st/桌面/OP-TEE/basicAlg_use/ta/CryptoVerifyTaOther.c:162 (discriminator 4)
    1b62:	617b      	str	r3, [r7, #20]
/home/st/桌面/OP-TEE/basicAlg_use/ta/CryptoVerifyTaOther.c:164 (discriminator 4)
    1b64:	6abb      	ldr	r3, [r7, #40]	; 0x28
    1b66:	f103 0201 	add.w	r2, r3, #1
    1b6a:	62ba      	str	r2, [r7, #40]	; 0x28
    1b6c:	4a2e      	ldr	r2, [pc, #184]	; (1c28 <l_DeviceIdTaBase64_encode+0x244>)
    1b6e:	447a      	add	r2, pc
    1b70:	6811      	ldr	r1, [r2, #0]
    1b72:	69ba      	ldr	r2, [r7, #24]
    1b74:	ea4f 0292 	mov.w	r2, r2, lsr #2
    1b78:	f002 023f 	and.w	r2, r2, #63	; 0x3f
    1b7c:	440a      	add	r2, r1
    1b7e:	7812      	ldrb	r2, [r2, #0]
    1b80:	701a      	strb	r2, [r3, #0]
/home/st/桌面/OP-TEE/basicAlg_use/ta/CryptoVerifyTaOther.c:165 (discriminator 4)
    1b82:	6abb      	ldr	r3, [r7, #40]	; 0x28
    1b84:	f103 0201 	add.w	r2, r3, #1
    1b88:	62ba      	str	r2, [r7, #40]	; 0x28
    1b8a:	4a28      	ldr	r2, [pc, #160]	; (1c2c <l_DeviceIdTaBase64_encode+0x248>)
    1b8c:	447a      	add	r2, pc
    1b8e:	6811      	ldr	r1, [r2, #0]
    1b90:	69ba      	ldr	r2, [r7, #24]
    1b92:	ea4f 1202 	mov.w	r2, r2, lsl #4
    1b96:	f002 0030 	and.w	r0, r2, #48	; 0x30
    1b9a:	697a      	ldr	r2, [r7, #20]
    1b9c:	ea4f 1212 	mov.w	r2, r2, lsr #4
    1ba0:	4402      	add	r2, r0
    1ba2:	f002 023f 	and.w	r2, r2, #63	; 0x3f
    1ba6:	440a      	add	r2, r1
    1ba8:	7812      	ldrb	r2, [r2, #0]
    1baa:	701a      	strb	r2, [r3, #0]
/home/st/桌面/OP-TEE/basicAlg_use/ta/CryptoVerifyTaOther.c:166 (discriminator 4)
    1bac:	6abb      	ldr	r3, [r7, #40]	; 0x28
    1bae:	f103 0201 	add.w	r2, r3, #1
    1bb2:	62ba      	str	r2, [r7, #40]	; 0x28
    1bb4:	6afa      	ldr	r2, [r7, #44]	; 0x2c
    1bb6:	f102 0101 	add.w	r1, r2, #1
    1bba:	68ba      	ldr	r2, [r7, #8]
    1bbc:	4291      	cmp	r1, r2
    1bbe:	d20a      	bcs.n	1bd6 <l_DeviceIdTaBase64_encode+0x1f2>
/home/st/桌面/OP-TEE/basicAlg_use/ta/CryptoVerifyTaOther.c:166 (discriminator 1)
    1bc0:	4a1b      	ldr	r2, [pc, #108]	; (1c30 <l_DeviceIdTaBase64_encode+0x24c>)
    1bc2:	447a      	add	r2, pc
    1bc4:	6811      	ldr	r1, [r2, #0]
    1bc6:	697a      	ldr	r2, [r7, #20]
    1bc8:	ea4f 0282 	mov.w	r2, r2, lsl #2
    1bcc:	f002 023c 	and.w	r2, r2, #60	; 0x3c
    1bd0:	440a      	add	r2, r1
    1bd2:	7812      	ldrb	r2, [r2, #0]
    1bd4:	e001      	b.n	1bda <l_DeviceIdTaBase64_encode+0x1f6>
/home/st/桌面/OP-TEE/basicAlg_use/ta/CryptoVerifyTaOther.c:166 (discriminator 2)
    1bd6:	f04f 023d 	mov.w	r2, #61	; 0x3d
/home/st/桌面/OP-TEE/basicAlg_use/ta/CryptoVerifyTaOther.c:166 (discriminator 4)
    1bda:	701a      	strb	r2, [r3, #0]
/home/st/桌面/OP-TEE/basicAlg_use/ta/CryptoVerifyTaOther.c:167 (discriminator 4)
    1bdc:	6abb      	ldr	r3, [r7, #40]	; 0x28
    1bde:	f103 0201 	add.w	r2, r3, #1
    1be2:	62ba      	str	r2, [r7, #40]	; 0x28
    1be4:	f04f 023d 	mov.w	r2, #61	; 0x3d
    1be8:	701a      	strb	r2, [r3, #0]
/home/st/桌面/OP-TEE/basicAlg_use/ta/CryptoVerifyTaOther.c:171
    1bea:	6abb      	ldr	r3, [r7, #40]	; 0x28
    1bec:	f04f 0200 	mov.w	r2, #0
    1bf0:	701a      	strb	r2, [r3, #0]
/home/st/桌面/OP-TEE/basicAlg_use/ta/CryptoVerifyTaOther.c:174
    1bf2:	6aba      	ldr	r2, [r7, #40]	; 0x28
    1bf4:	687b      	ldr	r3, [r7, #4]
    1bf6:	eba2 0303 	sub.w	r3, r2, r3
    1bfa:	461a      	mov	r2, r3
    1bfc:	683b      	ldr	r3, [r7, #0]
    1bfe:	601a      	str	r2, [r3, #0]
/home/st/桌面/OP-TEE/basicAlg_use/ta/CryptoVerifyTaOther.c:175
    1c00:	683b      	ldr	r3, [r7, #0]
    1c02:	681b      	ldr	r3, [r3, #0]
    1c04:	627b      	str	r3, [r7, #36]	; 0x24
/home/st/桌面/OP-TEE/basicAlg_use/ta/CryptoVerifyTaOther.c:176
    1c06:	6a7b      	ldr	r3, [r7, #36]	; 0x24
/home/st/桌面/OP-TEE/basicAlg_use/ta/CryptoVerifyTaOther.c:177
    1c08:	4618      	mov	r0, r3
    1c0a:	f107 0730 	add.w	r7, r7, #48	; 0x30
    1c0e:	46bd      	mov	sp, r7
    1c10:	bd80      	pop	{r7, pc}
    1c12:	bf00      	nop
    1c14:	0000f6a0 	.word	0x0000f6a0
    1c18:	00013a62 	.word	0x00013a62
    1c1c:	00013a40 	.word	0x00013a40
    1c20:	00013a0c 	.word	0x00013a0c
    1c24:	000139d4 	.word	0x000139d4
    1c28:	00013972 	.word	0x00013972
    1c2c:	00013954 	.word	0x00013954
    1c30:	0001391e 	.word	0x0001391e

00001c34 <l_DeviceIdTaBase64_decode>:
l_DeviceIdTaBase64_decode():
/home/st/桌面/OP-TEE/basicAlg_use/ta/CryptoVerifyTaOther.c:181
    1c34:	f84d 7d04 	str.w	r7, [sp, #-4]!
    1c38:	b08d      	sub	sp, #52	; 0x34
    1c3a:	af00      	add	r7, sp, #0
    1c3c:	60f8      	str	r0, [r7, #12]
    1c3e:	60b9      	str	r1, [r7, #8]
    1c40:	607a      	str	r2, [r7, #4]
    1c42:	603b      	str	r3, [r7, #0]
/home/st/桌面/OP-TEE/basicAlg_use/ta/CryptoVerifyTaOther.c:185
    1c44:	f04f 33ff 	mov.w	r3, #4294967295	; 0xffffffff
    1c48:	617b      	str	r3, [r7, #20]
/home/st/桌面/OP-TEE/basicAlg_use/ta/CryptoVerifyTaOther.c:188
    1c4a:	f04f 0303 	mov.w	r3, #3
    1c4e:	61bb      	str	r3, [r7, #24]
/home/st/桌面/OP-TEE/basicAlg_use/ta/CryptoVerifyTaOther.c:189
    1c50:	f04f 0300 	mov.w	r3, #0
    1c54:	62fb      	str	r3, [r7, #44]	; 0x2c
    1c56:	6afb      	ldr	r3, [r7, #44]	; 0x2c
    1c58:	623b      	str	r3, [r7, #32]
    1c5a:	6a3b      	ldr	r3, [r7, #32]
    1c5c:	627b      	str	r3, [r7, #36]	; 0x24
    1c5e:	6a7b      	ldr	r3, [r7, #36]	; 0x24
    1c60:	62bb      	str	r3, [r7, #40]	; 0x28
    1c62:	e065      	b.n	1d30 <l_DeviceIdTaBase64_decode+0xfc>
/home/st/桌面/OP-TEE/basicAlg_use/ta/CryptoVerifyTaOther.c:191
    1c64:	68fa      	ldr	r2, [r7, #12]
    1c66:	6abb      	ldr	r3, [r7, #40]	; 0x28
    1c68:	4413      	add	r3, r2
    1c6a:	781b      	ldrb	r3, [r3, #0]
    1c6c:	4a3c      	ldr	r2, [pc, #240]	; (1d60 <l_DeviceIdTaBase64_decode+0x12c>)
    1c6e:	447a      	add	r2, pc
    1c70:	5cd3      	ldrb	r3, [r2, r3]
    1c72:	77fb      	strb	r3, [r7, #31]
/home/st/桌面/OP-TEE/basicAlg_use/ta/CryptoVerifyTaOther.c:192
    1c74:	7ffb      	ldrb	r3, [r7, #31]
    1c76:	2bff      	cmp	r3, #255	; 0xff
    1c78:	d055      	beq.n	1d26 <l_DeviceIdTaBase64_decode+0xf2>
/home/st/桌面/OP-TEE/basicAlg_use/ta/CryptoVerifyTaOther.c:194
    1c7a:	7ffb      	ldrb	r3, [r7, #31]
    1c7c:	2bfe      	cmp	r3, #254	; 0xfe
    1c7e:	d10b      	bne.n	1c98 <l_DeviceIdTaBase64_decode+0x64>
/home/st/桌面/OP-TEE/basicAlg_use/ta/CryptoVerifyTaOther.c:196
    1c80:	f04f 0300 	mov.w	r3, #0
    1c84:	77fb      	strb	r3, [r7, #31]
/home/st/桌面/OP-TEE/basicAlg_use/ta/CryptoVerifyTaOther.c:198
    1c86:	69bb      	ldr	r3, [r7, #24]
    1c88:	f103 33ff 	add.w	r3, r3, #4294967295	; 0xffffffff
    1c8c:	61bb      	str	r3, [r7, #24]
    1c8e:	69bb      	ldr	r3, [r7, #24]
    1c90:	2b00      	cmp	r3, #0
    1c92:	da06      	bge.n	1ca2 <l_DeviceIdTaBase64_decode+0x6e>
/home/st/桌面/OP-TEE/basicAlg_use/ta/CryptoVerifyTaOther.c:200
    1c94:	697b      	ldr	r3, [r7, #20]
    1c96:	e05b      	b.n	1d50 <l_DeviceIdTaBase64_decode+0x11c>
/home/st/桌面/OP-TEE/basicAlg_use/ta/CryptoVerifyTaOther.c:203
    1c98:	69bb      	ldr	r3, [r7, #24]
    1c9a:	2b03      	cmp	r3, #3
    1c9c:	d001      	beq.n	1ca2 <l_DeviceIdTaBase64_decode+0x6e>
/home/st/桌面/OP-TEE/basicAlg_use/ta/CryptoVerifyTaOther.c:206
    1c9e:	697b      	ldr	r3, [r7, #20]
    1ca0:	e056      	b.n	1d50 <l_DeviceIdTaBase64_decode+0x11c>
/home/st/桌面/OP-TEE/basicAlg_use/ta/CryptoVerifyTaOther.c:209
    1ca2:	6afb      	ldr	r3, [r7, #44]	; 0x2c
    1ca4:	ea4f 1283 	mov.w	r2, r3, lsl #6
    1ca8:	7ffb      	ldrb	r3, [r7, #31]
    1caa:	ea43 0302 	orr.w	r3, r3, r2
    1cae:	62fb      	str	r3, [r7, #44]	; 0x2c
/home/st/桌面/OP-TEE/basicAlg_use/ta/CryptoVerifyTaOther.c:211
    1cb0:	6a7b      	ldr	r3, [r7, #36]	; 0x24
    1cb2:	f103 0301 	add.w	r3, r3, #1
    1cb6:	627b      	str	r3, [r7, #36]	; 0x24
    1cb8:	6a7b      	ldr	r3, [r7, #36]	; 0x24
    1cba:	2b04      	cmp	r3, #4
    1cbc:	d134      	bne.n	1d28 <l_DeviceIdTaBase64_decode+0xf4>
/home/st/桌面/OP-TEE/basicAlg_use/ta/CryptoVerifyTaOther.c:213
    1cbe:	69ba      	ldr	r2, [r7, #24]
    1cc0:	6a3b      	ldr	r3, [r7, #32]
    1cc2:	441a      	add	r2, r3
    1cc4:	683b      	ldr	r3, [r7, #0]
    1cc6:	681b      	ldr	r3, [r3, #0]
    1cc8:	429a      	cmp	r2, r3
    1cca:	d901      	bls.n	1cd0 <l_DeviceIdTaBase64_decode+0x9c>
/home/st/桌面/OP-TEE/basicAlg_use/ta/CryptoVerifyTaOther.c:215
    1ccc:	697b      	ldr	r3, [r7, #20]
    1cce:	e03f      	b.n	1d50 <l_DeviceIdTaBase64_decode+0x11c>
/home/st/桌面/OP-TEE/basicAlg_use/ta/CryptoVerifyTaOther.c:217
    1cd0:	6a3b      	ldr	r3, [r7, #32]
    1cd2:	f103 0201 	add.w	r2, r3, #1
    1cd6:	623a      	str	r2, [r7, #32]
    1cd8:	687a      	ldr	r2, [r7, #4]
    1cda:	4413      	add	r3, r2
    1cdc:	6afa      	ldr	r2, [r7, #44]	; 0x2c
    1cde:	ea4f 4212 	mov.w	r2, r2, lsr #16
    1ce2:	b2d2      	uxtb	r2, r2
    1ce4:	701a      	strb	r2, [r3, #0]
/home/st/桌面/OP-TEE/basicAlg_use/ta/CryptoVerifyTaOther.c:218
    1ce6:	69bb      	ldr	r3, [r7, #24]
    1ce8:	2b01      	cmp	r3, #1
    1cea:	dd0a      	ble.n	1d02 <l_DeviceIdTaBase64_decode+0xce>
/home/st/桌面/OP-TEE/basicAlg_use/ta/CryptoVerifyTaOther.c:218 (discriminator 1)
    1cec:	6a3b      	ldr	r3, [r7, #32]
    1cee:	f103 0201 	add.w	r2, r3, #1
    1cf2:	623a      	str	r2, [r7, #32]
    1cf4:	687a      	ldr	r2, [r7, #4]
    1cf6:	4413      	add	r3, r2
    1cf8:	6afa      	ldr	r2, [r7, #44]	; 0x2c
    1cfa:	ea4f 2212 	mov.w	r2, r2, lsr #8
    1cfe:	b2d2      	uxtb	r2, r2
    1d00:	701a      	strb	r2, [r3, #0]
/home/st/桌面/OP-TEE/basicAlg_use/ta/CryptoVerifyTaOther.c:219
    1d02:	69bb      	ldr	r3, [r7, #24]
    1d04:	2b02      	cmp	r3, #2
    1d06:	dd08      	ble.n	1d1a <l_DeviceIdTaBase64_decode+0xe6>
/home/st/桌面/OP-TEE/basicAlg_use/ta/CryptoVerifyTaOther.c:219 (discriminator 1)
    1d08:	6a3b      	ldr	r3, [r7, #32]
    1d0a:	f103 0201 	add.w	r2, r3, #1
    1d0e:	623a      	str	r2, [r7, #32]
    1d10:	687a      	ldr	r2, [r7, #4]
    1d12:	4413      	add	r3, r2
    1d14:	6afa      	ldr	r2, [r7, #44]	; 0x2c
    1d16:	b2d2      	uxtb	r2, r2
    1d18:	701a      	strb	r2, [r3, #0]
/home/st/桌面/OP-TEE/basicAlg_use/ta/CryptoVerifyTaOther.c:220
    1d1a:	f04f 0300 	mov.w	r3, #0
    1d1e:	62fb      	str	r3, [r7, #44]	; 0x2c
    1d20:	6afb      	ldr	r3, [r7, #44]	; 0x2c
    1d22:	627b      	str	r3, [r7, #36]	; 0x24
    1d24:	e000      	b.n	1d28 <l_DeviceIdTaBase64_decode+0xf4>
/home/st/桌面/OP-TEE/basicAlg_use/ta/CryptoVerifyTaOther.c:192
    1d26:	bf00      	nop
/home/st/桌面/OP-TEE/basicAlg_use/ta/CryptoVerifyTaOther.c:189 (discriminator 2)
    1d28:	6abb      	ldr	r3, [r7, #40]	; 0x28
    1d2a:	f103 0301 	add.w	r3, r3, #1
    1d2e:	62bb      	str	r3, [r7, #40]	; 0x28
/home/st/桌面/OP-TEE/basicAlg_use/ta/CryptoVerifyTaOther.c:189 (discriminator 1)
    1d30:	6aba      	ldr	r2, [r7, #40]	; 0x28
    1d32:	68bb      	ldr	r3, [r7, #8]
    1d34:	429a      	cmp	r2, r3
    1d36:	d395      	bcc.n	1c64 <l_DeviceIdTaBase64_decode+0x30>
/home/st/桌面/OP-TEE/basicAlg_use/ta/CryptoVerifyTaOther.c:223
    1d38:	6a7b      	ldr	r3, [r7, #36]	; 0x24
    1d3a:	2b00      	cmp	r3, #0
    1d3c:	d001      	beq.n	1d42 <l_DeviceIdTaBase64_decode+0x10e>
/home/st/桌面/OP-TEE/basicAlg_use/ta/CryptoVerifyTaOther.c:225
    1d3e:	697b      	ldr	r3, [r7, #20]
    1d40:	e006      	b.n	1d50 <l_DeviceIdTaBase64_decode+0x11c>
/home/st/桌面/OP-TEE/basicAlg_use/ta/CryptoVerifyTaOther.c:227
    1d42:	683b      	ldr	r3, [r7, #0]
    1d44:	6a3a      	ldr	r2, [r7, #32]
    1d46:	601a      	str	r2, [r3, #0]
/home/st/桌面/OP-TEE/basicAlg_use/ta/CryptoVerifyTaOther.c:228
    1d48:	683b      	ldr	r3, [r7, #0]
    1d4a:	681b      	ldr	r3, [r3, #0]
    1d4c:	617b      	str	r3, [r7, #20]
/home/st/桌面/OP-TEE/basicAlg_use/ta/CryptoVerifyTaOther.c:229
    1d4e:	697b      	ldr	r3, [r7, #20]
/home/st/桌面/OP-TEE/basicAlg_use/ta/CryptoVerifyTaOther.c:230
    1d50:	4618      	mov	r0, r3
    1d52:	f107 0734 	add.w	r7, r7, #52	; 0x34
    1d56:	46bd      	mov	sp, r7
    1d58:	f85d 7b04 	ldr.w	r7, [sp], #4
    1d5c:	4770      	bx	lr
    1d5e:	bf00      	nop
    1d60:	0000f30e 	.word	0x0000f30e

00001d64 <g_CryptoTaOther_base64>:
g_CryptoTaOther_base64():
/home/st/桌面/OP-TEE/basicAlg_use/ta/CryptoVerifyTaOther.c:237
    1d64:	e96d 7e02 	strd	r7, lr, [sp, #-8]!
    1d68:	b088      	sub	sp, #32
    1d6a:	af02      	add	r7, sp, #8
    1d6c:	60f8      	str	r0, [r7, #12]
    1d6e:	60b9      	str	r1, [r7, #8]
    1d70:	607a      	str	r2, [r7, #4]
    1d72:	603b      	str	r3, [r7, #0]
/home/st/桌面/OP-TEE/basicAlg_use/ta/CryptoVerifyTaOther.c:238
    1d74:	f04f 33ff 	mov.w	r3, #4294967295	; 0xffffffff
    1d78:	617b      	str	r3, [r7, #20]
/home/st/桌面/OP-TEE/basicAlg_use/ta/CryptoVerifyTaOther.c:240
    1d7a:	6a3b      	ldr	r3, [r7, #32]
    1d7c:	2b01      	cmp	r3, #1
    1d7e:	d123      	bne.n	1dc8 <g_CryptoTaOther_base64+0x64>
/home/st/桌面/OP-TEE/basicAlg_use/ta/CryptoVerifyTaOther.c:242
    1d80:	4b27      	ldr	r3, [pc, #156]	; (1e20 <g_CryptoTaOther_base64+0xbc>)
    1d82:	447b      	add	r3, pc
    1d84:	9300      	str	r3, [sp, #0]
    1d86:	f04f 0300 	mov.w	r3, #0
    1d8a:	f04f 0200 	mov.w	r2, #0
    1d8e:	f04f 0100 	mov.w	r1, #0
    1d92:	f04f 0000 	mov.w	r0, #0
    1d96:	f008 fa87 	bl	a2a8 <trace_printf>
/home/st/桌面/OP-TEE/basicAlg_use/ta/CryptoVerifyTaOther.c:243
    1d9a:	463b      	mov	r3, r7
    1d9c:	687a      	ldr	r2, [r7, #4]
    1d9e:	68b9      	ldr	r1, [r7, #8]
    1da0:	68f8      	ldr	r0, [r7, #12]
    1da2:	f7ff fe1f 	bl	19e4 <l_DeviceIdTaBase64_encode>
    1da6:	6178      	str	r0, [r7, #20]
/home/st/桌面/OP-TEE/basicAlg_use/ta/CryptoVerifyTaOther.c:244
    1da8:	697b      	ldr	r3, [r7, #20]
    1daa:	9301      	str	r3, [sp, #4]
    1dac:	4b1d      	ldr	r3, [pc, #116]	; (1e24 <g_CryptoTaOther_base64+0xc0>)
    1dae:	447b      	add	r3, pc
    1db0:	9300      	str	r3, [sp, #0]
    1db2:	f04f 0300 	mov.w	r3, #0
    1db6:	f04f 0200 	mov.w	r2, #0
    1dba:	f04f 0100 	mov.w	r1, #0
    1dbe:	f04f 0000 	mov.w	r0, #0
    1dc2:	f008 fa71 	bl	a2a8 <trace_printf>
/home/st/桌面/OP-TEE/basicAlg_use/ta/CryptoVerifyTaOther.c:256
    1dc6:	e025      	b.n	1e14 <g_CryptoTaOther_base64+0xb0>
/home/st/桌面/OP-TEE/basicAlg_use/ta/CryptoVerifyTaOther.c:246
    1dc8:	6a3b      	ldr	r3, [r7, #32]
    1dca:	2b02      	cmp	r3, #2
    1dcc:	d122      	bne.n	1e14 <g_CryptoTaOther_base64+0xb0>
/home/st/桌面/OP-TEE/basicAlg_use/ta/CryptoVerifyTaOther.c:248
    1dce:	4b16      	ldr	r3, [pc, #88]	; (1e28 <g_CryptoTaOther_base64+0xc4>)
    1dd0:	447b      	add	r3, pc
    1dd2:	9300      	str	r3, [sp, #0]
    1dd4:	f04f 0300 	mov.w	r3, #0
    1dd8:	f04f 0200 	mov.w	r2, #0
    1ddc:	f04f 0100 	mov.w	r1, #0
    1de0:	f04f 0000 	mov.w	r0, #0
    1de4:	f008 fa60 	bl	a2a8 <trace_printf>
/home/st/桌面/OP-TEE/basicAlg_use/ta/CryptoVerifyTaOther.c:249
    1de8:	463b      	mov	r3, r7
    1dea:	687a      	ldr	r2, [r7, #4]
    1dec:	68b9      	ldr	r1, [r7, #8]
    1dee:	68f8      	ldr	r0, [r7, #12]
    1df0:	f7ff ff20 	bl	1c34 <l_DeviceIdTaBase64_decode>
    1df4:	6178      	str	r0, [r7, #20]
/home/st/桌面/OP-TEE/basicAlg_use/ta/CryptoVerifyTaOther.c:250
    1df6:	697b      	ldr	r3, [r7, #20]
    1df8:	9301      	str	r3, [sp, #4]
    1dfa:	4b0c      	ldr	r3, [pc, #48]	; (1e2c <g_CryptoTaOther_base64+0xc8>)
    1dfc:	447b      	add	r3, pc
    1dfe:	9300      	str	r3, [sp, #0]
    1e00:	f04f 0300 	mov.w	r3, #0
    1e04:	f04f 0200 	mov.w	r2, #0
    1e08:	f04f 0100 	mov.w	r1, #0
    1e0c:	f04f 0000 	mov.w	r0, #0
    1e10:	f008 fa4a 	bl	a2a8 <trace_printf>
/home/st/桌面/OP-TEE/basicAlg_use/ta/CryptoVerifyTaOther.c:256
    1e14:	bf00      	nop
    1e16:	f107 0718 	add.w	r7, r7, #24
    1e1a:	46bd      	mov	sp, r7
    1e1c:	bd80      	pop	{r7, pc}
    1e1e:	bf00      	nop
    1e20:	0000f36a 	.word	0x0000f36a
    1e24:	0000f356 	.word	0x0000f356
    1e28:	0000f350 	.word	0x0000f350
    1e2c:	0000f308 	.word	0x0000f308

00001e30 <l_CryptoTaRsa_CleanUpKeyPairObj>:
l_CryptoTaRsa_CleanUpKeyPairObj():
/home/st/桌面/OP-TEE/basicAlg_use/ta/CryptoVerifyTaRsa.c:114
    1e30:	e96d 7e02 	strd	r7, lr, [sp, #-8]!
    1e34:	af00      	add	r7, sp, #0
/home/st/桌面/OP-TEE/basicAlg_use/ta/CryptoVerifyTaRsa.c:115
    1e36:	4b0c      	ldr	r3, [pc, #48]	; (1e68 <l_CryptoTaRsa_CleanUpKeyPairObj+0x38>)
    1e38:	447b      	add	r3, pc
    1e3a:	681b      	ldr	r3, [r3, #0]
    1e3c:	2b00      	cmp	r3, #0
    1e3e:	d005      	beq.n	1e4c <l_CryptoTaRsa_CleanUpKeyPairObj+0x1c>
/home/st/桌面/OP-TEE/basicAlg_use/ta/CryptoVerifyTaRsa.c:117
    1e40:	4b0a      	ldr	r3, [pc, #40]	; (1e6c <l_CryptoTaRsa_CleanUpKeyPairObj+0x3c>)
    1e42:	447b      	add	r3, pc
    1e44:	681b      	ldr	r3, [r3, #0]
    1e46:	4618      	mov	r0, r3
    1e48:	f00a faff 	bl	c44a <TEE_FreeTransientObject>
/home/st/桌面/OP-TEE/basicAlg_use/ta/CryptoVerifyTaRsa.c:120
    1e4c:	4b08      	ldr	r3, [pc, #32]	; (1e70 <l_CryptoTaRsa_CleanUpKeyPairObj+0x40>)
    1e4e:	447b      	add	r3, pc
    1e50:	681b      	ldr	r3, [r3, #0]
    1e52:	2b00      	cmp	r3, #0
    1e54:	d005      	beq.n	1e62 <l_CryptoTaRsa_CleanUpKeyPairObj+0x32>
/home/st/桌面/OP-TEE/basicAlg_use/ta/CryptoVerifyTaRsa.c:122
    1e56:	4b07      	ldr	r3, [pc, #28]	; (1e74 <l_CryptoTaRsa_CleanUpKeyPairObj+0x44>)
    1e58:	447b      	add	r3, pc
    1e5a:	681b      	ldr	r3, [r3, #0]
    1e5c:	4618      	mov	r0, r3
    1e5e:	f001 fe5d 	bl	3b1c <TEE_FreeOperation>
/home/st/桌面/OP-TEE/basicAlg_use/ta/CryptoVerifyTaRsa.c:124
    1e62:	bf00      	nop
    1e64:	46bd      	mov	sp, r7
    1e66:	bd80      	pop	{r7, pc}
    1e68:	000137bc 	.word	0x000137bc
    1e6c:	000137b2 	.word	0x000137b2
    1e70:	00013782 	.word	0x00013782
    1e74:	00013778 	.word	0x00013778

00001e78 <l_CryptoTaRsa_CleanUpPublicHandle>:
l_CryptoTaRsa_CleanUpPublicHandle():
/home/st/桌面/OP-TEE/basicAlg_use/ta/CryptoVerifyTaRsa.c:128
    1e78:	e96d 7e02 	strd	r7, lr, [sp, #-8]!
    1e7c:	af00      	add	r7, sp, #0
/home/st/桌面/OP-TEE/basicAlg_use/ta/CryptoVerifyTaRsa.c:129
    1e7e:	4b0c      	ldr	r3, [pc, #48]	; (1eb0 <l_CryptoTaRsa_CleanUpPublicHandle+0x38>)
    1e80:	447b      	add	r3, pc
    1e82:	681b      	ldr	r3, [r3, #0]
    1e84:	2b00      	cmp	r3, #0
    1e86:	d005      	beq.n	1e94 <l_CryptoTaRsa_CleanUpPublicHandle+0x1c>
/home/st/桌面/OP-TEE/basicAlg_use/ta/CryptoVerifyTaRsa.c:131
    1e88:	4b0a      	ldr	r3, [pc, #40]	; (1eb4 <l_CryptoTaRsa_CleanUpPublicHandle+0x3c>)
    1e8a:	447b      	add	r3, pc
    1e8c:	681b      	ldr	r3, [r3, #0]
    1e8e:	4618      	mov	r0, r3
    1e90:	f00a fadb 	bl	c44a <TEE_FreeTransientObject>
/home/st/桌面/OP-TEE/basicAlg_use/ta/CryptoVerifyTaRsa.c:134
    1e94:	4b08      	ldr	r3, [pc, #32]	; (1eb8 <l_CryptoTaRsa_CleanUpPublicHandle+0x40>)
    1e96:	447b      	add	r3, pc
    1e98:	681b      	ldr	r3, [r3, #0]
    1e9a:	2b00      	cmp	r3, #0
    1e9c:	d005      	beq.n	1eaa <l_CryptoTaRsa_CleanUpPublicHandle+0x32>
/home/st/桌面/OP-TEE/basicAlg_use/ta/CryptoVerifyTaRsa.c:136
    1e9e:	4b07      	ldr	r3, [pc, #28]	; (1ebc <l_CryptoTaRsa_CleanUpPublicHandle+0x44>)
    1ea0:	447b      	add	r3, pc
    1ea2:	681b      	ldr	r3, [r3, #0]
    1ea4:	4618      	mov	r0, r3
    1ea6:	f001 fe39 	bl	3b1c <TEE_FreeOperation>
/home/st/桌面/OP-TEE/basicAlg_use/ta/CryptoVerifyTaRsa.c:138
    1eaa:	bf00      	nop
    1eac:	46bd      	mov	sp, r7
    1eae:	bd80      	pop	{r7, pc}
    1eb0:	00013758 	.word	0x00013758
    1eb4:	0001374e 	.word	0x0001374e
    1eb8:	0001373a 	.word	0x0001373a
    1ebc:	00013730 	.word	0x00013730

00001ec0 <l_CryptoTaRsa_SetRsaPrivateKey>:
l_CryptoTaRsa_SetRsaPrivateKey():
/home/st/桌面/OP-TEE/basicAlg_use/ta/CryptoVerifyTaRsa.c:144
    1ec0:	b084      	sub	sp, #16
    1ec2:	e96d 7e02 	strd	r7, lr, [sp, #-8]!
    1ec6:	b084      	sub	sp, #16
    1ec8:	af02      	add	r7, sp, #8
    1eca:	f107 0e10 	add.w	lr, r7, #16
    1ece:	e88e 000f 	stmia.w	lr, {r0, r1, r2, r3}
/home/st/桌面/OP-TEE/basicAlg_use/ta/CryptoVerifyTaRsa.c:145
    1ed2:	f04f 33ff 	mov.w	r3, #4294967295	; 0xffffffff
    1ed6:	603b      	str	r3, [r7, #0]
/home/st/桌面/OP-TEE/basicAlg_use/ta/CryptoVerifyTaRsa.c:146
    1ed8:	f04f 0300 	mov.w	r3, #0
    1edc:	607b      	str	r3, [r7, #4]
/home/st/桌面/OP-TEE/basicAlg_use/ta/CryptoVerifyTaRsa.c:149
    1ede:	69fb      	ldr	r3, [r7, #28]
    1ee0:	ea4f 03c3 	mov.w	r3, r3, lsl #3
    1ee4:	4a4c      	ldr	r2, [pc, #304]	; (2018 <l_CryptoTaRsa_SetRsaPrivateKey+0x158>)
    1ee6:	447a      	add	r2, pc
    1ee8:	6013      	str	r3, [r2, #0]
/home/st/桌面/OP-TEE/basicAlg_use/ta/CryptoVerifyTaRsa.c:152
    1eea:	f04f 0224 	mov.w	r2, #36	; 0x24
    1eee:	f04f 0100 	mov.w	r1, #0
    1ef2:	4b4a      	ldr	r3, [pc, #296]	; (201c <l_CryptoTaRsa_SetRsaPrivateKey+0x15c>)
    1ef4:	447b      	add	r3, pc
    1ef6:	4618      	mov	r0, r3
    1ef8:	f001 f84c 	bl	2f94 <TEE_MemFill>
/home/st/桌面/OP-TEE/basicAlg_use/ta/CryptoVerifyTaRsa.c:155
    1efc:	4b48      	ldr	r3, [pc, #288]	; (2020 <l_CryptoTaRsa_SetRsaPrivateKey+0x160>)
    1efe:	447b      	add	r3, pc
    1f00:	461a      	mov	r2, r3
    1f02:	f44f 7398 	mov.w	r3, #304	; 0x130
    1f06:	f2cd 0300 	movt	r3, #53248	; 0xd000
    1f0a:	6013      	str	r3, [r2, #0]
/home/st/桌面/OP-TEE/basicAlg_use/ta/CryptoVerifyTaRsa.c:156
    1f0c:	693b      	ldr	r3, [r7, #16]
    1f0e:	4a45      	ldr	r2, [pc, #276]	; (2024 <l_CryptoTaRsa_SetRsaPrivateKey+0x164>)
    1f10:	447a      	add	r2, pc
    1f12:	6053      	str	r3, [r2, #4]
/home/st/桌面/OP-TEE/basicAlg_use/ta/CryptoVerifyTaRsa.c:157
    1f14:	69fb      	ldr	r3, [r7, #28]
    1f16:	4a44      	ldr	r2, [pc, #272]	; (2028 <l_CryptoTaRsa_SetRsaPrivateKey+0x168>)
    1f18:	447a      	add	r2, pc
    1f1a:	6093      	str	r3, [r2, #8]
/home/st/桌面/OP-TEE/basicAlg_use/ta/CryptoVerifyTaRsa.c:160
    1f1c:	4b43      	ldr	r3, [pc, #268]	; (202c <l_CryptoTaRsa_SetRsaPrivateKey+0x16c>)
    1f1e:	447b      	add	r3, pc
    1f20:	461a      	mov	r2, r3
    1f22:	f44f 730c 	mov.w	r3, #560	; 0x230
    1f26:	f2cd 0300 	movt	r3, #53248	; 0xd000
    1f2a:	60d3      	str	r3, [r2, #12]
/home/st/桌面/OP-TEE/basicAlg_use/ta/CryptoVerifyTaRsa.c:161
    1f2c:	69bb      	ldr	r3, [r7, #24]
    1f2e:	4a40      	ldr	r2, [pc, #256]	; (2030 <l_CryptoTaRsa_SetRsaPrivateKey+0x170>)
    1f30:	447a      	add	r2, pc
    1f32:	6113      	str	r3, [r2, #16]
/home/st/桌面/OP-TEE/basicAlg_use/ta/CryptoVerifyTaRsa.c:162
    1f34:	6a7b      	ldr	r3, [r7, #36]	; 0x24
    1f36:	4a3f      	ldr	r2, [pc, #252]	; (2034 <l_CryptoTaRsa_SetRsaPrivateKey+0x174>)
    1f38:	447a      	add	r2, pc
    1f3a:	6153      	str	r3, [r2, #20]
/home/st/桌面/OP-TEE/basicAlg_use/ta/CryptoVerifyTaRsa.c:165
    1f3c:	4b3e      	ldr	r3, [pc, #248]	; (2038 <l_CryptoTaRsa_SetRsaPrivateKey+0x178>)
    1f3e:	447b      	add	r3, pc
    1f40:	461a      	mov	r2, r3
    1f42:	f44f 734c 	mov.w	r3, #816	; 0x330
    1f46:	f2cc 0300 	movt	r3, #49152	; 0xc000
    1f4a:	6193      	str	r3, [r2, #24]
/home/st/桌面/OP-TEE/basicAlg_use/ta/CryptoVerifyTaRsa.c:166
    1f4c:	697b      	ldr	r3, [r7, #20]
    1f4e:	4a3b      	ldr	r2, [pc, #236]	; (203c <l_CryptoTaRsa_SetRsaPrivateKey+0x17c>)
    1f50:	447a      	add	r2, pc
    1f52:	61d3      	str	r3, [r2, #28]
/home/st/桌面/OP-TEE/basicAlg_use/ta/CryptoVerifyTaRsa.c:167
    1f54:	6a3b      	ldr	r3, [r7, #32]
    1f56:	4a3a      	ldr	r2, [pc, #232]	; (2040 <l_CryptoTaRsa_SetRsaPrivateKey+0x180>)
    1f58:	447a      	add	r2, pc
    1f5a:	6213      	str	r3, [r2, #32]
/home/st/桌面/OP-TEE/basicAlg_use/ta/CryptoVerifyTaRsa.c:171
    1f5c:	4b39      	ldr	r3, [pc, #228]	; (2044 <l_CryptoTaRsa_SetRsaPrivateKey+0x184>)
    1f5e:	447b      	add	r3, pc
    1f60:	681b      	ldr	r3, [r3, #0]
    1f62:	4a39      	ldr	r2, [pc, #228]	; (2048 <l_CryptoTaRsa_SetRsaPrivateKey+0x188>)
    1f64:	447a      	add	r2, pc
    1f66:	4619      	mov	r1, r3
    1f68:	f04f 0030 	mov.w	r0, #48	; 0x30
    1f6c:	f2ca 1000 	movt	r0, #41216	; 0xa100
    1f70:	f00a fa3b 	bl	c3ea <TEE_AllocateTransientObject>
    1f74:	6038      	str	r0, [r7, #0]
/home/st/桌面/OP-TEE/basicAlg_use/ta/CryptoVerifyTaRsa.c:172
    1f76:	683b      	ldr	r3, [r7, #0]
    1f78:	2b00      	cmp	r3, #0
    1f7a:	d012      	beq.n	1fa2 <l_CryptoTaRsa_SetRsaPrivateKey+0xe2>
/home/st/桌面/OP-TEE/basicAlg_use/ta/CryptoVerifyTaRsa.c:174
    1f7c:	683b      	ldr	r3, [r7, #0]
    1f7e:	9301      	str	r3, [sp, #4]
    1f80:	4b32      	ldr	r3, [pc, #200]	; (204c <l_CryptoTaRsa_SetRsaPrivateKey+0x18c>)
    1f82:	447b      	add	r3, pc
    1f84:	9300      	str	r3, [sp, #0]
    1f86:	f04f 0300 	mov.w	r3, #0
    1f8a:	f04f 0200 	mov.w	r2, #0
    1f8e:	f04f 0100 	mov.w	r1, #0
    1f92:	f04f 0000 	mov.w	r0, #0
    1f96:	f008 f987 	bl	a2a8 <trace_printf>
/home/st/桌面/OP-TEE/basicAlg_use/ta/CryptoVerifyTaRsa.c:175
    1f9a:	f04f 33ff 	mov.w	r3, #4294967295	; 0xffffffff
    1f9e:	607b      	str	r3, [r7, #4]
/home/st/桌面/OP-TEE/basicAlg_use/ta/CryptoVerifyTaRsa.c:176
    1fa0:	e02f      	b.n	2002 <l_CryptoTaRsa_SetRsaPrivateKey+0x142>
/home/st/桌面/OP-TEE/basicAlg_use/ta/CryptoVerifyTaRsa.c:181
    1fa2:	4b2b      	ldr	r3, [pc, #172]	; (2050 <l_CryptoTaRsa_SetRsaPrivateKey+0x190>)
    1fa4:	447b      	add	r3, pc
    1fa6:	681b      	ldr	r3, [r3, #0]
    1fa8:	f04f 0203 	mov.w	r2, #3
    1fac:	4929      	ldr	r1, [pc, #164]	; (2054 <l_CryptoTaRsa_SetRsaPrivateKey+0x194>)
    1fae:	4479      	add	r1, pc
    1fb0:	4618      	mov	r0, r3
    1fb2:	f00a faaa 	bl	c50a <TEE_PopulateTransientObject>
    1fb6:	6038      	str	r0, [r7, #0]
/home/st/桌面/OP-TEE/basicAlg_use/ta/CryptoVerifyTaRsa.c:182
    1fb8:	683b      	ldr	r3, [r7, #0]
    1fba:	2b00      	cmp	r3, #0
    1fbc:	d01f      	beq.n	1ffe <l_CryptoTaRsa_SetRsaPrivateKey+0x13e>
/home/st/桌面/OP-TEE/basicAlg_use/ta/CryptoVerifyTaRsa.c:184
    1fbe:	683b      	ldr	r3, [r7, #0]
    1fc0:	9301      	str	r3, [sp, #4]
    1fc2:	4b25      	ldr	r3, [pc, #148]	; (2058 <l_CryptoTaRsa_SetRsaPrivateKey+0x198>)
    1fc4:	447b      	add	r3, pc
    1fc6:	9300      	str	r3, [sp, #0]
    1fc8:	f04f 0300 	mov.w	r3, #0
    1fcc:	f04f 0200 	mov.w	r2, #0
    1fd0:	f04f 0100 	mov.w	r1, #0
    1fd4:	f04f 0000 	mov.w	r0, #0
    1fd8:	f008 f966 	bl	a2a8 <trace_printf>
/home/st/桌面/OP-TEE/basicAlg_use/ta/CryptoVerifyTaRsa.c:185
    1fdc:	f04f 33ff 	mov.w	r3, #4294967295	; 0xffffffff
    1fe0:	607b      	str	r3, [r7, #4]
/home/st/桌面/OP-TEE/basicAlg_use/ta/CryptoVerifyTaRsa.c:186
    1fe2:	bf00      	nop
/home/st/桌面/OP-TEE/basicAlg_use/ta/CryptoVerifyTaRsa.c:195
    1fe4:	4b1d      	ldr	r3, [pc, #116]	; (205c <l_CryptoTaRsa_SetRsaPrivateKey+0x19c>)
    1fe6:	447b      	add	r3, pc
    1fe8:	681b      	ldr	r3, [r3, #0]
    1fea:	4618      	mov	r0, r3
    1fec:	f00a fa2d 	bl	c44a <TEE_FreeTransientObject>
/home/st/桌面/OP-TEE/basicAlg_use/ta/CryptoVerifyTaRsa.c:196
    1ff0:	4b1b      	ldr	r3, [pc, #108]	; (2060 <l_CryptoTaRsa_SetRsaPrivateKey+0x1a0>)
    1ff2:	447b      	add	r3, pc
    1ff4:	461a      	mov	r2, r3
    1ff6:	f04f 0300 	mov.w	r3, #0
    1ffa:	6013      	str	r3, [r2, #0]
    1ffc:	e001      	b.n	2002 <l_CryptoTaRsa_SetRsaPrivateKey+0x142>
/home/st/桌面/OP-TEE/basicAlg_use/ta/CryptoVerifyTaRsa.c:191
    1ffe:	687b      	ldr	r3, [r7, #4]
    2000:	e000      	b.n	2004 <l_CryptoTaRsa_SetRsaPrivateKey+0x144>
/home/st/桌面/OP-TEE/basicAlg_use/ta/CryptoVerifyTaRsa.c:198
    2002:	687b      	ldr	r3, [r7, #4]
/home/st/桌面/OP-TEE/basicAlg_use/ta/CryptoVerifyTaRsa.c:199
    2004:	4618      	mov	r0, r3
    2006:	f107 0708 	add.w	r7, r7, #8
    200a:	46bd      	mov	sp, r7
    200c:	e9dd 7e00 	ldrd	r7, lr, [sp]
    2010:	b002      	add	sp, #8
    2012:	b004      	add	sp, #16
    2014:	4770      	bx	lr
    2016:	bf00      	nop
    2018:	000136ee 	.word	0x000136ee
    201c:	00013704 	.word	0x00013704
    2020:	000136fa 	.word	0x000136fa
    2024:	000136e8 	.word	0x000136e8
    2028:	000136e0 	.word	0x000136e0
    202c:	000136da 	.word	0x000136da
    2030:	000136c8 	.word	0x000136c8
    2034:	000136c0 	.word	0x000136c0
    2038:	000136ba 	.word	0x000136ba
    203c:	000136a8 	.word	0x000136a8
    2040:	000136a0 	.word	0x000136a0
    2044:	00013676 	.word	0x00013676
    2048:	00013690 	.word	0x00013690
    204c:	0000f1b6 	.word	0x0000f1b6
    2050:	00013650 	.word	0x00013650
    2054:	0001364a 	.word	0x0001364a
    2058:	0000f1a4 	.word	0x0000f1a4
    205c:	0001360e 	.word	0x0001360e
    2060:	00013602 	.word	0x00013602

00002064 <l_CryptoTaRsa_SetRsaPublicKey>:
l_CryptoTaRsa_SetRsaPublicKey():
/home/st/桌面/OP-TEE/basicAlg_use/ta/CryptoVerifyTaRsa.c:202
    2064:	b084      	sub	sp, #16
    2066:	e96d 7e02 	strd	r7, lr, [sp, #-8]!
    206a:	b084      	sub	sp, #16
    206c:	af02      	add	r7, sp, #8
    206e:	f107 0e10 	add.w	lr, r7, #16
    2072:	e88e 000f 	stmia.w	lr, {r0, r1, r2, r3}
/home/st/桌面/OP-TEE/basicAlg_use/ta/CryptoVerifyTaRsa.c:203
    2076:	f04f 33ff 	mov.w	r3, #4294967295	; 0xffffffff
    207a:	603b      	str	r3, [r7, #0]
/home/st/桌面/OP-TEE/basicAlg_use/ta/CryptoVerifyTaRsa.c:204
    207c:	f04f 0300 	mov.w	r3, #0
    2080:	607b      	str	r3, [r7, #4]
/home/st/桌面/OP-TEE/basicAlg_use/ta/CryptoVerifyTaRsa.c:207
    2082:	69fb      	ldr	r3, [r7, #28]
    2084:	ea4f 03c3 	mov.w	r3, r3, lsl #3
    2088:	4a44      	ldr	r2, [pc, #272]	; (219c <l_CryptoTaRsa_SetRsaPublicKey+0x138>)
    208a:	447a      	add	r2, pc
    208c:	6013      	str	r3, [r2, #0]
/home/st/桌面/OP-TEE/basicAlg_use/ta/CryptoVerifyTaRsa.c:210
    208e:	f04f 0218 	mov.w	r2, #24
    2092:	f04f 0100 	mov.w	r1, #0
    2096:	4b42      	ldr	r3, [pc, #264]	; (21a0 <l_CryptoTaRsa_SetRsaPublicKey+0x13c>)
    2098:	447b      	add	r3, pc
    209a:	4618      	mov	r0, r3
    209c:	f000 ff7a 	bl	2f94 <TEE_MemFill>
/home/st/桌面/OP-TEE/basicAlg_use/ta/CryptoVerifyTaRsa.c:213
    20a0:	4b40      	ldr	r3, [pc, #256]	; (21a4 <l_CryptoTaRsa_SetRsaPublicKey+0x140>)
    20a2:	447b      	add	r3, pc
    20a4:	461a      	mov	r2, r3
    20a6:	f44f 7398 	mov.w	r3, #304	; 0x130
    20aa:	f2cd 0300 	movt	r3, #53248	; 0xd000
    20ae:	6013      	str	r3, [r2, #0]
/home/st/桌面/OP-TEE/basicAlg_use/ta/CryptoVerifyTaRsa.c:214
    20b0:	693b      	ldr	r3, [r7, #16]
    20b2:	4a3d      	ldr	r2, [pc, #244]	; (21a8 <l_CryptoTaRsa_SetRsaPublicKey+0x144>)
    20b4:	447a      	add	r2, pc
    20b6:	6053      	str	r3, [r2, #4]
/home/st/桌面/OP-TEE/basicAlg_use/ta/CryptoVerifyTaRsa.c:215
    20b8:	69fb      	ldr	r3, [r7, #28]
    20ba:	4a3c      	ldr	r2, [pc, #240]	; (21ac <l_CryptoTaRsa_SetRsaPublicKey+0x148>)
    20bc:	447a      	add	r2, pc
    20be:	6093      	str	r3, [r2, #8]
/home/st/桌面/OP-TEE/basicAlg_use/ta/CryptoVerifyTaRsa.c:218
    20c0:	4b3b      	ldr	r3, [pc, #236]	; (21b0 <l_CryptoTaRsa_SetRsaPublicKey+0x14c>)
    20c2:	447b      	add	r3, pc
    20c4:	461a      	mov	r2, r3
    20c6:	f44f 730c 	mov.w	r3, #560	; 0x230
    20ca:	f2cd 0300 	movt	r3, #53248	; 0xd000
    20ce:	60d3      	str	r3, [r2, #12]
/home/st/桌面/OP-TEE/basicAlg_use/ta/CryptoVerifyTaRsa.c:219
    20d0:	69bb      	ldr	r3, [r7, #24]
    20d2:	4a38      	ldr	r2, [pc, #224]	; (21b4 <l_CryptoTaRsa_SetRsaPublicKey+0x150>)
    20d4:	447a      	add	r2, pc
    20d6:	6113      	str	r3, [r2, #16]
/home/st/桌面/OP-TEE/basicAlg_use/ta/CryptoVerifyTaRsa.c:220
    20d8:	6a7b      	ldr	r3, [r7, #36]	; 0x24
    20da:	4a37      	ldr	r2, [pc, #220]	; (21b8 <l_CryptoTaRsa_SetRsaPublicKey+0x154>)
    20dc:	447a      	add	r2, pc
    20de:	6153      	str	r3, [r2, #20]
/home/st/桌面/OP-TEE/basicAlg_use/ta/CryptoVerifyTaRsa.c:223
    20e0:	4b36      	ldr	r3, [pc, #216]	; (21bc <l_CryptoTaRsa_SetRsaPublicKey+0x158>)
    20e2:	447b      	add	r3, pc
    20e4:	681b      	ldr	r3, [r3, #0]
    20e6:	4a36      	ldr	r2, [pc, #216]	; (21c0 <l_CryptoTaRsa_SetRsaPublicKey+0x15c>)
    20e8:	447a      	add	r2, pc
    20ea:	4619      	mov	r1, r3
    20ec:	f04f 0030 	mov.w	r0, #48	; 0x30
    20f0:	f2ca 0000 	movt	r0, #40960	; 0xa000
    20f4:	f00a f979 	bl	c3ea <TEE_AllocateTransientObject>
    20f8:	6038      	str	r0, [r7, #0]
/home/st/桌面/OP-TEE/basicAlg_use/ta/CryptoVerifyTaRsa.c:224
    20fa:	683b      	ldr	r3, [r7, #0]
    20fc:	2b00      	cmp	r3, #0
    20fe:	d012      	beq.n	2126 <l_CryptoTaRsa_SetRsaPublicKey+0xc2>
/home/st/桌面/OP-TEE/basicAlg_use/ta/CryptoVerifyTaRsa.c:226
    2100:	683b      	ldr	r3, [r7, #0]
    2102:	9301      	str	r3, [sp, #4]
    2104:	4b2f      	ldr	r3, [pc, #188]	; (21c4 <l_CryptoTaRsa_SetRsaPublicKey+0x160>)
    2106:	447b      	add	r3, pc
    2108:	9300      	str	r3, [sp, #0]
    210a:	f04f 0300 	mov.w	r3, #0
    210e:	f04f 0200 	mov.w	r2, #0
    2112:	f04f 0100 	mov.w	r1, #0
    2116:	f04f 0000 	mov.w	r0, #0
    211a:	f008 f8c5 	bl	a2a8 <trace_printf>
/home/st/桌面/OP-TEE/basicAlg_use/ta/CryptoVerifyTaRsa.c:227
    211e:	f04f 33ff 	mov.w	r3, #4294967295	; 0xffffffff
    2122:	607b      	str	r3, [r7, #4]
/home/st/桌面/OP-TEE/basicAlg_use/ta/CryptoVerifyTaRsa.c:228
    2124:	e02f      	b.n	2186 <l_CryptoTaRsa_SetRsaPublicKey+0x122>
/home/st/桌面/OP-TEE/basicAlg_use/ta/CryptoVerifyTaRsa.c:232
    2126:	4b28      	ldr	r3, [pc, #160]	; (21c8 <l_CryptoTaRsa_SetRsaPublicKey+0x164>)
    2128:	447b      	add	r3, pc
    212a:	681b      	ldr	r3, [r3, #0]
    212c:	f04f 0202 	mov.w	r2, #2
    2130:	4926      	ldr	r1, [pc, #152]	; (21cc <l_CryptoTaRsa_SetRsaPublicKey+0x168>)
    2132:	4479      	add	r1, pc
    2134:	4618      	mov	r0, r3
    2136:	f00a f9e8 	bl	c50a <TEE_PopulateTransientObject>
    213a:	6038      	str	r0, [r7, #0]
/home/st/桌面/OP-TEE/basicAlg_use/ta/CryptoVerifyTaRsa.c:233
    213c:	683b      	ldr	r3, [r7, #0]
    213e:	2b00      	cmp	r3, #0
    2140:	d01f      	beq.n	2182 <l_CryptoTaRsa_SetRsaPublicKey+0x11e>
/home/st/桌面/OP-TEE/basicAlg_use/ta/CryptoVerifyTaRsa.c:235
    2142:	683b      	ldr	r3, [r7, #0]
    2144:	9301      	str	r3, [sp, #4]
    2146:	4b22      	ldr	r3, [pc, #136]	; (21d0 <l_CryptoTaRsa_SetRsaPublicKey+0x16c>)
    2148:	447b      	add	r3, pc
    214a:	9300      	str	r3, [sp, #0]
    214c:	f04f 0300 	mov.w	r3, #0
    2150:	f04f 0200 	mov.w	r2, #0
    2154:	f04f 0100 	mov.w	r1, #0
    2158:	f04f 0000 	mov.w	r0, #0
    215c:	f008 f8a4 	bl	a2a8 <trace_printf>
/home/st/桌面/OP-TEE/basicAlg_use/ta/CryptoVerifyTaRsa.c:236
    2160:	f04f 33ff 	mov.w	r3, #4294967295	; 0xffffffff
    2164:	607b      	str	r3, [r7, #4]
/home/st/桌面/OP-TEE/basicAlg_use/ta/CryptoVerifyTaRsa.c:237
    2166:	bf00      	nop
/home/st/桌面/OP-TEE/basicAlg_use/ta/CryptoVerifyTaRsa.c:245
    2168:	4b1a      	ldr	r3, [pc, #104]	; (21d4 <l_CryptoTaRsa_SetRsaPublicKey+0x170>)
    216a:	447b      	add	r3, pc
    216c:	681b      	ldr	r3, [r3, #0]
    216e:	4618      	mov	r0, r3
    2170:	f00a f96b 	bl	c44a <TEE_FreeTransientObject>
/home/st/桌面/OP-TEE/basicAlg_use/ta/CryptoVerifyTaRsa.c:246
    2174:	4b18      	ldr	r3, [pc, #96]	; (21d8 <l_CryptoTaRsa_SetRsaPublicKey+0x174>)
    2176:	447b      	add	r3, pc
    2178:	461a      	mov	r2, r3
    217a:	f04f 0300 	mov.w	r3, #0
    217e:	6013      	str	r3, [r2, #0]
    2180:	e001      	b.n	2186 <l_CryptoTaRsa_SetRsaPublicKey+0x122>
/home/st/桌面/OP-TEE/basicAlg_use/ta/CryptoVerifyTaRsa.c:241
    2182:	687b      	ldr	r3, [r7, #4]
    2184:	e000      	b.n	2188 <l_CryptoTaRsa_SetRsaPublicKey+0x124>
/home/st/桌面/OP-TEE/basicAlg_use/ta/CryptoVerifyTaRsa.c:248
    2186:	687b      	ldr	r3, [r7, #4]
/home/st/桌面/OP-TEE/basicAlg_use/ta/CryptoVerifyTaRsa.c:249
    2188:	4618      	mov	r0, r3
    218a:	f107 0708 	add.w	r7, r7, #8
    218e:	46bd      	mov	sp, r7
    2190:	e9dd 7e00 	ldrd	r7, lr, [sp]
    2194:	b002      	add	sp, #8
    2196:	b004      	add	sp, #16
    2198:	4770      	bx	lr
    219a:	bf00      	nop
    219c:	0001354a 	.word	0x0001354a
    21a0:	00013544 	.word	0x00013544
    21a4:	0001353a 	.word	0x0001353a
    21a8:	00013528 	.word	0x00013528
    21ac:	00013520 	.word	0x00013520
    21b0:	0001351a 	.word	0x0001351a
    21b4:	00013508 	.word	0x00013508
    21b8:	00013500 	.word	0x00013500
    21bc:	000134f2 	.word	0x000134f2
    21c0:	000134f0 	.word	0x000134f0
    21c4:	0000f032 	.word	0x0000f032
    21c8:	000134b0 	.word	0x000134b0
    21cc:	000134aa 	.word	0x000134aa
    21d0:	0000f020 	.word	0x0000f020
    21d4:	0001346e 	.word	0x0001346e
    21d8:	00013462 	.word	0x00013462

000021dc <g_CryptoTaRsa_rsaEncOper>:
g_CryptoTaRsa_rsaEncOper():
/home/st/桌面/OP-TEE/basicAlg_use/ta/CryptoVerifyTaRsa.c:254
    21dc:	b084      	sub	sp, #16
    21de:	f84d 4d0c 	str.w	r4, [sp, #-12]!
    21e2:	e9cd 7e01 	strd	r7, lr, [sp, #4]
    21e6:	b087      	sub	sp, #28
    21e8:	af04      	add	r7, sp, #16
    21ea:	f107 0418 	add.w	r4, r7, #24
    21ee:	e884 000f 	stmia.w	r4, {r0, r1, r2, r3}
/home/st/桌面/OP-TEE/basicAlg_use/ta/CryptoVerifyTaRsa.c:255
    21f2:	f04f 33ff 	mov.w	r3, #4294967295	; 0xffffffff
    21f6:	603b      	str	r3, [r7, #0]
/home/st/桌面/OP-TEE/basicAlg_use/ta/CryptoVerifyTaRsa.c:256
    21f8:	f04f 0300 	mov.w	r3, #0
    21fc:	607b      	str	r3, [r7, #4]
/home/st/桌面/OP-TEE/basicAlg_use/ta/CryptoVerifyTaRsa.c:259
    21fe:	4669      	mov	r1, sp
    2200:	f107 0228 	add.w	r2, r7, #40	; 0x28
    2204:	e9d2 3400 	ldrd	r3, r4, [r2]
    2208:	e9c1 3400 	strd	r3, r4, [r1]
    220c:	6893      	ldr	r3, [r2, #8]
    220e:	608b      	str	r3, [r1, #8]
    2210:	f107 0318 	add.w	r3, r7, #24
    2214:	cb0f      	ldmia	r3, {r0, r1, r2, r3}
    2216:	f7ff ff25 	bl	2064 <l_CryptoTaRsa_SetRsaPublicKey>
    221a:	6078      	str	r0, [r7, #4]
/home/st/桌面/OP-TEE/basicAlg_use/ta/CryptoVerifyTaRsa.c:260
    221c:	687b      	ldr	r3, [r7, #4]
    221e:	f1b3 3fff 	cmp.w	r3, #4294967295	; 0xffffffff
    2222:	d10d      	bne.n	2240 <g_CryptoTaRsa_rsaEncOper+0x64>
/home/st/桌面/OP-TEE/basicAlg_use/ta/CryptoVerifyTaRsa.c:262
    2224:	4b55      	ldr	r3, [pc, #340]	; (237c <g_CryptoTaRsa_rsaEncOper+0x1a0>)
    2226:	447b      	add	r3, pc
    2228:	9300      	str	r3, [sp, #0]
    222a:	f04f 0300 	mov.w	r3, #0
    222e:	f04f 0200 	mov.w	r2, #0
    2232:	f04f 0100 	mov.w	r1, #0
    2236:	f04f 0000 	mov.w	r0, #0
    223a:	f008 f835 	bl	a2a8 <trace_printf>
/home/st/桌面/OP-TEE/basicAlg_use/ta/CryptoVerifyTaRsa.c:263
    223e:	e08e      	b.n	235e <g_CryptoTaRsa_rsaEncOper+0x182>
/home/st/桌面/OP-TEE/basicAlg_use/ta/CryptoVerifyTaRsa.c:267
    2240:	6b39      	ldr	r1, [r7, #48]	; 0x30
    2242:	4b4f      	ldr	r3, [pc, #316]	; (2380 <g_CryptoTaRsa_rsaEncOper+0x1a4>)
    2244:	447b      	add	r3, pc
    2246:	681b      	ldr	r3, [r3, #0]
    2248:	f04f 0200 	mov.w	r2, #0
    224c:	484d      	ldr	r0, [pc, #308]	; (2384 <g_CryptoTaRsa_rsaEncOper+0x1a8>)
    224e:	4478      	add	r0, pc
    2250:	f000 ffc4 	bl	31dc <TEE_AllocateOperation>
    2254:	6038      	str	r0, [r7, #0]
/home/st/桌面/OP-TEE/basicAlg_use/ta/CryptoVerifyTaRsa.c:268
    2256:	683b      	ldr	r3, [r7, #0]
    2258:	2b00      	cmp	r3, #0
    225a:	d012      	beq.n	2282 <g_CryptoTaRsa_rsaEncOper+0xa6>
/home/st/桌面/OP-TEE/basicAlg_use/ta/CryptoVerifyTaRsa.c:270
    225c:	683b      	ldr	r3, [r7, #0]
    225e:	9301      	str	r3, [sp, #4]
    2260:	4b49      	ldr	r3, [pc, #292]	; (2388 <g_CryptoTaRsa_rsaEncOper+0x1ac>)
    2262:	447b      	add	r3, pc
    2264:	9300      	str	r3, [sp, #0]
    2266:	f04f 0300 	mov.w	r3, #0
    226a:	f04f 0200 	mov.w	r2, #0
    226e:	f04f 0100 	mov.w	r1, #0
    2272:	f04f 0000 	mov.w	r0, #0
    2276:	f008 f817 	bl	a2a8 <trace_printf>
/home/st/桌面/OP-TEE/basicAlg_use/ta/CryptoVerifyTaRsa.c:271
    227a:	f04f 33ff 	mov.w	r3, #4294967295	; 0xffffffff
    227e:	607b      	str	r3, [r7, #4]
/home/st/桌面/OP-TEE/basicAlg_use/ta/CryptoVerifyTaRsa.c:272
    2280:	e06d      	b.n	235e <g_CryptoTaRsa_rsaEncOper+0x182>
/home/st/桌面/OP-TEE/basicAlg_use/ta/CryptoVerifyTaRsa.c:276
    2282:	4b42      	ldr	r3, [pc, #264]	; (238c <g_CryptoTaRsa_rsaEncOper+0x1b0>)
    2284:	447b      	add	r3, pc
    2286:	681b      	ldr	r3, [r3, #0]
    2288:	4a41      	ldr	r2, [pc, #260]	; (2390 <g_CryptoTaRsa_rsaEncOper+0x1b4>)
    228a:	447a      	add	r2, pc
    228c:	6812      	ldr	r2, [r2, #0]
    228e:	4611      	mov	r1, r2
    2290:	4618      	mov	r0, r3
    2292:	f001 fda3 	bl	3ddc <TEE_SetOperationKey>
    2296:	6038      	str	r0, [r7, #0]
/home/st/桌面/OP-TEE/basicAlg_use/ta/CryptoVerifyTaRsa.c:277
    2298:	683b      	ldr	r3, [r7, #0]
    229a:	2b00      	cmp	r3, #0
    229c:	d012      	beq.n	22c4 <g_CryptoTaRsa_rsaEncOper+0xe8>
/home/st/桌面/OP-TEE/basicAlg_use/ta/CryptoVerifyTaRsa.c:279
    229e:	683b      	ldr	r3, [r7, #0]
    22a0:	9301      	str	r3, [sp, #4]
    22a2:	4b3c      	ldr	r3, [pc, #240]	; (2394 <g_CryptoTaRsa_rsaEncOper+0x1b8>)
    22a4:	447b      	add	r3, pc
    22a6:	9300      	str	r3, [sp, #0]
    22a8:	f04f 0300 	mov.w	r3, #0
    22ac:	f04f 0200 	mov.w	r2, #0
    22b0:	f04f 0100 	mov.w	r1, #0
    22b4:	f04f 0000 	mov.w	r0, #0
    22b8:	f007 fff6 	bl	a2a8 <trace_printf>
/home/st/桌面/OP-TEE/basicAlg_use/ta/CryptoVerifyTaRsa.c:280
    22bc:	f04f 33ff 	mov.w	r3, #4294967295	; 0xffffffff
    22c0:	607b      	str	r3, [r7, #4]
/home/st/桌面/OP-TEE/basicAlg_use/ta/CryptoVerifyTaRsa.c:281
    22c2:	e040      	b.n	2346 <g_CryptoTaRsa_rsaEncOper+0x16a>
/home/st/桌面/OP-TEE/basicAlg_use/ta/CryptoVerifyTaRsa.c:285
    22c4:	4b34      	ldr	r3, [pc, #208]	; (2398 <g_CryptoTaRsa_rsaEncOper+0x1bc>)
    22c6:	447b      	add	r3, pc
    22c8:	6818      	ldr	r0, [r3, #0]
    22ca:	6c3b      	ldr	r3, [r7, #64]	; 0x40
    22cc:	9302      	str	r3, [sp, #8]
    22ce:	6bbb      	ldr	r3, [r7, #56]	; 0x38
    22d0:	9301      	str	r3, [sp, #4]
    22d2:	6bfb      	ldr	r3, [r7, #60]	; 0x3c
    22d4:	9300      	str	r3, [sp, #0]
    22d6:	6b7b      	ldr	r3, [r7, #52]	; 0x34
    22d8:	f04f 0200 	mov.w	r2, #0
    22dc:	f04f 0100 	mov.w	r1, #0
    22e0:	f003 f91a 	bl	5518 <TEE_AsymmetricEncrypt>
    22e4:	6038      	str	r0, [r7, #0]
/home/st/桌面/OP-TEE/basicAlg_use/ta/CryptoVerifyTaRsa.c:286
    22e6:	683b      	ldr	r3, [r7, #0]
    22e8:	2b00      	cmp	r3, #0
    22ea:	d012      	beq.n	2312 <g_CryptoTaRsa_rsaEncOper+0x136>
/home/st/桌面/OP-TEE/basicAlg_use/ta/CryptoVerifyTaRsa.c:288
    22ec:	683b      	ldr	r3, [r7, #0]
    22ee:	9301      	str	r3, [sp, #4]
    22f0:	4b2a      	ldr	r3, [pc, #168]	; (239c <g_CryptoTaRsa_rsaEncOper+0x1c0>)
    22f2:	447b      	add	r3, pc
    22f4:	9300      	str	r3, [sp, #0]
    22f6:	f04f 0300 	mov.w	r3, #0
    22fa:	f04f 0200 	mov.w	r2, #0
    22fe:	f04f 0100 	mov.w	r1, #0
    2302:	f04f 0000 	mov.w	r0, #0
    2306:	f007 ffcf 	bl	a2a8 <trace_printf>
/home/st/桌面/OP-TEE/basicAlg_use/ta/CryptoVerifyTaRsa.c:289
    230a:	f04f 33ff 	mov.w	r3, #4294967295	; 0xffffffff
    230e:	607b      	str	r3, [r7, #4]
/home/st/桌面/OP-TEE/basicAlg_use/ta/CryptoVerifyTaRsa.c:290
    2310:	e019      	b.n	2346 <g_CryptoTaRsa_rsaEncOper+0x16a>
/home/st/桌面/OP-TEE/basicAlg_use/ta/CryptoVerifyTaRsa.c:294
    2312:	6c3b      	ldr	r3, [r7, #64]	; 0x40
    2314:	681b      	ldr	r3, [r3, #0]
    2316:	9301      	str	r3, [sp, #4]
    2318:	4b21      	ldr	r3, [pc, #132]	; (23a0 <g_CryptoTaRsa_rsaEncOper+0x1c4>)
    231a:	447b      	add	r3, pc
    231c:	9300      	str	r3, [sp, #0]
    231e:	f04f 0300 	mov.w	r3, #0
    2322:	f04f 0200 	mov.w	r2, #0
    2326:	f04f 0100 	mov.w	r1, #0
    232a:	f04f 0000 	mov.w	r0, #0
    232e:	f007 ffbb 	bl	a2a8 <trace_printf>
/home/st/桌面/OP-TEE/basicAlg_use/ta/CryptoVerifyTaRsa.c:295
    2332:	6c3b      	ldr	r3, [r7, #64]	; 0x40
    2334:	681b      	ldr	r3, [r3, #0]
    2336:	4619      	mov	r1, r3
    2338:	6bb8      	ldr	r0, [r7, #56]	; 0x38
    233a:	f7ff fae1 	bl	1900 <g_TA_Printf>
/home/st/桌面/OP-TEE/basicAlg_use/ta/CryptoVerifyTaRsa.c:296
    233e:	f04f 0300 	mov.w	r3, #0
    2342:	607b      	str	r3, [r7, #4]
/home/st/桌面/OP-TEE/basicAlg_use/ta/CryptoVerifyTaRsa.c:297
    2344:	e00b      	b.n	235e <g_CryptoTaRsa_rsaEncOper+0x182>
/home/st/桌面/OP-TEE/basicAlg_use/ta/CryptoVerifyTaRsa.c:301
    2346:	4b17      	ldr	r3, [pc, #92]	; (23a4 <g_CryptoTaRsa_rsaEncOper+0x1c8>)
    2348:	447b      	add	r3, pc
    234a:	681b      	ldr	r3, [r3, #0]
    234c:	4618      	mov	r0, r3
    234e:	f001 fbe5 	bl	3b1c <TEE_FreeOperation>
/home/st/桌面/OP-TEE/basicAlg_use/ta/CryptoVerifyTaRsa.c:302
    2352:	4b15      	ldr	r3, [pc, #84]	; (23a8 <g_CryptoTaRsa_rsaEncOper+0x1cc>)
    2354:	447b      	add	r3, pc
    2356:	461a      	mov	r2, r3
    2358:	f04f 0300 	mov.w	r3, #0
    235c:	6013      	str	r3, [r2, #0]
/home/st/桌面/OP-TEE/basicAlg_use/ta/CryptoVerifyTaRsa.c:304
    235e:	f7ff fd8b 	bl	1e78 <l_CryptoTaRsa_CleanUpPublicHandle>
/home/st/桌面/OP-TEE/basicAlg_use/ta/CryptoVerifyTaRsa.c:305
    2362:	687b      	ldr	r3, [r7, #4]
/home/st/桌面/OP-TEE/basicAlg_use/ta/CryptoVerifyTaRsa.c:307
    2364:	4618      	mov	r0, r3
    2366:	f107 070c 	add.w	r7, r7, #12
    236a:	46bd      	mov	sp, r7
    236c:	e9dd 4700 	ldrd	r4, r7, [sp]
    2370:	b002      	add	sp, #8
    2372:	f85d eb04 	ldr.w	lr, [sp], #4
    2376:	b004      	add	sp, #16
    2378:	4770      	bx	lr
    237a:	bf00      	nop
    237c:	0000ef72 	.word	0x0000ef72
    2380:	00013390 	.word	0x00013390
    2384:	00013382 	.word	0x00013382
    2388:	0000ef5e 	.word	0x0000ef5e
    238c:	0001334c 	.word	0x0001334c
    2390:	0001334e 	.word	0x0001334e
    2394:	0000ef5c 	.word	0x0000ef5c
    2398:	0001330a 	.word	0x0001330a
    239c:	0000ef3e 	.word	0x0000ef3e
    23a0:	0000ef56 	.word	0x0000ef56
    23a4:	00013288 	.word	0x00013288
    23a8:	0001327c 	.word	0x0001327c

000023ac <g_CryptoTaRsa_rsaDecOper>:
g_CryptoTaRsa_rsaDecOper():
/home/st/桌面/OP-TEE/basicAlg_use/ta/CryptoVerifyTaRsa.c:314
    23ac:	b084      	sub	sp, #16
    23ae:	f84d 4d0c 	str.w	r4, [sp, #-12]!
    23b2:	e9cd 7e01 	strd	r7, lr, [sp, #4]
    23b6:	b087      	sub	sp, #28
    23b8:	af04      	add	r7, sp, #16
    23ba:	f107 0418 	add.w	r4, r7, #24
    23be:	e884 000f 	stmia.w	r4, {r0, r1, r2, r3}
/home/st/桌面/OP-TEE/basicAlg_use/ta/CryptoVerifyTaRsa.c:315
    23c2:	f04f 33ff 	mov.w	r3, #4294967295	; 0xffffffff
    23c6:	603b      	str	r3, [r7, #0]
/home/st/桌面/OP-TEE/basicAlg_use/ta/CryptoVerifyTaRsa.c:316
    23c8:	f04f 0300 	mov.w	r3, #0
    23cc:	607b      	str	r3, [r7, #4]
/home/st/桌面/OP-TEE/basicAlg_use/ta/CryptoVerifyTaRsa.c:319
    23ce:	4669      	mov	r1, sp
    23d0:	f107 0228 	add.w	r2, r7, #40	; 0x28
    23d4:	e9d2 3400 	ldrd	r3, r4, [r2]
    23d8:	e9c1 3400 	strd	r3, r4, [r1]
    23dc:	6893      	ldr	r3, [r2, #8]
    23de:	608b      	str	r3, [r1, #8]
    23e0:	f107 0318 	add.w	r3, r7, #24
    23e4:	cb0f      	ldmia	r3, {r0, r1, r2, r3}
    23e6:	f7ff fd6b 	bl	1ec0 <l_CryptoTaRsa_SetRsaPrivateKey>
    23ea:	6078      	str	r0, [r7, #4]
/home/st/桌面/OP-TEE/basicAlg_use/ta/CryptoVerifyTaRsa.c:320
    23ec:	687b      	ldr	r3, [r7, #4]
    23ee:	f1b3 3fff 	cmp.w	r3, #4294967295	; 0xffffffff
    23f2:	d10d      	bne.n	2410 <g_CryptoTaRsa_rsaDecOper+0x64>
/home/st/桌面/OP-TEE/basicAlg_use/ta/CryptoVerifyTaRsa.c:322
    23f4:	4b55      	ldr	r3, [pc, #340]	; (254c <g_CryptoTaRsa_rsaDecOper+0x1a0>)
    23f6:	447b      	add	r3, pc
    23f8:	9300      	str	r3, [sp, #0]
    23fa:	f04f 0300 	mov.w	r3, #0
    23fe:	f04f 0200 	mov.w	r2, #0
    2402:	f04f 0100 	mov.w	r1, #0
    2406:	f04f 0000 	mov.w	r0, #0
    240a:	f007 ff4d 	bl	a2a8 <trace_printf>
/home/st/桌面/OP-TEE/basicAlg_use/ta/CryptoVerifyTaRsa.c:323
    240e:	e08e      	b.n	252e <g_CryptoTaRsa_rsaDecOper+0x182>
/home/st/桌面/OP-TEE/basicAlg_use/ta/CryptoVerifyTaRsa.c:327
    2410:	6b39      	ldr	r1, [r7, #48]	; 0x30
    2412:	4b4f      	ldr	r3, [pc, #316]	; (2550 <g_CryptoTaRsa_rsaDecOper+0x1a4>)
    2414:	447b      	add	r3, pc
    2416:	681b      	ldr	r3, [r3, #0]
    2418:	f04f 0201 	mov.w	r2, #1
    241c:	484d      	ldr	r0, [pc, #308]	; (2554 <g_CryptoTaRsa_rsaDecOper+0x1a8>)
    241e:	4478      	add	r0, pc
    2420:	f000 fedc 	bl	31dc <TEE_AllocateOperation>
    2424:	6038      	str	r0, [r7, #0]
/home/st/桌面/OP-TEE/basicAlg_use/ta/CryptoVerifyTaRsa.c:328
    2426:	683b      	ldr	r3, [r7, #0]
    2428:	2b00      	cmp	r3, #0
    242a:	d012      	beq.n	2452 <g_CryptoTaRsa_rsaDecOper+0xa6>
/home/st/桌面/OP-TEE/basicAlg_use/ta/CryptoVerifyTaRsa.c:330
    242c:	683b      	ldr	r3, [r7, #0]
    242e:	9301      	str	r3, [sp, #4]
    2430:	4b49      	ldr	r3, [pc, #292]	; (2558 <g_CryptoTaRsa_rsaDecOper+0x1ac>)
    2432:	447b      	add	r3, pc
    2434:	9300      	str	r3, [sp, #0]
    2436:	f04f 0300 	mov.w	r3, #0
    243a:	f04f 0200 	mov.w	r2, #0
    243e:	f04f 0100 	mov.w	r1, #0
    2442:	f04f 0000 	mov.w	r0, #0
    2446:	f007 ff2f 	bl	a2a8 <trace_printf>
/home/st/桌面/OP-TEE/basicAlg_use/ta/CryptoVerifyTaRsa.c:331
    244a:	f04f 33ff 	mov.w	r3, #4294967295	; 0xffffffff
    244e:	607b      	str	r3, [r7, #4]
/home/st/桌面/OP-TEE/basicAlg_use/ta/CryptoVerifyTaRsa.c:332
    2450:	e06d      	b.n	252e <g_CryptoTaRsa_rsaDecOper+0x182>
/home/st/桌面/OP-TEE/basicAlg_use/ta/CryptoVerifyTaRsa.c:336
    2452:	4b42      	ldr	r3, [pc, #264]	; (255c <g_CryptoTaRsa_rsaDecOper+0x1b0>)
    2454:	447b      	add	r3, pc
    2456:	681b      	ldr	r3, [r3, #0]
    2458:	4a41      	ldr	r2, [pc, #260]	; (2560 <g_CryptoTaRsa_rsaDecOper+0x1b4>)
    245a:	447a      	add	r2, pc
    245c:	6812      	ldr	r2, [r2, #0]
    245e:	4611      	mov	r1, r2
    2460:	4618      	mov	r0, r3
    2462:	f001 fcbb 	bl	3ddc <TEE_SetOperationKey>
    2466:	6038      	str	r0, [r7, #0]
/home/st/桌面/OP-TEE/basicAlg_use/ta/CryptoVerifyTaRsa.c:337
    2468:	683b      	ldr	r3, [r7, #0]
    246a:	2b00      	cmp	r3, #0
    246c:	d012      	beq.n	2494 <g_CryptoTaRsa_rsaDecOper+0xe8>
/home/st/桌面/OP-TEE/basicAlg_use/ta/CryptoVerifyTaRsa.c:339
    246e:	683b      	ldr	r3, [r7, #0]
    2470:	9301      	str	r3, [sp, #4]
    2472:	4b3c      	ldr	r3, [pc, #240]	; (2564 <g_CryptoTaRsa_rsaDecOper+0x1b8>)
    2474:	447b      	add	r3, pc
    2476:	9300      	str	r3, [sp, #0]
    2478:	f04f 0300 	mov.w	r3, #0
    247c:	f04f 0200 	mov.w	r2, #0
    2480:	f04f 0100 	mov.w	r1, #0
    2484:	f04f 0000 	mov.w	r0, #0
    2488:	f007 ff0e 	bl	a2a8 <trace_printf>
/home/st/桌面/OP-TEE/basicAlg_use/ta/CryptoVerifyTaRsa.c:340
    248c:	f04f 33ff 	mov.w	r3, #4294967295	; 0xffffffff
    2490:	607b      	str	r3, [r7, #4]
/home/st/桌面/OP-TEE/basicAlg_use/ta/CryptoVerifyTaRsa.c:341
    2492:	e040      	b.n	2516 <g_CryptoTaRsa_rsaDecOper+0x16a>
/home/st/桌面/OP-TEE/basicAlg_use/ta/CryptoVerifyTaRsa.c:345
    2494:	4b34      	ldr	r3, [pc, #208]	; (2568 <g_CryptoTaRsa_rsaDecOper+0x1bc>)
    2496:	447b      	add	r3, pc
    2498:	6818      	ldr	r0, [r3, #0]
    249a:	6c3b      	ldr	r3, [r7, #64]	; 0x40
    249c:	9302      	str	r3, [sp, #8]
    249e:	6bbb      	ldr	r3, [r7, #56]	; 0x38
    24a0:	9301      	str	r3, [sp, #4]
    24a2:	6bfb      	ldr	r3, [r7, #60]	; 0x3c
    24a4:	9300      	str	r3, [sp, #0]
    24a6:	6b7b      	ldr	r3, [r7, #52]	; 0x34
    24a8:	f04f 0200 	mov.w	r2, #0
    24ac:	f04f 0100 	mov.w	r1, #0
    24b0:	f003 f8fd 	bl	56ae <TEE_AsymmetricDecrypt>
    24b4:	6038      	str	r0, [r7, #0]
/home/st/桌面/OP-TEE/basicAlg_use/ta/CryptoVerifyTaRsa.c:346
    24b6:	683b      	ldr	r3, [r7, #0]
    24b8:	2b00      	cmp	r3, #0
    24ba:	d012      	beq.n	24e2 <g_CryptoTaRsa_rsaDecOper+0x136>
/home/st/桌面/OP-TEE/basicAlg_use/ta/CryptoVerifyTaRsa.c:348
    24bc:	683b      	ldr	r3, [r7, #0]
    24be:	9301      	str	r3, [sp, #4]
    24c0:	4b2a      	ldr	r3, [pc, #168]	; (256c <g_CryptoTaRsa_rsaDecOper+0x1c0>)
    24c2:	447b      	add	r3, pc
    24c4:	9300      	str	r3, [sp, #0]
    24c6:	f04f 0300 	mov.w	r3, #0
    24ca:	f04f 0200 	mov.w	r2, #0
    24ce:	f04f 0100 	mov.w	r1, #0
    24d2:	f04f 0000 	mov.w	r0, #0
    24d6:	f007 fee7 	bl	a2a8 <trace_printf>
/home/st/桌面/OP-TEE/basicAlg_use/ta/CryptoVerifyTaRsa.c:349
    24da:	f04f 33ff 	mov.w	r3, #4294967295	; 0xffffffff
    24de:	607b      	str	r3, [r7, #4]
/home/st/桌面/OP-TEE/basicAlg_use/ta/CryptoVerifyTaRsa.c:350
    24e0:	e019      	b.n	2516 <g_CryptoTaRsa_rsaDecOper+0x16a>
/home/st/桌面/OP-TEE/basicAlg_use/ta/CryptoVerifyTaRsa.c:354
    24e2:	6c3b      	ldr	r3, [r7, #64]	; 0x40
    24e4:	681b      	ldr	r3, [r3, #0]
    24e6:	9301      	str	r3, [sp, #4]
    24e8:	4b21      	ldr	r3, [pc, #132]	; (2570 <g_CryptoTaRsa_rsaDecOper+0x1c4>)
    24ea:	447b      	add	r3, pc
    24ec:	9300      	str	r3, [sp, #0]
    24ee:	f04f 0300 	mov.w	r3, #0
    24f2:	f04f 0200 	mov.w	r2, #0
    24f6:	f04f 0100 	mov.w	r1, #0
    24fa:	f04f 0000 	mov.w	r0, #0
    24fe:	f007 fed3 	bl	a2a8 <trace_printf>
/home/st/桌面/OP-TEE/basicAlg_use/ta/CryptoVerifyTaRsa.c:355
    2502:	6c3b      	ldr	r3, [r7, #64]	; 0x40
    2504:	681b      	ldr	r3, [r3, #0]
    2506:	4619      	mov	r1, r3
    2508:	6bb8      	ldr	r0, [r7, #56]	; 0x38
    250a:	f7ff f9f9 	bl	1900 <g_TA_Printf>
/home/st/桌面/OP-TEE/basicAlg_use/ta/CryptoVerifyTaRsa.c:356
    250e:	f04f 0300 	mov.w	r3, #0
    2512:	607b      	str	r3, [r7, #4]
/home/st/桌面/OP-TEE/basicAlg_use/ta/CryptoVerifyTaRsa.c:357
    2514:	e00b      	b.n	252e <g_CryptoTaRsa_rsaDecOper+0x182>
/home/st/桌面/OP-TEE/basicAlg_use/ta/CryptoVerifyTaRsa.c:361
    2516:	4b17      	ldr	r3, [pc, #92]	; (2574 <g_CryptoTaRsa_rsaDecOper+0x1c8>)
    2518:	447b      	add	r3, pc
    251a:	681b      	ldr	r3, [r3, #0]
    251c:	4618      	mov	r0, r3
    251e:	f001 fafd 	bl	3b1c <TEE_FreeOperation>
/home/st/桌面/OP-TEE/basicAlg_use/ta/CryptoVerifyTaRsa.c:362
    2522:	4b15      	ldr	r3, [pc, #84]	; (2578 <g_CryptoTaRsa_rsaDecOper+0x1cc>)
    2524:	447b      	add	r3, pc
    2526:	461a      	mov	r2, r3
    2528:	f04f 0300 	mov.w	r3, #0
    252c:	6013      	str	r3, [r2, #0]
/home/st/桌面/OP-TEE/basicAlg_use/ta/CryptoVerifyTaRsa.c:364
    252e:	f7ff fc7f 	bl	1e30 <l_CryptoTaRsa_CleanUpKeyPairObj>
/home/st/桌面/OP-TEE/basicAlg_use/ta/CryptoVerifyTaRsa.c:365
    2532:	687b      	ldr	r3, [r7, #4]
/home/st/桌面/OP-TEE/basicAlg_use/ta/CryptoVerifyTaRsa.c:366
    2534:	4618      	mov	r0, r3
    2536:	f107 070c 	add.w	r7, r7, #12
    253a:	46bd      	mov	sp, r7
    253c:	e9dd 4700 	ldrd	r4, r7, [sp]
    2540:	b002      	add	sp, #8
    2542:	f85d eb04 	ldr.w	lr, [sp], #4
    2546:	b004      	add	sp, #16
    2548:	4770      	bx	lr
    254a:	bf00      	nop
    254c:	0000eda2 	.word	0x0000eda2
    2550:	000131c0 	.word	0x000131c0
    2554:	000131b2 	.word	0x000131b2
    2558:	0000ed8e 	.word	0x0000ed8e
    255c:	0001317c 	.word	0x0001317c
    2560:	0001319a 	.word	0x0001319a
    2564:	0000ed8c 	.word	0x0000ed8c
    2568:	0001313a 	.word	0x0001313a
    256c:	0000edca 	.word	0x0000edca
    2570:	0000ed86 	.word	0x0000ed86
    2574:	000130b8 	.word	0x000130b8
    2578:	000130ac 	.word	0x000130ac

0000257c <g_CryptoTaRsa_rsaSignOper>:
g_CryptoTaRsa_rsaSignOper():
/home/st/桌面/OP-TEE/basicAlg_use/ta/CryptoVerifyTaRsa.c:375
    257c:	b084      	sub	sp, #16
    257e:	f84d 4d0c 	str.w	r4, [sp, #-12]!
    2582:	e9cd 7e01 	strd	r7, lr, [sp, #4]
    2586:	b08d      	sub	sp, #52	; 0x34
    2588:	af04      	add	r7, sp, #16
    258a:	f107 0430 	add.w	r4, r7, #48	; 0x30
    258e:	e884 000f 	stmia.w	r4, {r0, r1, r2, r3}
/home/st/桌面/OP-TEE/basicAlg_use/ta/CryptoVerifyTaRsa.c:376
    2592:	f04f 33ff 	mov.w	r3, #4294967295	; 0xffffffff
    2596:	61bb      	str	r3, [r7, #24]
/home/st/桌面/OP-TEE/basicAlg_use/ta/CryptoVerifyTaRsa.c:377
    2598:	f04f 33ff 	mov.w	r3, #4294967295	; 0xffffffff
    259c:	61fb      	str	r3, [r7, #28]
/home/st/桌面/OP-TEE/basicAlg_use/ta/CryptoVerifyTaRsa.c:378
    259e:	f107 0204 	add.w	r2, r7, #4
    25a2:	f04f 0300 	mov.w	r3, #0
    25a6:	f04f 0400 	mov.w	r4, #0
    25aa:	e9c2 3400 	strd	r3, r4, [r2]
    25ae:	e9c2 3402 	strd	r3, r4, [r2, #8]
    25b2:	6113      	str	r3, [r2, #16]
/home/st/桌面/OP-TEE/basicAlg_use/ta/CryptoVerifyTaRsa.c:382
    25b4:	f107 0204 	add.w	r2, r7, #4
    25b8:	6dbb      	ldr	r3, [r7, #88]	; 0x58
    25ba:	9300      	str	r3, [sp, #0]
    25bc:	4613      	mov	r3, r2
    25be:	6d7a      	ldr	r2, [r7, #84]	; 0x54
    25c0:	6cf9      	ldr	r1, [r7, #76]	; 0x4c
    25c2:	f04f 0001 	mov.w	r0, #1
    25c6:	f7fe fc1d 	bl	e04 <g_CryptoTaHash_sha>
/home/st/桌面/OP-TEE/basicAlg_use/ta/CryptoVerifyTaRsa.c:383
    25ca:	4b64      	ldr	r3, [pc, #400]	; (275c <g_CryptoTaRsa_rsaSignOper+0x1e0>)
    25cc:	447b      	add	r3, pc
    25ce:	9300      	str	r3, [sp, #0]
    25d0:	f04f 0300 	mov.w	r3, #0
    25d4:	f04f 0200 	mov.w	r2, #0
    25d8:	f04f 0100 	mov.w	r1, #0
    25dc:	f04f 0000 	mov.w	r0, #0
    25e0:	f007 fe62 	bl	a2a8 <trace_printf>
/home/st/桌面/OP-TEE/basicAlg_use/ta/CryptoVerifyTaRsa.c:384
    25e4:	6dbb      	ldr	r3, [r7, #88]	; 0x58
    25e6:	681a      	ldr	r2, [r3, #0]
    25e8:	f107 0304 	add.w	r3, r7, #4
    25ec:	4611      	mov	r1, r2
    25ee:	4618      	mov	r0, r3
    25f0:	f7ff f986 	bl	1900 <g_TA_Printf>
/home/st/桌面/OP-TEE/basicAlg_use/ta/CryptoVerifyTaRsa.c:385
    25f4:	6dbb      	ldr	r3, [r7, #88]	; 0x58
    25f6:	f04f 0200 	mov.w	r2, #0
    25fa:	601a      	str	r2, [r3, #0]
/home/st/桌面/OP-TEE/basicAlg_use/ta/CryptoVerifyTaRsa.c:388
    25fc:	4669      	mov	r1, sp
    25fe:	f107 0240 	add.w	r2, r7, #64	; 0x40
    2602:	e9d2 3400 	ldrd	r3, r4, [r2]
    2606:	e9c1 3400 	strd	r3, r4, [r1]
    260a:	6893      	ldr	r3, [r2, #8]
    260c:	608b      	str	r3, [r1, #8]
    260e:	f107 0330 	add.w	r3, r7, #48	; 0x30
    2612:	cb0f      	ldmia	r3, {r0, r1, r2, r3}
    2614:	f7ff fc54 	bl	1ec0 <l_CryptoTaRsa_SetRsaPrivateKey>
    2618:	61f8      	str	r0, [r7, #28]
/home/st/桌面/OP-TEE/basicAlg_use/ta/CryptoVerifyTaRsa.c:389
    261a:	69fb      	ldr	r3, [r7, #28]
    261c:	f1b3 3fff 	cmp.w	r3, #4294967295	; 0xffffffff
    2620:	d10d      	bne.n	263e <g_CryptoTaRsa_rsaSignOper+0xc2>
/home/st/桌面/OP-TEE/basicAlg_use/ta/CryptoVerifyTaRsa.c:391
    2622:	4b4f      	ldr	r3, [pc, #316]	; (2760 <g_CryptoTaRsa_rsaSignOper+0x1e4>)
    2624:	447b      	add	r3, pc
    2626:	9300      	str	r3, [sp, #0]
    2628:	f04f 0300 	mov.w	r3, #0
    262c:	f04f 0200 	mov.w	r2, #0
    2630:	f04f 0100 	mov.w	r1, #0
    2634:	f04f 0000 	mov.w	r0, #0
    2638:	f007 fe36 	bl	a2a8 <trace_printf>
/home/st/桌面/OP-TEE/basicAlg_use/ta/CryptoVerifyTaRsa.c:392
    263c:	e080      	b.n	2740 <g_CryptoTaRsa_rsaSignOper+0x1c4>
/home/st/桌面/OP-TEE/basicAlg_use/ta/CryptoVerifyTaRsa.c:396
    263e:	6cb9      	ldr	r1, [r7, #72]	; 0x48
    2640:	4b48      	ldr	r3, [pc, #288]	; (2764 <g_CryptoTaRsa_rsaSignOper+0x1e8>)
    2642:	447b      	add	r3, pc
    2644:	681b      	ldr	r3, [r3, #0]
    2646:	f04f 0202 	mov.w	r2, #2
    264a:	4847      	ldr	r0, [pc, #284]	; (2768 <g_CryptoTaRsa_rsaSignOper+0x1ec>)
    264c:	4478      	add	r0, pc
    264e:	f000 fdc5 	bl	31dc <TEE_AllocateOperation>
    2652:	61b8      	str	r0, [r7, #24]
/home/st/桌面/OP-TEE/basicAlg_use/ta/CryptoVerifyTaRsa.c:397
    2654:	69bb      	ldr	r3, [r7, #24]
    2656:	2b00      	cmp	r3, #0
    2658:	d012      	beq.n	2680 <g_CryptoTaRsa_rsaSignOper+0x104>
/home/st/桌面/OP-TEE/basicAlg_use/ta/CryptoVerifyTaRsa.c:399
    265a:	69bb      	ldr	r3, [r7, #24]
    265c:	9301      	str	r3, [sp, #4]
    265e:	4b43      	ldr	r3, [pc, #268]	; (276c <g_CryptoTaRsa_rsaSignOper+0x1f0>)
    2660:	447b      	add	r3, pc
    2662:	9300      	str	r3, [sp, #0]
    2664:	f04f 0300 	mov.w	r3, #0
    2668:	f04f 0200 	mov.w	r2, #0
    266c:	f04f 0100 	mov.w	r1, #0
    2670:	f04f 0000 	mov.w	r0, #0
    2674:	f007 fe18 	bl	a2a8 <trace_printf>
/home/st/桌面/OP-TEE/basicAlg_use/ta/CryptoVerifyTaRsa.c:400
    2678:	f04f 33ff 	mov.w	r3, #4294967295	; 0xffffffff
    267c:	61fb      	str	r3, [r7, #28]
/home/st/桌面/OP-TEE/basicAlg_use/ta/CryptoVerifyTaRsa.c:401
    267e:	e05f      	b.n	2740 <g_CryptoTaRsa_rsaSignOper+0x1c4>
/home/st/桌面/OP-TEE/basicAlg_use/ta/CryptoVerifyTaRsa.c:405
    2680:	4b3b      	ldr	r3, [pc, #236]	; (2770 <g_CryptoTaRsa_rsaSignOper+0x1f4>)
    2682:	447b      	add	r3, pc
    2684:	681b      	ldr	r3, [r3, #0]
    2686:	4a3b      	ldr	r2, [pc, #236]	; (2774 <g_CryptoTaRsa_rsaSignOper+0x1f8>)
    2688:	447a      	add	r2, pc
    268a:	6812      	ldr	r2, [r2, #0]
    268c:	4611      	mov	r1, r2
    268e:	4618      	mov	r0, r3
    2690:	f001 fba4 	bl	3ddc <TEE_SetOperationKey>
    2694:	61b8      	str	r0, [r7, #24]
/home/st/桌面/OP-TEE/basicAlg_use/ta/CryptoVerifyTaRsa.c:406
    2696:	69bb      	ldr	r3, [r7, #24]
    2698:	2b00      	cmp	r3, #0
    269a:	d012      	beq.n	26c2 <g_CryptoTaRsa_rsaSignOper+0x146>
/home/st/桌面/OP-TEE/basicAlg_use/ta/CryptoVerifyTaRsa.c:408
    269c:	69bb      	ldr	r3, [r7, #24]
    269e:	9301      	str	r3, [sp, #4]
    26a0:	4b35      	ldr	r3, [pc, #212]	; (2778 <g_CryptoTaRsa_rsaSignOper+0x1fc>)
    26a2:	447b      	add	r3, pc
    26a4:	9300      	str	r3, [sp, #0]
    26a6:	f04f 0300 	mov.w	r3, #0
    26aa:	f04f 0200 	mov.w	r2, #0
    26ae:	f04f 0100 	mov.w	r1, #0
    26b2:	f04f 0000 	mov.w	r0, #0
    26b6:	f007 fdf7 	bl	a2a8 <trace_printf>
/home/st/桌面/OP-TEE/basicAlg_use/ta/CryptoVerifyTaRsa.c:409
    26ba:	f04f 33ff 	mov.w	r3, #4294967295	; 0xffffffff
    26be:	61fb      	str	r3, [r7, #28]
/home/st/桌面/OP-TEE/basicAlg_use/ta/CryptoVerifyTaRsa.c:410
    26c0:	e032      	b.n	2728 <g_CryptoTaRsa_rsaSignOper+0x1ac>
/home/st/桌面/OP-TEE/basicAlg_use/ta/CryptoVerifyTaRsa.c:413
    26c2:	6bfa      	ldr	r2, [r7, #60]	; 0x3c
    26c4:	6dbb      	ldr	r3, [r7, #88]	; 0x58
    26c6:	601a      	str	r2, [r3, #0]
/home/st/桌面/OP-TEE/basicAlg_use/ta/CryptoVerifyTaRsa.c:415
    26c8:	4b2c      	ldr	r3, [pc, #176]	; (277c <g_CryptoTaRsa_rsaSignOper+0x200>)
    26ca:	447b      	add	r3, pc
    26cc:	6818      	ldr	r0, [r3, #0]
    26ce:	f107 0204 	add.w	r2, r7, #4
    26d2:	6dbb      	ldr	r3, [r7, #88]	; 0x58
    26d4:	9302      	str	r3, [sp, #8]
    26d6:	6d3b      	ldr	r3, [r7, #80]	; 0x50
    26d8:	9301      	str	r3, [sp, #4]
    26da:	f04f 0314 	mov.w	r3, #20
    26de:	9300      	str	r3, [sp, #0]
    26e0:	4613      	mov	r3, r2
    26e2:	f04f 0200 	mov.w	r2, #0
    26e6:	f04f 0100 	mov.w	r1, #0
    26ea:	f003 f8ab 	bl	5844 <TEE_AsymmetricSignDigest>
    26ee:	61b8      	str	r0, [r7, #24]
/home/st/桌面/OP-TEE/basicAlg_use/ta/CryptoVerifyTaRsa.c:416
    26f0:	69bb      	ldr	r3, [r7, #24]
    26f2:	2b00      	cmp	r3, #0
    26f4:	d002      	beq.n	26fc <g_CryptoTaRsa_rsaSignOper+0x180>
/home/st/桌面/OP-TEE/basicAlg_use/ta/CryptoVerifyTaRsa.c:418
    26f6:	f04f 33ff 	mov.w	r3, #4294967295	; 0xffffffff
    26fa:	61fb      	str	r3, [r7, #28]
/home/st/桌面/OP-TEE/basicAlg_use/ta/CryptoVerifyTaRsa.c:420
    26fc:	6dbb      	ldr	r3, [r7, #88]	; 0x58
    26fe:	681b      	ldr	r3, [r3, #0]
    2700:	9301      	str	r3, [sp, #4]
    2702:	4b1f      	ldr	r3, [pc, #124]	; (2780 <g_CryptoTaRsa_rsaSignOper+0x204>)
    2704:	447b      	add	r3, pc
    2706:	9300      	str	r3, [sp, #0]
    2708:	f04f 0300 	mov.w	r3, #0
    270c:	f04f 0200 	mov.w	r2, #0
    2710:	f04f 0100 	mov.w	r1, #0
    2714:	f04f 0000 	mov.w	r0, #0
    2718:	f007 fdc6 	bl	a2a8 <trace_printf>
/home/st/桌面/OP-TEE/basicAlg_use/ta/CryptoVerifyTaRsa.c:421
    271c:	6dbb      	ldr	r3, [r7, #88]	; 0x58
    271e:	681b      	ldr	r3, [r3, #0]
    2720:	4619      	mov	r1, r3
    2722:	6d38      	ldr	r0, [r7, #80]	; 0x50
    2724:	f7ff f8ec 	bl	1900 <g_TA_Printf>
/home/st/桌面/OP-TEE/basicAlg_use/ta/CryptoVerifyTaRsa.c:424
    2728:	4b16      	ldr	r3, [pc, #88]	; (2784 <g_CryptoTaRsa_rsaSignOper+0x208>)
    272a:	447b      	add	r3, pc
    272c:	681b      	ldr	r3, [r3, #0]
    272e:	4618      	mov	r0, r3
    2730:	f001 f9f4 	bl	3b1c <TEE_FreeOperation>
/home/st/桌面/OP-TEE/basicAlg_use/ta/CryptoVerifyTaRsa.c:425
    2734:	4b14      	ldr	r3, [pc, #80]	; (2788 <g_CryptoTaRsa_rsaSignOper+0x20c>)
    2736:	447b      	add	r3, pc
    2738:	461a      	mov	r2, r3
    273a:	f04f 0300 	mov.w	r3, #0
    273e:	6013      	str	r3, [r2, #0]
/home/st/桌面/OP-TEE/basicAlg_use/ta/CryptoVerifyTaRsa.c:427
    2740:	f7ff fb76 	bl	1e30 <l_CryptoTaRsa_CleanUpKeyPairObj>
/home/st/桌面/OP-TEE/basicAlg_use/ta/CryptoVerifyTaRsa.c:428
    2744:	69fb      	ldr	r3, [r7, #28]
/home/st/桌面/OP-TEE/basicAlg_use/ta/CryptoVerifyTaRsa.c:429
    2746:	4618      	mov	r0, r3
    2748:	f107 0724 	add.w	r7, r7, #36	; 0x24
    274c:	46bd      	mov	sp, r7
    274e:	e9dd 4700 	ldrd	r4, r7, [sp]
    2752:	b002      	add	sp, #8
    2754:	f85d eb04 	ldr.w	lr, [sp], #4
    2758:	b004      	add	sp, #16
    275a:	4770      	bx	lr
    275c:	0000ed04 	.word	0x0000ed04
    2760:	0000eb74 	.word	0x0000eb74
    2764:	00012f92 	.word	0x00012f92
    2768:	00012f84 	.word	0x00012f84
    276c:	0000eb60 	.word	0x0000eb60
    2770:	00012f4e 	.word	0x00012f4e
    2774:	00012f6c 	.word	0x00012f6c
    2778:	0000eb5e 	.word	0x0000eb5e
    277c:	00012f06 	.word	0x00012f06
    2780:	0000ebe8 	.word	0x0000ebe8
    2784:	00012ea6 	.word	0x00012ea6
    2788:	00012e9a 	.word	0x00012e9a

0000278c <g_CryptoTaRsa_rsaVerifyOper>:
g_CryptoTaRsa_rsaVerifyOper():
/home/st/桌面/OP-TEE/basicAlg_use/ta/CryptoVerifyTaRsa.c:441
    278c:	b084      	sub	sp, #16
    278e:	f84d 4d0c 	str.w	r4, [sp, #-12]!
    2792:	e9cd 7e01 	strd	r7, lr, [sp, #4]
    2796:	b08d      	sub	sp, #52	; 0x34
    2798:	af04      	add	r7, sp, #16
    279a:	f107 0430 	add.w	r4, r7, #48	; 0x30
    279e:	e884 000f 	stmia.w	r4, {r0, r1, r2, r3}
/home/st/桌面/OP-TEE/basicAlg_use/ta/CryptoVerifyTaRsa.c:442
    27a2:	f04f 33ff 	mov.w	r3, #4294967295	; 0xffffffff
    27a6:	61bb      	str	r3, [r7, #24]
/home/st/桌面/OP-TEE/basicAlg_use/ta/CryptoVerifyTaRsa.c:443
    27a8:	f04f 33ff 	mov.w	r3, #4294967295	; 0xffffffff
    27ac:	61fb      	str	r3, [r7, #28]
/home/st/桌面/OP-TEE/basicAlg_use/ta/CryptoVerifyTaRsa.c:444
    27ae:	f107 0204 	add.w	r2, r7, #4
    27b2:	f04f 0300 	mov.w	r3, #0
    27b6:	f04f 0400 	mov.w	r4, #0
    27ba:	e9c2 3400 	strd	r3, r4, [r2]
    27be:	e9c2 3402 	strd	r3, r4, [r2, #8]
    27c2:	6113      	str	r3, [r2, #16]
/home/st/桌面/OP-TEE/basicAlg_use/ta/CryptoVerifyTaRsa.c:446
    27c4:	6d7b      	ldr	r3, [r7, #84]	; 0x54
    27c6:	9301      	str	r3, [sp, #4]
    27c8:	4ba1      	ldr	r3, [pc, #644]	; (2a50 <g_CryptoTaRsa_rsaVerifyOper+0x2c4>)
    27ca:	447b      	add	r3, pc
    27cc:	9300      	str	r3, [sp, #0]
    27ce:	f04f 0300 	mov.w	r3, #0
    27d2:	f04f 0200 	mov.w	r2, #0
    27d6:	f04f 0100 	mov.w	r1, #0
    27da:	f04f 0000 	mov.w	r0, #0
    27de:	f007 fd63 	bl	a2a8 <trace_printf>
/home/st/桌面/OP-TEE/basicAlg_use/ta/CryptoVerifyTaRsa.c:447
    27e2:	4b9c      	ldr	r3, [pc, #624]	; (2a54 <g_CryptoTaRsa_rsaVerifyOper+0x2c8>)
    27e4:	447b      	add	r3, pc
    27e6:	9300      	str	r3, [sp, #0]
    27e8:	f04f 0300 	mov.w	r3, #0
    27ec:	f04f 0200 	mov.w	r2, #0
    27f0:	f04f 0100 	mov.w	r1, #0
    27f4:	f04f 0000 	mov.w	r0, #0
    27f8:	f007 fd56 	bl	a2a8 <trace_printf>
/home/st/桌面/OP-TEE/basicAlg_use/ta/CryptoVerifyTaRsa.c:448
    27fc:	6d79      	ldr	r1, [r7, #84]	; 0x54
    27fe:	6cf8      	ldr	r0, [r7, #76]	; 0x4c
    2800:	f7ff f87e 	bl	1900 <g_TA_Printf>
/home/st/桌面/OP-TEE/basicAlg_use/ta/CryptoVerifyTaRsa.c:450
    2804:	f107 0204 	add.w	r2, r7, #4
    2808:	6dbb      	ldr	r3, [r7, #88]	; 0x58
    280a:	9300      	str	r3, [sp, #0]
    280c:	4613      	mov	r3, r2
    280e:	f04f 024d 	mov.w	r2, #77	; 0x4d
    2812:	4991      	ldr	r1, [pc, #580]	; (2a58 <g_CryptoTaRsa_rsaVerifyOper+0x2cc>)
    2814:	4479      	add	r1, pc
    2816:	f04f 0001 	mov.w	r0, #1
    281a:	f7fe faf3 	bl	e04 <g_CryptoTaHash_sha>
/home/st/桌面/OP-TEE/basicAlg_use/ta/CryptoVerifyTaRsa.c:451
    281e:	4b8f      	ldr	r3, [pc, #572]	; (2a5c <g_CryptoTaRsa_rsaVerifyOper+0x2d0>)
    2820:	447b      	add	r3, pc
    2822:	9300      	str	r3, [sp, #0]
    2824:	f04f 0300 	mov.w	r3, #0
    2828:	f04f 0200 	mov.w	r2, #0
    282c:	f04f 0100 	mov.w	r1, #0
    2830:	f04f 0000 	mov.w	r0, #0
    2834:	f007 fd38 	bl	a2a8 <trace_printf>
/home/st/桌面/OP-TEE/basicAlg_use/ta/CryptoVerifyTaRsa.c:452
    2838:	6dbb      	ldr	r3, [r7, #88]	; 0x58
    283a:	681a      	ldr	r2, [r3, #0]
    283c:	f107 0304 	add.w	r3, r7, #4
    2840:	4611      	mov	r1, r2
    2842:	4618      	mov	r0, r3
    2844:	f7ff f85c 	bl	1900 <g_TA_Printf>
/home/st/桌面/OP-TEE/basicAlg_use/ta/CryptoVerifyTaRsa.c:453
    2848:	6dbb      	ldr	r3, [r7, #88]	; 0x58
    284a:	f04f 0200 	mov.w	r2, #0
    284e:	601a      	str	r2, [r3, #0]
/home/st/桌面/OP-TEE/basicAlg_use/ta/CryptoVerifyTaRsa.c:456
    2850:	4669      	mov	r1, sp
    2852:	f107 0240 	add.w	r2, r7, #64	; 0x40
    2856:	e9d2 3400 	ldrd	r3, r4, [r2]
    285a:	e9c1 3400 	strd	r3, r4, [r1]
    285e:	6893      	ldr	r3, [r2, #8]
    2860:	608b      	str	r3, [r1, #8]
    2862:	f107 0330 	add.w	r3, r7, #48	; 0x30
    2866:	cb0f      	ldmia	r3, {r0, r1, r2, r3}
    2868:	f7ff fbfc 	bl	2064 <l_CryptoTaRsa_SetRsaPublicKey>
    286c:	61f8      	str	r0, [r7, #28]
/home/st/桌面/OP-TEE/basicAlg_use/ta/CryptoVerifyTaRsa.c:457
    286e:	69fb      	ldr	r3, [r7, #28]
    2870:	f1b3 3fff 	cmp.w	r3, #4294967295	; 0xffffffff
    2874:	d10d      	bne.n	2892 <g_CryptoTaRsa_rsaVerifyOper+0x106>
/home/st/桌面/OP-TEE/basicAlg_use/ta/CryptoVerifyTaRsa.c:459
    2876:	4b7a      	ldr	r3, [pc, #488]	; (2a60 <g_CryptoTaRsa_rsaVerifyOper+0x2d4>)
    2878:	447b      	add	r3, pc
    287a:	9300      	str	r3, [sp, #0]
    287c:	f04f 0300 	mov.w	r3, #0
    2880:	f04f 0200 	mov.w	r2, #0
    2884:	f04f 0100 	mov.w	r1, #0
    2888:	f04f 0000 	mov.w	r0, #0
    288c:	f007 fd0c 	bl	a2a8 <trace_printf>
/home/st/桌面/OP-TEE/basicAlg_use/ta/CryptoVerifyTaRsa.c:460
    2890:	e0cf      	b.n	2a32 <g_CryptoTaRsa_rsaVerifyOper+0x2a6>
/home/st/桌面/OP-TEE/basicAlg_use/ta/CryptoVerifyTaRsa.c:464
    2892:	6cb9      	ldr	r1, [r7, #72]	; 0x48
    2894:	4b73      	ldr	r3, [pc, #460]	; (2a64 <g_CryptoTaRsa_rsaVerifyOper+0x2d8>)
    2896:	447b      	add	r3, pc
    2898:	681b      	ldr	r3, [r3, #0]
    289a:	f04f 0203 	mov.w	r2, #3
    289e:	4872      	ldr	r0, [pc, #456]	; (2a68 <g_CryptoTaRsa_rsaVerifyOper+0x2dc>)
    28a0:	4478      	add	r0, pc
    28a2:	f000 fc9b 	bl	31dc <TEE_AllocateOperation>
    28a6:	61b8      	str	r0, [r7, #24]
/home/st/桌面/OP-TEE/basicAlg_use/ta/CryptoVerifyTaRsa.c:465
    28a8:	69bb      	ldr	r3, [r7, #24]
    28aa:	2b00      	cmp	r3, #0
    28ac:	d012      	beq.n	28d4 <g_CryptoTaRsa_rsaVerifyOper+0x148>
/home/st/桌面/OP-TEE/basicAlg_use/ta/CryptoVerifyTaRsa.c:467
    28ae:	69bb      	ldr	r3, [r7, #24]
    28b0:	9301      	str	r3, [sp, #4]
    28b2:	4b6e      	ldr	r3, [pc, #440]	; (2a6c <g_CryptoTaRsa_rsaVerifyOper+0x2e0>)
    28b4:	447b      	add	r3, pc
    28b6:	9300      	str	r3, [sp, #0]
    28b8:	f04f 0300 	mov.w	r3, #0
    28bc:	f04f 0200 	mov.w	r2, #0
    28c0:	f04f 0100 	mov.w	r1, #0
    28c4:	f04f 0000 	mov.w	r0, #0
    28c8:	f007 fcee 	bl	a2a8 <trace_printf>
/home/st/桌面/OP-TEE/basicAlg_use/ta/CryptoVerifyTaRsa.c:468
    28cc:	f04f 33ff 	mov.w	r3, #4294967295	; 0xffffffff
    28d0:	61fb      	str	r3, [r7, #28]
/home/st/桌面/OP-TEE/basicAlg_use/ta/CryptoVerifyTaRsa.c:469
    28d2:	e0ae      	b.n	2a32 <g_CryptoTaRsa_rsaVerifyOper+0x2a6>
/home/st/桌面/OP-TEE/basicAlg_use/ta/CryptoVerifyTaRsa.c:473
    28d4:	4b66      	ldr	r3, [pc, #408]	; (2a70 <g_CryptoTaRsa_rsaVerifyOper+0x2e4>)
    28d6:	447b      	add	r3, pc
    28d8:	681b      	ldr	r3, [r3, #0]
    28da:	4a66      	ldr	r2, [pc, #408]	; (2a74 <g_CryptoTaRsa_rsaVerifyOper+0x2e8>)
    28dc:	447a      	add	r2, pc
    28de:	6812      	ldr	r2, [r2, #0]
    28e0:	4611      	mov	r1, r2
    28e2:	4618      	mov	r0, r3
    28e4:	f001 fa7a 	bl	3ddc <TEE_SetOperationKey>
    28e8:	61b8      	str	r0, [r7, #24]
/home/st/桌面/OP-TEE/basicAlg_use/ta/CryptoVerifyTaRsa.c:474
    28ea:	69bb      	ldr	r3, [r7, #24]
    28ec:	2b00      	cmp	r3, #0
    28ee:	d012      	beq.n	2916 <g_CryptoTaRsa_rsaVerifyOper+0x18a>
/home/st/桌面/OP-TEE/basicAlg_use/ta/CryptoVerifyTaRsa.c:476
    28f0:	69bb      	ldr	r3, [r7, #24]
    28f2:	9301      	str	r3, [sp, #4]
    28f4:	4b60      	ldr	r3, [pc, #384]	; (2a78 <g_CryptoTaRsa_rsaVerifyOper+0x2ec>)
    28f6:	447b      	add	r3, pc
    28f8:	9300      	str	r3, [sp, #0]
    28fa:	f04f 0300 	mov.w	r3, #0
    28fe:	f04f 0200 	mov.w	r2, #0
    2902:	f04f 0100 	mov.w	r1, #0
    2906:	f04f 0000 	mov.w	r0, #0
    290a:	f007 fccd 	bl	a2a8 <trace_printf>
/home/st/桌面/OP-TEE/basicAlg_use/ta/CryptoVerifyTaRsa.c:477
    290e:	f04f 33ff 	mov.w	r3, #4294967295	; 0xffffffff
    2912:	61fb      	str	r3, [r7, #28]
/home/st/桌面/OP-TEE/basicAlg_use/ta/CryptoVerifyTaRsa.c:478
    2914:	e081      	b.n	2a1a <g_CryptoTaRsa_rsaVerifyOper+0x28e>
/home/st/桌面/OP-TEE/basicAlg_use/ta/CryptoVerifyTaRsa.c:481
    2916:	6bfa      	ldr	r2, [r7, #60]	; 0x3c
    2918:	6dbb      	ldr	r3, [r7, #88]	; 0x58
    291a:	601a      	str	r2, [r3, #0]
/home/st/桌面/OP-TEE/basicAlg_use/ta/CryptoVerifyTaRsa.c:483
    291c:	4b57      	ldr	r3, [pc, #348]	; (2a7c <g_CryptoTaRsa_rsaVerifyOper+0x2f0>)
    291e:	447b      	add	r3, pc
    2920:	6818      	ldr	r0, [r3, #0]
    2922:	f107 0204 	add.w	r2, r7, #4
    2926:	6d7b      	ldr	r3, [r7, #84]	; 0x54
    2928:	9302      	str	r3, [sp, #8]
    292a:	6cfb      	ldr	r3, [r7, #76]	; 0x4c
    292c:	9301      	str	r3, [sp, #4]
    292e:	f04f 0314 	mov.w	r3, #20
    2932:	9300      	str	r3, [sp, #0]
    2934:	4613      	mov	r3, r2
    2936:	f04f 0200 	mov.w	r2, #0
    293a:	f04f 0100 	mov.w	r1, #0
    293e:	f003 f841 	bl	59c4 <TEE_AsymmetricVerifyDigest>
    2942:	61b8      	str	r0, [r7, #24]
/home/st/桌面/OP-TEE/basicAlg_use/ta/CryptoVerifyTaRsa.c:484
    2944:	69bb      	ldr	r3, [r7, #24]
    2946:	9301      	str	r3, [sp, #4]
    2948:	4b4d      	ldr	r3, [pc, #308]	; (2a80 <g_CryptoTaRsa_rsaVerifyOper+0x2f4>)
    294a:	447b      	add	r3, pc
    294c:	9300      	str	r3, [sp, #0]
    294e:	f04f 0300 	mov.w	r3, #0
    2952:	f04f 0200 	mov.w	r2, #0
    2956:	f04f 0100 	mov.w	r1, #0
    295a:	f04f 0000 	mov.w	r0, #0
    295e:	f007 fca3 	bl	a2a8 <trace_printf>
/home/st/桌面/OP-TEE/basicAlg_use/ta/CryptoVerifyTaRsa.c:485
    2962:	69bb      	ldr	r3, [r7, #24]
    2964:	2b00      	cmp	r3, #0
    2966:	d02c      	beq.n	29c2 <g_CryptoTaRsa_rsaVerifyOper+0x236>
/home/st/桌面/OP-TEE/basicAlg_use/ta/CryptoVerifyTaRsa.c:487
    2968:	4b46      	ldr	r3, [pc, #280]	; (2a84 <g_CryptoTaRsa_rsaVerifyOper+0x2f8>)
    296a:	447b      	add	r3, pc
    296c:	9300      	str	r3, [sp, #0]
    296e:	f04f 0300 	mov.w	r3, #0
    2972:	f04f 0200 	mov.w	r2, #0
    2976:	f04f 0100 	mov.w	r1, #0
    297a:	f04f 0000 	mov.w	r0, #0
    297e:	f007 fc93 	bl	a2a8 <trace_printf>
/home/st/桌面/OP-TEE/basicAlg_use/ta/CryptoVerifyTaRsa.c:488
    2982:	f04f 030d 	mov.w	r3, #13
    2986:	9301      	str	r3, [sp, #4]
    2988:	4b3f      	ldr	r3, [pc, #252]	; (2a88 <g_CryptoTaRsa_rsaVerifyOper+0x2fc>)
    298a:	447b      	add	r3, pc
    298c:	9300      	str	r3, [sp, #0]
    298e:	f04f 0300 	mov.w	r3, #0
    2992:	f04f 0200 	mov.w	r2, #0
    2996:	f04f 0100 	mov.w	r1, #0
    299a:	f04f 0000 	mov.w	r0, #0
    299e:	f007 fc83 	bl	a2a8 <trace_printf>
/home/st/桌面/OP-TEE/basicAlg_use/ta/CryptoVerifyTaRsa.c:489
    29a2:	6dbb      	ldr	r3, [r7, #88]	; 0x58
    29a4:	f04f 020d 	mov.w	r2, #13
    29a8:	601a      	str	r2, [r3, #0]
/home/st/桌面/OP-TEE/basicAlg_use/ta/CryptoVerifyTaRsa.c:490
    29aa:	f04f 020d 	mov.w	r2, #13
    29ae:	4b37      	ldr	r3, [pc, #220]	; (2a8c <g_CryptoTaRsa_rsaVerifyOper+0x300>)
    29b0:	447b      	add	r3, pc
    29b2:	4619      	mov	r1, r3
    29b4:	6d38      	ldr	r0, [r7, #80]	; 0x50
    29b6:	f000 fac9 	bl	2f4c <TEE_MemMove>
/home/st/桌面/OP-TEE/basicAlg_use/ta/CryptoVerifyTaRsa.c:491
    29ba:	f04f 33ff 	mov.w	r3, #4294967295	; 0xffffffff
    29be:	61fb      	str	r3, [r7, #28]
    29c0:	e02b      	b.n	2a1a <g_CryptoTaRsa_rsaVerifyOper+0x28e>
/home/st/桌面/OP-TEE/basicAlg_use/ta/CryptoVerifyTaRsa.c:495
    29c2:	4b33      	ldr	r3, [pc, #204]	; (2a90 <g_CryptoTaRsa_rsaVerifyOper+0x304>)
    29c4:	447b      	add	r3, pc
    29c6:	9300      	str	r3, [sp, #0]
    29c8:	f04f 0300 	mov.w	r3, #0
    29cc:	f04f 0200 	mov.w	r2, #0
    29d0:	f04f 0100 	mov.w	r1, #0
    29d4:	f04f 0000 	mov.w	r0, #0
    29d8:	f007 fc66 	bl	a2a8 <trace_printf>
/home/st/桌面/OP-TEE/basicAlg_use/ta/CryptoVerifyTaRsa.c:496
    29dc:	f04f 030b 	mov.w	r3, #11
    29e0:	9301      	str	r3, [sp, #4]
    29e2:	4b2c      	ldr	r3, [pc, #176]	; (2a94 <g_CryptoTaRsa_rsaVerifyOper+0x308>)
    29e4:	447b      	add	r3, pc
    29e6:	9300      	str	r3, [sp, #0]
    29e8:	f04f 0300 	mov.w	r3, #0
    29ec:	f04f 0200 	mov.w	r2, #0
    29f0:	f04f 0100 	mov.w	r1, #0
    29f4:	f04f 0000 	mov.w	r0, #0
    29f8:	f007 fc56 	bl	a2a8 <trace_printf>
/home/st/桌面/OP-TEE/basicAlg_use/ta/CryptoVerifyTaRsa.c:497
    29fc:	6dbb      	ldr	r3, [r7, #88]	; 0x58
    29fe:	f04f 020d 	mov.w	r2, #13
    2a02:	601a      	str	r2, [r3, #0]
/home/st/桌面/OP-TEE/basicAlg_use/ta/CryptoVerifyTaRsa.c:498
    2a04:	f04f 020b 	mov.w	r2, #11
    2a08:	4b23      	ldr	r3, [pc, #140]	; (2a98 <g_CryptoTaRsa_rsaVerifyOper+0x30c>)
    2a0a:	447b      	add	r3, pc
    2a0c:	4619      	mov	r1, r3
    2a0e:	6d38      	ldr	r0, [r7, #80]	; 0x50
    2a10:	f000 fa9c 	bl	2f4c <TEE_MemMove>
/home/st/桌面/OP-TEE/basicAlg_use/ta/CryptoVerifyTaRsa.c:499
    2a14:	f04f 0300 	mov.w	r3, #0
    2a18:	61fb      	str	r3, [r7, #28]
/home/st/桌面/OP-TEE/basicAlg_use/ta/CryptoVerifyTaRsa.c:504
    2a1a:	4b20      	ldr	r3, [pc, #128]	; (2a9c <g_CryptoTaRsa_rsaVerifyOper+0x310>)
    2a1c:	447b      	add	r3, pc
    2a1e:	681b      	ldr	r3, [r3, #0]
    2a20:	4618      	mov	r0, r3
    2a22:	f001 f87b 	bl	3b1c <TEE_FreeOperation>
/home/st/桌面/OP-TEE/basicAlg_use/ta/CryptoVerifyTaRsa.c:505
    2a26:	4b1e      	ldr	r3, [pc, #120]	; (2aa0 <g_CryptoTaRsa_rsaVerifyOper+0x314>)
    2a28:	447b      	add	r3, pc
    2a2a:	461a      	mov	r2, r3
    2a2c:	f04f 0300 	mov.w	r3, #0
    2a30:	6013      	str	r3, [r2, #0]
/home/st/桌面/OP-TEE/basicAlg_use/ta/CryptoVerifyTaRsa.c:507
    2a32:	f7ff fa21 	bl	1e78 <l_CryptoTaRsa_CleanUpPublicHandle>
/home/st/桌面/OP-TEE/basicAlg_use/ta/CryptoVerifyTaRsa.c:508
    2a36:	69fb      	ldr	r3, [r7, #28]
/home/st/桌面/OP-TEE/basicAlg_use/ta/CryptoVerifyTaRsa.c:509
    2a38:	4618      	mov	r0, r3
    2a3a:	f107 0724 	add.w	r7, r7, #36	; 0x24
    2a3e:	46bd      	mov	sp, r7
    2a40:	e9dd 4700 	ldrd	r4, r7, [sp]
    2a44:	b002      	add	sp, #8
    2a46:	f85d eb04 	ldr.w	lr, [sp], #4
    2a4a:	b004      	add	sp, #16
    2a4c:	4770      	bx	lr
    2a4e:	bf00      	nop
    2a50:	0000eb3a 	.word	0x0000eb3a
    2a54:	0000eb3c 	.word	0x0000eb3c
    2a58:	00012cd0 	.word	0x00012cd0
    2a5c:	0000eab0 	.word	0x0000eab0
    2a60:	0000ead0 	.word	0x0000ead0
    2a64:	00012d3e 	.word	0x00012d3e
    2a68:	00012d30 	.word	0x00012d30
    2a6c:	0000eac4 	.word	0x0000eac4
    2a70:	00012cfa 	.word	0x00012cfa
    2a74:	00012cfc 	.word	0x00012cfc
    2a78:	0000eaca 	.word	0x0000eaca
    2a7c:	00012cb2 	.word	0x00012cb2
    2a80:	0000eaae 	.word	0x0000eaae
    2a84:	0000eab6 	.word	0x0000eab6
    2a88:	0000e962 	.word	0x0000e962
    2a8c:	0000ea80 	.word	0x0000ea80
    2a90:	0000ea7c 	.word	0x0000ea7c
    2a94:	0000e908 	.word	0x0000e908
    2a98:	0000ea4a 	.word	0x0000ea4a
    2a9c:	00012bb4 	.word	0x00012bb4
    2aa0:	00012ba8 	.word	0x00012ba8

00002aa4 <__utee_from_param>:
__utee_from_param():
/home/st/桌面/OP-TEE/optee_os/lib/libutee/tee_api.c:42
    2aa4:	e96d 4702 	strd	r4, r7, [sp, #-8]!
    2aa8:	b086      	sub	sp, #24
    2aaa:	af00      	add	r7, sp, #0
    2aac:	60f8      	str	r0, [r7, #12]
    2aae:	60b9      	str	r1, [r7, #8]
    2ab0:	607a      	str	r2, [r7, #4]
/home/st/桌面/OP-TEE/optee_os/lib/libutee/tee_api.c:45
    2ab2:	68bb      	ldr	r3, [r7, #8]
    2ab4:	f04f 0400 	mov.w	r4, #0
    2ab8:	68fa      	ldr	r2, [r7, #12]
    2aba:	e9c2 3400 	strd	r3, r4, [r2]
/home/st/桌面/OP-TEE/optee_os/lib/libutee/tee_api.c:46
    2abe:	f04f 0300 	mov.w	r3, #0
    2ac2:	617b      	str	r3, [r7, #20]
    2ac4:	e095      	b.n	2bf2 <__utee_from_param+0x14e>
/home/st/桌面/OP-TEE/optee_os/lib/libutee/tee_api.c:47
    2ac6:	697b      	ldr	r3, [r7, #20]
    2ac8:	ea4f 0383 	mov.w	r3, r3, lsl #2
    2acc:	68ba      	ldr	r2, [r7, #8]
    2ace:	fa22 f303 	lsr.w	r3, r2, r3
    2ad2:	f003 030f 	and.w	r3, r3, #15
    2ad6:	f103 33ff 	add.w	r3, r3, #4294967295	; 0xffffffff
    2ada:	2b06      	cmp	r3, #6
    2adc:	d864      	bhi.n	2ba8 <__utee_from_param+0x104>
    2ade:	a202      	add	r2, pc, #8	; (adr r2, 2ae8 <__utee_from_param+0x44>)
    2ae0:	f852 3023 	ldr.w	r3, [r2, r3, lsl #2]
    2ae4:	441a      	add	r2, r3
    2ae6:	4710      	bx	r2
    2ae8:	0000001d 	.word	0x0000001d
    2aec:	0000001d 	.word	0x0000001d
    2af0:	0000001d 	.word	0x0000001d
    2af4:	000000c1 	.word	0x000000c1
    2af8:	0000006f 	.word	0x0000006f
    2afc:	0000006f 	.word	0x0000006f
    2b00:	0000006f 	.word	0x0000006f
/home/st/桌面/OP-TEE/optee_os/lib/libutee/tee_api.c:51
    2b04:	697b      	ldr	r3, [r7, #20]
    2b06:	ea4f 0243 	mov.w	r2, r3, lsl #1
    2b0a:	697b      	ldr	r3, [r7, #20]
    2b0c:	ea4f 03c3 	mov.w	r3, r3, lsl #3
    2b10:	6879      	ldr	r1, [r7, #4]
    2b12:	440b      	add	r3, r1
    2b14:	681b      	ldr	r3, [r3, #0]
    2b16:	f04f 0400 	mov.w	r4, #0
    2b1a:	68f9      	ldr	r1, [r7, #12]
    2b1c:	f102 0201 	add.w	r2, r2, #1
    2b20:	ea4f 02c2 	mov.w	r2, r2, lsl #3
    2b24:	440a      	add	r2, r1
    2b26:	e9c2 3400 	strd	r3, r4, [r2]
/home/st/桌面/OP-TEE/optee_os/lib/libutee/tee_api.c:52
    2b2a:	697b      	ldr	r3, [r7, #20]
    2b2c:	ea4f 0343 	mov.w	r3, r3, lsl #1
    2b30:	f103 0201 	add.w	r2, r3, #1
    2b34:	697b      	ldr	r3, [r7, #20]
    2b36:	ea4f 03c3 	mov.w	r3, r3, lsl #3
    2b3a:	6879      	ldr	r1, [r7, #4]
    2b3c:	440b      	add	r3, r1
    2b3e:	685b      	ldr	r3, [r3, #4]
    2b40:	f04f 0400 	mov.w	r4, #0
    2b44:	68f9      	ldr	r1, [r7, #12]
    2b46:	f102 0201 	add.w	r2, r2, #1
    2b4a:	ea4f 02c2 	mov.w	r2, r2, lsl #3
    2b4e:	440a      	add	r2, r1
    2b50:	e9c2 3400 	strd	r3, r4, [r2]
/home/st/桌面/OP-TEE/optee_os/lib/libutee/tee_api.c:53
    2b54:	e049      	b.n	2bea <__utee_from_param+0x146>
/home/st/桌面/OP-TEE/optee_os/lib/libutee/tee_api.c:57
    2b56:	697b      	ldr	r3, [r7, #20]
    2b58:	ea4f 0243 	mov.w	r2, r3, lsl #1
    2b5c:	697b      	ldr	r3, [r7, #20]
    2b5e:	ea4f 03c3 	mov.w	r3, r3, lsl #3
    2b62:	6879      	ldr	r1, [r7, #4]
    2b64:	440b      	add	r3, r1
    2b66:	681b      	ldr	r3, [r3, #0]
    2b68:	f04f 0400 	mov.w	r4, #0
    2b6c:	68f9      	ldr	r1, [r7, #12]
    2b6e:	f102 0201 	add.w	r2, r2, #1
    2b72:	ea4f 02c2 	mov.w	r2, r2, lsl #3
    2b76:	440a      	add	r2, r1
    2b78:	e9c2 3400 	strd	r3, r4, [r2]
/home/st/桌面/OP-TEE/optee_os/lib/libutee/tee_api.c:58
    2b7c:	697b      	ldr	r3, [r7, #20]
    2b7e:	ea4f 0343 	mov.w	r3, r3, lsl #1
    2b82:	f103 0201 	add.w	r2, r3, #1
    2b86:	697b      	ldr	r3, [r7, #20]
    2b88:	ea4f 03c3 	mov.w	r3, r3, lsl #3
    2b8c:	6879      	ldr	r1, [r7, #4]
    2b8e:	440b      	add	r3, r1
    2b90:	685b      	ldr	r3, [r3, #4]
    2b92:	f04f 0400 	mov.w	r4, #0
    2b96:	68f9      	ldr	r1, [r7, #12]
    2b98:	f102 0201 	add.w	r2, r2, #1
    2b9c:	ea4f 02c2 	mov.w	r2, r2, lsl #3
    2ba0:	440a      	add	r2, r1
    2ba2:	e9c2 3400 	strd	r3, r4, [r2]
/home/st/桌面/OP-TEE/optee_os/lib/libutee/tee_api.c:59
    2ba6:	e020      	b.n	2bea <__utee_from_param+0x146>
/home/st/桌面/OP-TEE/optee_os/lib/libutee/tee_api.c:61
    2ba8:	697b      	ldr	r3, [r7, #20]
    2baa:	ea4f 0343 	mov.w	r3, r3, lsl #1
    2bae:	68fa      	ldr	r2, [r7, #12]
    2bb0:	f103 0301 	add.w	r3, r3, #1
    2bb4:	ea4f 03c3 	mov.w	r3, r3, lsl #3
    2bb8:	441a      	add	r2, r3
    2bba:	f04f 0300 	mov.w	r3, #0
    2bbe:	f04f 0400 	mov.w	r4, #0
    2bc2:	e9c2 3400 	strd	r3, r4, [r2]
/home/st/桌面/OP-TEE/optee_os/lib/libutee/tee_api.c:62
    2bc6:	697b      	ldr	r3, [r7, #20]
    2bc8:	ea4f 0343 	mov.w	r3, r3, lsl #1
    2bcc:	f103 0301 	add.w	r3, r3, #1
    2bd0:	68fa      	ldr	r2, [r7, #12]
    2bd2:	f103 0301 	add.w	r3, r3, #1
    2bd6:	ea4f 03c3 	mov.w	r3, r3, lsl #3
    2bda:	441a      	add	r2, r3
    2bdc:	f04f 0300 	mov.w	r3, #0
    2be0:	f04f 0400 	mov.w	r4, #0
    2be4:	e9c2 3400 	strd	r3, r4, [r2]
/home/st/桌面/OP-TEE/optee_os/lib/libutee/tee_api.c:63
    2be8:	bf00      	nop
/home/st/桌面/OP-TEE/optee_os/lib/libutee/tee_api.c:46 (discriminator 2)
    2bea:	697b      	ldr	r3, [r7, #20]
    2bec:	f103 0301 	add.w	r3, r3, #1
    2bf0:	617b      	str	r3, [r7, #20]
/home/st/桌面/OP-TEE/optee_os/lib/libutee/tee_api.c:46 (discriminator 1)
    2bf2:	697b      	ldr	r3, [r7, #20]
    2bf4:	2b03      	cmp	r3, #3
    2bf6:	f67f af66 	bls.w	2ac6 <__utee_from_param+0x22>
/home/st/桌面/OP-TEE/optee_os/lib/libutee/tee_api.c:66
    2bfa:	bf00      	nop
    2bfc:	f107 0718 	add.w	r7, r7, #24
    2c00:	46bd      	mov	sp, r7
    2c02:	e9dd 4700 	ldrd	r4, r7, [sp]
    2c06:	b002      	add	sp, #8
    2c08:	4770      	bx	lr

00002c0a <__utee_to_param>:
__utee_to_param():
/home/st/桌面/OP-TEE/optee_os/lib/libutee/tee_api.c:70
    2c0a:	e96d 4702 	strd	r4, r7, [sp, #-8]!
    2c0e:	b088      	sub	sp, #32
    2c10:	af00      	add	r7, sp, #0
    2c12:	60f8      	str	r0, [r7, #12]
    2c14:	60b9      	str	r1, [r7, #8]
    2c16:	607a      	str	r2, [r7, #4]
/home/st/桌面/OP-TEE/optee_os/lib/libutee/tee_api.c:72
    2c18:	687b      	ldr	r3, [r7, #4]
    2c1a:	e9d3 3400 	ldrd	r3, r4, [r3]
    2c1e:	61bb      	str	r3, [r7, #24]
/home/st/桌面/OP-TEE/optee_os/lib/libutee/tee_api.c:74
    2c20:	f04f 0300 	mov.w	r3, #0
    2c24:	61fb      	str	r3, [r7, #28]
    2c26:	e05c      	b.n	2ce2 <__utee_to_param+0xd8>
/home/st/桌面/OP-TEE/optee_os/lib/libutee/tee_api.c:75
    2c28:	69fb      	ldr	r3, [r7, #28]
    2c2a:	ea4f 0343 	mov.w	r3, r3, lsl #1
    2c2e:	687a      	ldr	r2, [r7, #4]
    2c30:	f103 0301 	add.w	r3, r3, #1
    2c34:	ea4f 03c3 	mov.w	r3, r3, lsl #3
    2c38:	4413      	add	r3, r2
    2c3a:	e9d3 3400 	ldrd	r3, r4, [r3]
    2c3e:	617b      	str	r3, [r7, #20]
/home/st/桌面/OP-TEE/optee_os/lib/libutee/tee_api.c:76
    2c40:	69fb      	ldr	r3, [r7, #28]
    2c42:	ea4f 0343 	mov.w	r3, r3, lsl #1
    2c46:	f103 0301 	add.w	r3, r3, #1
    2c4a:	687a      	ldr	r2, [r7, #4]
    2c4c:	f103 0301 	add.w	r3, r3, #1
    2c50:	ea4f 03c3 	mov.w	r3, r3, lsl #3
    2c54:	4413      	add	r3, r2
    2c56:	e9d3 3400 	ldrd	r3, r4, [r3]
    2c5a:	613b      	str	r3, [r7, #16]
/home/st/桌面/OP-TEE/optee_os/lib/libutee/tee_api.c:78
    2c5c:	69fb      	ldr	r3, [r7, #28]
    2c5e:	ea4f 0383 	mov.w	r3, r3, lsl #2
    2c62:	69ba      	ldr	r2, [r7, #24]
