
f4e750bb-1437-4fbf-8785-8d3580c34994.elf：     文件格式 elf32-littlearm
f4e750bb-1437-4fbf-8785-8d3580c34994.elf
体系结构：arm， 标志 0x00000150：
HAS_SYMS, DYNAMIC, D_PAGED
起始地址 0x00000020

程序头：
0x70000001 off    0x0001dd04 vaddr 0x0000dd04 paddr 0x0000dd04 align 2**2
         filesz 0x00000930 memsz 0x00000930 flags r--
    LOAD off    0x00010000 vaddr 0x00000000 paddr 0x00000000 align 2**16
         filesz 0x0000b880 memsz 0x0000b880 flags r-x
    LOAD off    0x0001b880 vaddr 0x0000b880 paddr 0x0000b880 align 2**16
         filesz 0x00003098 memsz 0x00003098 flags r--
    LOAD off    0x0001f000 vaddr 0x0000f000 paddr 0x0000f000 align 2**16
         filesz 0x0000009c memsz 0x0000ac30 flags rw-
 DYNAMIC off    0x0001e75c vaddr 0x0000e75c paddr 0x0000e75c align 2**2
         filesz 0x00000080 memsz 0x00000080 flags rw-

动态节：
  HASH                 0x0000e8dc
  STRTAB               0x0000e87c
  SYMTAB               0x0000e7dc
  STRSZ                0x0000005f
  SYMENT               0x00000010
  DEBUG                0x00000000
  REL                  0x0000e65c
  RELSZ                0x00000100
  RELENT               0x00000008
  FLAGS_1              0x08000000
  RELCOUNT             0x00000019
私有标志 = 5000400： [Version5 EABI] [hard-float ABI]

节：
Idx Name          Size      VMA       LMA       File off  Algn
  0 .ta_head      00000020  00000000  00000000  00010000  2**3
                  CONTENTS, ALLOC, LOAD, DATA
  1 .text         0000b860  00000020  00000020  00010020  2**2
                  CONTENTS, ALLOC, LOAD, READONLY, CODE
  2 .rodata       00001808  0000b880  0000b880  0001b880  2**2
                  CONTENTS, ALLOC, LOAD, READONLY, DATA
  3 .ARM.extab    00000c64  0000d088  0000d088  0001d088  2**2
                  CONTENTS, ALLOC, LOAD, READONLY, DATA
  4 .ARM.extab.text.__aeabi_ldivmod 0000000c  0000dcec  0000dcec  0001dcec  2**2
                  CONTENTS, ALLOC, LOAD, READONLY, DATA
  5 .ARM.extab.text.__aeabi_uldivmod 0000000c  0000dcf8  0000dcf8  0001dcf8  2**2
                  CONTENTS, ALLOC, LOAD, READONLY, DATA
  6 .ARM.exidx    00000930  0000dd04  0000dd04  0001dd04  2**2
                  CONTENTS, ALLOC, LOAD, READONLY, DATA
  7 .got          00000028  0000e634  0000e634  0001e634  2**2
                  CONTENTS, ALLOC, LOAD, DATA
  8 .dynsym       000000a0  0000e7dc  0000e7dc  0001e7dc  2**2
                  CONTENTS, ALLOC, LOAD, READONLY, DATA
  9 .rel.got      00000038  0000e724  0000e724  0001e724  2**2
                  CONTENTS, ALLOC, LOAD, READONLY, DATA
 10 .dynamic      00000080  0000e75c  0000e75c  0001e75c  2**2
                  CONTENTS, ALLOC, LOAD, DATA
 11 .dynstr       0000005f  0000e87c  0000e87c  0001e87c  2**0
                  CONTENTS, ALLOC, LOAD, READONLY, DATA
 12 .hash         0000003c  0000e8dc  0000e8dc  0001e8dc  2**2
                  CONTENTS, ALLOC, LOAD, READONLY, DATA
 13 .data         0000009c  0000f000  0000f000  0001f000  2**2
                  CONTENTS, ALLOC, LOAD, DATA
 14 .bss          0000ab94  0000f09c  0000f09c  0001f09c  2**2
                  ALLOC
 15 .debug_info   0000a9a1  00000000  00000000  0001f09c  2**0
                  CONTENTS, READONLY, DEBUGGING
 16 .debug_abbrev 000030d7  00000000  00000000  00029a3d  2**0
                  CONTENTS, READONLY, DEBUGGING
 17 .debug_aranges 00000548  00000000  00000000  0002cb18  2**3
                  CONTENTS, READONLY, DEBUGGING
 18 .debug_macro  00005869  00000000  00000000  0002d060  2**0
                  CONTENTS, READONLY, DEBUGGING
 19 .debug_line   000067dc  00000000  00000000  000328c9  2**0
                  CONTENTS, READONLY, DEBUGGING
 20 .debug_str    00010a12  00000000  00000000  000390a5  2**0
                  CONTENTS, READONLY, DEBUGGING
 21 .comment      0000002d  00000000  00000000  00049ab7  2**0
                  CONTENTS, READONLY
 22 .ARM.attributes 00000038  00000000  00000000  00049ae4  2**0
                  CONTENTS, READONLY
 23 .debug_frame  00002e80  00000000  00000000  00049b1c  2**2
                  CONTENTS, READONLY, DEBUGGING
 24 .rel.dyn      000000c8  0000e65c  0000e65c  0001e65c  2**2
                  CONTENTS, ALLOC, LOAD, READONLY, DATA
 25 .debug_ranges 00000020  00000000  00000000  0004c9a0  2**3
                  CONTENTS, READONLY, DEBUGGING
SYMBOL TABLE:
00000000 l    d  .ta_head	00000000 .ta_head
00000020 l    d  .text	00000000 .text
0000b880 l    d  .rodata	00000000 .rodata
0000d088 l    d  .ARM.extab	00000000 .ARM.extab
0000dcec l    d  .ARM.extab.text.__aeabi_ldivmod	00000000 .ARM.extab.text.__aeabi_ldivmod
0000dcf8 l    d  .ARM.extab.text.__aeabi_uldivmod	00000000 .ARM.extab.text.__aeabi_uldivmod
0000dd04 l    d  .ARM.exidx	00000000 .ARM.exidx
0000e634 l    d  .got	00000000 .got
0000e724 l    d  .rel.got	00000000 .rel.got
0000e75c l    d  .dynamic	00000000 .dynamic
0000e7dc l    d  .dynsym	00000000 .dynsym
0000e87c l    d  .dynstr	00000000 .dynstr
0000e8dc l    d  .hash	00000000 .hash
0000f000 l    d  .data	00000000 .data
0000f09c l    d  .bss	00000000 .bss
00000000 l    d  .debug_info	00000000 .debug_info
00000000 l    d  .debug_abbrev	00000000 .debug_abbrev
00000000 l    d  .debug_aranges	00000000 .debug_aranges
00000000 l    d  .debug_macro	00000000 .debug_macro
00000000 l    d  .debug_line	00000000 .debug_line
00000000 l    d  .debug_str	00000000 .debug_str
00000000 l    d  .comment	00000000 .comment
00000000 l    d  .ARM.attributes	00000000 .ARM.attributes
00000000 l    d  .debug_frame	00000000 .debug_frame
0000e65c l    d  .rel.dyn	00000000 .rel.dyn
00000000 l    d  .debug_ranges	00000000 .debug_ranges
00000000 l    df *ABS*	00000000 user_ta_header.c
0000b9f4 l     O .rodata	00000001 __compound_literal.0
0000b9f5 l     O .rodata	00000001 __compound_literal.1
0000b9f6 l     O .rodata	00000001 __compound_literal.2
0000b9f8 l     O .rodata	00000004 __compound_literal.3
0000b9fc l     O .rodata	00000004 __compound_literal.4
0000ba00 l     O .rodata	00000004 __compound_literal.5
00000000 l    df *ABS*	00000000 secure_storage_ta.c
00000020 l     F .text	000000bc delete_object
0000b998 l     O .rodata	0000000e __func__.6132
000000dc l     F .text	0000015c create_raw_object
0000b9a8 l     O .rodata	00000012 __func__.6145
00000238 l     F .text	000001e0 read_raw_object
0000b9bc l     O .rodata	00000010 __func__.6159
0000b9cc l     O .rodata	0000001b __func__.6185
00000000 l    df *ABS*	00000000 tee_api.c
0000bb24 l     O .rodata	00000004 DEFAULT_TEE_MALLOC_HINT
0001709c l     O .bss	00000004 tee_api_instance_data
00000000 l    df *ABS*	00000000 user_ta_entry.c
00000c28 l     F .text	00000010 __utee_gprof_init
00000c38 l     F .text	00000010 __utee_gprof_fini
0000f074 l     O .data	00000008 ta_sessions
000170c4 l     O .bss	00000004 ta_ref_count
000170c8 l     O .bss	00000001 context_init
00000c48 l     F .text	00000058 ta_header_save_params
00000ca0 l     F .text	00000044 ta_header_get_session
00000ce4 l     F .text	00000128 ta_header_add_session
00000e0c l     F .text	0000009c ta_header_remove_session
00000ea8 l     F .text	0000008e entry_open_session
00000f36 l     F .text	00000040 entry_close_session
00000f76 l     F .text	00000070 entry_invoke_command
00000000 l    df *ABS*	00000000 utee_syscalls_a32.o
00000000 l    df *ABS*	00000000 gprof_a32.o
00000000 l    df *ABS*	00000000 tee_user_mem.c
0000bb28 l     O .rodata	00000004 DEFAULT_TEE_MALLOC_HINT
0000f07c l     O .data	00000004 ARTIST
0000bb2c l     O .rodata	00000004 CANARY_LINE_SIZE
00001678 l     F .text	0000001e buf_addr
00001696 l     F .text	00000028 buf_size
000016be l     F .text	0000001e elem_addr
000016dc l     F .text	00000048 is_buffer_valid
00001724 l     F .text	00000068 print_buf
000170cc l     O .bss	00000004 heap_level
000170d0 l     O .bss	00000008 global_stats
0000178c l     F .text	00000060 heap_inc
000017ec l     F .text	00000064 heap_dec
00001850 l     F .text	00000064 check_elem_end
0000bc2c l     O .rodata	0000000f __func__.6246
000018b4 l     F .text	000000dc check_elem
0000bc3c l     O .rodata	0000000b __func__.6251
00001990 l     F .text	00000060 is_mem_coherent
0000bc48 l     O .rodata	00000010 __func__.6256
0000bc58 l     O .rodata	00000013 __func__.6271
0000bc6c l     O .rodata	00000012 __func__.6288
0000bc80 l     O .rodata	00000018 __func__.6296
00001d88 l     F .text	00000068 tee_user_mem_status
0000bc98 l     O .rodata	00000014 __func__.6301
00000000 l    df *ABS*	00000000 assert.c
00000000 l    df *ABS*	00000000 tee_api_arith.c
000170d8 l     O .bss	00001b00 mempool_u32
0000f088 l     O .data	00000004 mempool
00001e88 l     F .text	00000028 TEE_BigInt_Panic
00000000 l    df *ABS*	00000000 trace_ext.c
00000000 l    df *ABS*	00000000 bget_malloc.c
0000297c l     F .text	00000014 malloc_lock
00002990 l     F .text	00000018 malloc_unlock
000029a8 l     F .text	0000001a tag_asan_free
000029c2 l     F .text	0000001a tag_asan_alloced
000029dc l     F .text	00000024 memset_unchecked
0000f08c l     O .data	00000010 freelist
00018bd8 l     O .bss	00000004 totalloc
00018bdc l     O .bss	00000004 numget
00018be0 l     O .bss	00000004 numrel
0000c13c l     O .rodata	00000005 __func__.5667
0000c144 l     O .rodata	00000006 __func__.5681
0000c14c l     O .rodata	00000006 __func__.5689
0000c154 l     O .rodata	00000005 __func__.5696
0000c15c l     O .rodata	00000006 __func__.5704
0000c164 l     O .rodata	00000007 __func__.5713
00018be4 l     O .bss	00000004 malloc_pool
00018be8 l     O .bss	00000004 malloc_pool_len
00018bec l     O .bss	00000038 mstats
000032d8 l     F .text	0000009c raw_malloc_return_hook
00003418 l     F .text	00000010 raw_malloc_validate_pools
00003428 l     F .text	00000030 bpool_foreach_iterator_init
00003458 l     F .text	000000d8 bpool_foreach_pool
0000c16c l     O .rodata	00000013 __func__.5752
00003530 l     F .text	00000080 bpool_foreach
000035b0 l     F .text	0000005e raw_malloc
0000360e l     F .text	00000024 raw_free
00003632 l     F .text	00000070 raw_calloc
000036a2 l     F .text	00000060 raw_realloc
00003702 l     F .text	0000015e create_free_block
0000c180 l     O .rodata	00000012 __func__.5799
00003860 l     F .text	0000015c brel_before
0000c194 l     O .rodata	0000000c __func__.5808
000039bc l     F .text	00000220 brel_after
0000c1a0 l     O .rodata	0000000b __func__.5818
00003bdc l     F .text	00000148 raw_memalign
0000c1ac l     O .rodata	0000000d __func__.5832
00003d24 l     F .text	0000005c bget_buf_size
0000c1bc l     O .rodata	0000000e __func__.5838
00003e0e l     F .text	00000028 realloc_unlocked
00003e9a l     F .text	00000026 get_payload_start_size
0000c1cc l     O .rodata	00000010 __func__.5884
00000000 l    df *ABS*	00000000 snprintk.c
0000c1dc l     O .rodata	00000011 hexdigits
0000c1f0 l     O .rodata	00000011 HEXDIGITS
0000431c l     F .text	00000df4 kprintf
0000427e l     F .text	0000009e uuid2str
00000000 l    df *ABS*	00000000 trace.c
0000517c l     F .text	0000005c trace_level_to_string
0000c284 l     O .rodata	0000002d lvl_strs.5538
00000000 l    df *ABS*	00000000 arm32_aeabi_ldivmod_a32.o
00000000 l    df *ABS*	00000000 mpa_misc.c
00000000 l    df *ABS*	00000000 mpa_montgomery.c
00000000 l    df *ABS*	00000000 mpa_primetest.c
0000cf1c l     O .rodata	000000b8 const_small_prime_factors
0000cfd4 l     O .rodata	00000010 const_miller_rabin_proof_limit
0000cfe4 l     O .rodata	0000000c const_two
00005ce4 l     F .text	0000009a is_small_prime
00005d7e l     F .text	00000062 has_small_factors
00005de0 l     F .text	000002c4 primality_test_miller_rabin
00005caa l     F .text	0000003a check_table
0000cff0 l     O .rodata	0000001c proof_a.5919
00000000 l    df *ABS*	00000000 mpa_random.c
00018c24 l     O .bss	00000004 get_rng_array
000060cc l     F .text	00000034 get_random_byte
00000000 l    df *ABS*	00000000 mpa_expmod.c
00000000 l    df *ABS*	00000000 mpa_io.c
00006438 l     F .text	00000042 __mpa_isspace
0000647a l     F .text	00000084 __mpa_is_char_in_base
000064fe l     F .text	00000058 __mpa_digit_value
00006556 l     F .text	00000022 __mpa_digitstr_to_binary_wsize_base_16
00006578 l     F .text	00000050 __mpa_nibble_to_char
000065c8 l     F .text	00000066 __mpa_word_to_hexstr
0000662e l     F .text	00000128 __mpa_mpanum_to_hexstr
00006756 l     F .text	00000050 __mpa_count_leading_zero_bits
000067a6 l     F .text	00000064 __mpa_size_in_base_255
0000d070 l     O .rodata	0000000c __func__.5993
00018c28 l     O .bss	00001002 buf.5979
0000d07c l     O .rodata	0000000c __func__.6007
00006be0 l     F .text	00000064 set_word
00006d30 l     F .text	00000044 get_word
00000000 l    df *ABS*	00000000 tee_api_objects.c
00000000 l    df *ABS*	00000000 tee_api_panic.c
00000000 l    df *ABS*	00000000 utee_misc.c
00000000 l    df *ABS*	00000000 snprintf.c
00000000 l    df *ABS*	00000000 memcmp.c
00000000 l    df *ABS*	00000000 memcpy.c
00000000 l    df *ABS*	00000000 memmove.c
00000000 l    df *ABS*	00000000 memset.c
00000000 l    df *ABS*	00000000 strlen.c
00000000 l    df *ABS*	00000000 aeabi_unwind.c
00000000 l    df *ABS*	00000000 memchr.c
00000000 l    df *ABS*	00000000 arm32_aeabi_ldivmod.c
000085f8 l     F .text	000000ee division_lqr
000086e6 l     F .text	0000006a ul_div_qr
00000000 l    df *ABS*	00000000 mpa_conv.c
00000000 l    df *ABS*	00000000 mpa_div.c
000089ee l     F .text	000000d8 __mpa_soft_div
00008b1e l     F .text	0000061a __mpa_div_q_r_internal
00000000 l    df *ABS*	00000000 mpa_gcd.c
0000948a l     F .text	000000f4 __mpa_divby2
0000957e l     F .text	000002c8 __mpa_egcd
00009846 l     F .text	0000015a __mpa_gcd
00000000 l    df *ABS*	00000000 mpa_mem_static.c
00000000 l    df *ABS*	00000000 mpa_mul.c
00000000 l    df *ABS*	00000000 mpa_shift.c
00000000 l    df *ABS*	00000000 mpa_addsub.c
00000000 l    df *ABS*	00000000 mpa_cmp.c
00000000 l    df *ABS*	00000000 mpa_init.c
00000000 l    df *ABS*	00000000 mpa_modulus.c
00000000 l    df *ABS*	00000000 
0000e75c l     O *ABS*	00000000 _DYNAMIC
0000e634 l     O *ABS*	00000000 _GLOBAL_OFFSET_TABLE_
000015f0 g     F .text	00000018 utee_se_channel_transmit
00002944 g     F .text	00000038 putchar
0000b594 g     F .text	0000004c mpa_init_static
0000743a g     F .text	0000012e TEE_PopulateTransientObject
00005590 g     F .text	00000048 mpa_copy
00002744 g     F .text	0000004c TEE_BigIntConvertToFMM
000025a4 g     F .text	00000024 TEE_BigIntSquareMod
00002184 g     F .text	0000002a TEE_BigIntShiftRight
000088f4 g     F .text	00000096 mpa_get_S32
0000560a g     F .text	00000080 mpa_highest_bit_index
000013e0 g     F .text	00000018 utee_storage_obj_create
000087c2 g     F .text	000000e6 __l_divmod
000015b4 g     F .text	00000014 utee_se_session_close
00001060 g     F .text	00000014 utee_return
00001510 g     F .text	00000014 utee_se_service_get_readers
00000b80 g     F .text	00000020 TEE_Realloc
00009138 g     F .text	00000132 __mpa_div_q_r_internal_word
00001b38 g     F .text	000000ac tee_user_mem_realloc
0000ae50 g     F .text	00000202 mpa_sub
000028a4 g     F .text	00000068 printf
00001be4 g     F .text	00000110 tee_user_mem_free
00001074 g     F .text	00000014 utee_log
0000c2e0 g     O .rodata	00000004 NR_STORED_PRIMES
00007568 g     F .text	0000004c TEE_InitRefAttribute
000007e6 g     F .text	00000090 TEE_InvokeTACommand
000056f4 g     F .text	00000032 mpa_can_hold
00009fcc g     F .text	000000ae __mpa_abs_mul_word
00005c08 g     F .text	0000004c mpa_montgomery_mul
000041de g     F .text	0000002e vsnprintk
00005726 g     F .text	0000002a mpa_parity
000081d0 g     F .text	0000013e memmove
0000a92c g     F .text	00000064 __mpa_full_adder_ackum
00007fbc g     F .text	0000003c snprintf
00002160 g     F .text	00000024 TEE_BigIntCmpS32
000075b4 g     F .text	0000004c TEE_InitValueAttribute
000084b4 g     F .text	00000010 __aeabi_unwind_cpp_pr0
00002200 g     F .text	00000038 TEE_BigIntAdd
000010b4 g     F .text	00000014 utee_get_property_name_to_index
0000b9f0 g     O .rodata	00000004 ta_heap_size
0000c2dc g     O .rodata	00000004 MAX_TABULATED_PRIME
000073da g     F .text	00000060 TEE_ResetTransientObject
00007f26 g     F .text	0000001c utee_malloc
00001198 g     F .text	00000018 utee_cryp_state_alloc
00001368 g     F .text	00000018 utee_authenc_enc_final
00009f44 g     F .text	00000088 __mpa_mul_add_word_cum
00002270 g     F .text	00000026 TEE_BigIntNeg
000093b4 g     F .text	000000d6 mpa_div
00000020 g       .text	00000000 __text_start
00007b86 g     F .text	0000005a TEE_StartPersistentObjectEnumerator
0000c2d0 g     O .rodata	0000000c const_one
000040e6 g     F .text	000000c2 malloc_buffer_overlaps_heap
0000b43c g     F .text	00000026 __mpa_abs_less_than
00002464 g     F .text	00000084 TEE_BigIntSubMod
00006100 g     F .text	0000013c mpa_get_random
00007f9c g     F .text	00000020 get_rng_array
000051d8 g     F .text	000002ec trace_printf
000014e8 g     F .text	00000014 utee_se_service_open
000080de g     F .text	000000f2 memcpy
000011c4 g     F .text	00000014 utee_cryp_state_free
0000555c g     F .text	00000034 mpa_wipe
00002790 g     F .text	00000090 TEE_BigIntConvertFromFMM
00007ef8 g     F .text	0000001a TEE_Panic
000015dc g     F .text	00000014 utee_se_channel_get_select_resp
000054fc g     F .text	00000018 __aeabi_uldivmod
0000290c g     F .text	00000038 puts
00002820 g     F .text	0000004c TEE_BigIntComputeFMM
0000898a g     F .text	00000032 mpa_set_word
000033d4 g     F .text	00000044 malloc_get_stats
0000a45a g     F .text	00000228 mpa_shift_left
00001244 g     F .text	00000018 utee_cipher_final
0000a186 g     F .text	000000c4 mpa_mul
00000b34 g     F .text	0000002c TEE_GetREETime
00007ac2 g     F .text	00000060 TEE_AllocatePersistentObjectEnumerator
0000f004 g     O .data	0000006c ta_props
00003d80 g     F .text	00000032 malloc
000012ac g     F .text	00000014 utee_cryp_obj_close
0000154c g     F .text	00000014 utee_se_reader_open_session
00007ff8 g     F .text	0000002e vsnprintf
00007704 g     F .text	000000f0 TEE_GenerateKey
0000f000 g     O .data	00000004 trace_level
00007f12 g     F .text	00000014 utee_get_ta_exec_id
00002138 g     F .text	00000028 TEE_BigIntCmp
00007f42 g     F .text	00000020 utee_realloc
0000bb20 g     O .rodata	00000004 ta_num_props
00002cfc g     F .text	00000094 bgetr
00001350 g     F .text	00000018 utee_authenc_update_payload
00002056 g     F .text	0000006a TEE_BigIntConvertToOctetString
0000161c g     F .text	00000014 utee_cache_operation
00001324 g     F .text	00000018 utee_authenc_init
000021ae g     F .text	0000002e TEE_BigIntGetBit
0000b9e8 g     O .rodata	00000008 trace_ext_prefix
0000a990 g     F .text	00000114 __mpa_abs_add
00002c68 g     F .text	00000094 bgetz
0000097c g     F .text	0000001c TEE_GetInstanceData
00000a32 g     F .text	00000038 TEE_Wait
00001498 g     F .text	00000014 utee_storage_obj_write
00009e3a g     F .text	00000090 mpa_free_static_temp_var
00005c54 g     F .text	00000056 mpa_is_prob_prime
000084d4 g     F .text	00000010 __aeabi_unwind_cpp_pr2
00001608 g     F .text	00000014 utee_se_channel_close
0000a24a g     F .text	000000aa mpa_mul_word
00000bde g     F .text	00000024 TEE_CacheFlush
0000042c g     F .text	00000010 TA_DestroyEntryPoint
00001e2c g     F .text	00000048 _assert_log
00001fc2 g     F .text	0000002e TEE_BigIntFMMContextSizeInU32
00007a2e g     F .text	00000094 TEE_RenamePersistentObject
0000926a g     F .text	0000014a __mpa_div_q_r
00001eb0 g     F .text	00000044 _TEE_MathAPI_Init
00001470 g     F .text	00000014 utee_storage_next_enum
0000f09c g     O .bss	00008000 ta_heap
000025c8 g     F .text	00000068 TEE_BigIntInvMod
0000045c g     F .text	00000018 TA_CloseSessionEntryPoint
000077f4 g     F .text	000000c6 TEE_OpenPersistentObject
00001088 g     F .text	00000014 __utee_panic
000011b0 g     F .text	00000014 utee_cryp_state_copy
00000474 g     F .text	0000007c TA_InvokeCommandEntryPoint
00006c44 g     F .text	000000ec mpa_set_oct_str
0000159c g     F .text	00000018 utee_se_session_open_channel
0000a2f4 g     F .text	000000b2 __mpa_shift_words_left
00001298 g     F .text	00000014 utee_cryp_obj_alloc
00001184 g     F .text	00000014 utee_set_ta_time
00001284 g     F .text	00000014 utee_cryp_obj_get_attr
00007600 g     F .text	0000004c TEE_CopyObjectAttributes
0000589c g     F .text	0000011a __mpa_montgomery_sub_ack
00003dd8 g     F .text	00000036 calloc
00000b60 g     F .text	00000020 TEE_Malloc
00001148 g     F .text	00000014 utee_mask_cancellation
000012c0 g     F .text	00000014 utee_cryp_obj_reset
00000912 g     F .text	00000042 TEE_CheckMemoryAccessRights
00019c30 g       .bss	00000000 __gprof_buf_end
00008750 g     F .text	00000072 __ul_divmod
0000b052 g     F .text	0000002a mpa_neg
0000c2e4 g     O .rodata	00000c38 PRIME_TABLE
00007c9a g     F .text	00000088 TEE_ReadObjectData
00007148 g     F .text	000000c2 TEE_GetObjectBufferAttribute
0000043c g     F .text	00000020 TA_OpenSessionEntryPoint
000099a0 g     F .text	000000ec mpa_gcd
000055d8 g     F .text	00000032 mpa_abs
0000145c g     F .text	00000014 utee_storage_start_enum
0000681e g     F .text	00000332 mpa_set_str
0000140c g     F .text	00000014 utee_storage_obj_rename
000170a0 g     O .bss	00000004 ta_param_types
00006ea0 g     F .text	00000156 __utee_from_attr
00001658 g     F .text	00000014 utee_testDriver_dump
000026f8 g     F .text	0000004c TEE_BigIntIsProbablePrime
00009e14 g     F .text	00000026 mpa_alloc_static_temp_var
000079e4 g     F .text	0000004a TEE_CloseAndDeletePersistentObject1
000060a4 g     F .text	00000028 mpa_set_random_generator
0000109c g     F .text	00000018 utee_get_property
00001ef4 g     F .text	0000001e TEE_BigIntInit
00001630 g     F .text	00000014 utee_testDriver_write
00000998 g     F .text	00000024 TEE_MemMove
00001ff0 g     F .text	00000066 TEE_BigIntConvertFromOctetString
0000f070 g     O .data	00000004 _ref__utee_mcount
000084e4 g     F .text	00000114 memchr
000008aa g     F .text	00000034 TEE_UnmaskCancellation
00006ff6 g     F .text	0000006e TEE_GetObjectInfo
0000b748 g     F .text	00000050 mpa_mul_mod
000013f8 g     F .text	00000014 utee_storage_obj_del
000014c0 g     F .text	00000014 utee_storage_obj_seek
0000737a g     F .text	00000060 TEE_FreeTransientObject
00005ae6 g     F .text	00000122 mpa_compute_fmm_context
000011ec g     F .text	00000014 utee_hash_update
00009c66 g     F .text	00000048 mpa_init_scratch_mem_sync
0000166c  w    F .text	0000000c __utee_mcount
00002364 g     F .text	0000007c TEE_BigIntMod
000015c8 g     F .text	00000014 utee_se_channel_select_next
000010e0 g     F .text	00000014 utee_close_ta_session
00002304 g     F .text	00000060 TEE_BigIntDiv
00003374 g     F .text	00000060 malloc_reset_stats
0000122c g     F .text	00000018 utee_cipher_update
000070fc g     F .text	0000004c TEE_RestrictObjectUsage1
00001588 g     F .text	00000014 utee_se_session_get_atr
00003e36 g     F .text	0000002e realloc
0000aaa4 g     F .text	000000e6 __mpa_abs_add_ackum
000013b0 g     F .text	00000018 utee_asymm_verify
00002296 g     F .text	0000003a TEE_BigIntMul
000089bc g     F .text	00000032 mpa_get_word
000009e0 g     F .text	00000026 TEE_MemFill
00008026 g     F .text	000000b8 memcmp
00003ec0 g     F .text	00000188 malloc_add_pool
00005158 g     F .text	00000024 trace_get_level
00001310 g     F .text	00000014 utee_cryp_random_number_generate
000070b0 g     F .text	0000004c TEE_RestrictObjectUsage
00001f9c g     F .text	00000026 TEE_BigIntFMMSizeInU32
00001f12 g     F .text	00000040 TEE_BigIntInitFMM
00001398 g     F .text	00000018 utee_asymm_operate
000072e8 g     F .text	00000032 TEE_CloseObject
00000fe6 g     F .text	00000066 __utee_entry
0000b880 g       .text	00000000 __text_end
00002630 g     F .text	0000007c TEE_BigIntRelativePrime
0000623c g     F .text	0000006c mpa_get_random_digits
000030f0 g     F .text	00000124 bpool
000088a8 g     F .text	0000004c mpa_set_S32
0000b5e0 g     F .text	0000009c mpa_init_static_fmm_context
00000876 g     F .text	00000034 TEE_GetCancellationFlag
000014fc g     F .text	00000014 utee_se_service_close
000019f0 g     F .text	00000148 tee_user_mem_alloc
0000f080 g     O .data	00000008 user_mem_head
00000aee g     F .text	00000046 TEE_SetTAPersistentTime
0000b07c g     F .text	0000014a mpa_add_word
00001524 g     F .text	00000014 utee_se_reader_get_prop
0000830e g     F .text	0000011c memset
00000a6a g     F .text	00000084 TEE_GetTAPersistentTime
000054c4 g     F .text	0000001e dhex_dump
000078ba g     F .text	000000f8 TEE_CreatePersistentObject
000008de g     F .text	00000034 TEE_MaskCancellation
0000a8c4 g     F .text	00000068 __mpa_full_sub
00001484 g     F .text	00000014 utee_storage_obj_read
00007da0 g     F .text	0000006c TEE_TruncateObjectData
00007f62 g     F .text	00000020 utee_calloc
000012d4 g     F .text	00000014 utee_cryp_obj_populate
0000b462 g     F .text	0000008a mpa_cmp
0000b798 g     F .text	000000e8 mpa_inv_mod
0000b1c6 g     F .text	0000014e mpa_sub_word
00009eca g     F .text	0000007a __mpa_mul_add_word
0000ac76 g     F .text	000001da mpa_add
000062a8 g     F .text	00000190 mpa_exp_mod
00007064 g     F .text	0000004c TEE_GetObjectInfo1
0000a3a6 g     F .text	000000b4 __mpa_shift_words_right
00005110 g     F .text	00000048 trace_set_level
00001574 g     F .text	00000014 utee_se_session_is_closed
0000125c g     F .text	00000014 utee_cryp_obj_get_info
0000720a g     F .text	000000de TEE_GetObjectValueAttribute
00001420 g     F .text	00000014 utee_storage_alloc_enum
00001448 g     F .text	00000014 utee_storage_reset_enum
000014ac g     F .text	00000014 utee_storage_obj_trunc
0000b67c g     F .text	0000002c mpa_mod
0000b412 g     F .text	0000002a __mpa_abs_greater_than
000020e2 g     F .text	00000056 TEE_BigIntConvertToS32
00002238 g     F .text	00000038 TEE_BigIntSub
0000110c g     F .text	00000014 utee_get_cancellation_flag
000011d8 g     F .text	00000014 utee_hash_init
00006e8c g     F .text	00000014 tahead_get_trace_level
000004f0 g     F .text	00000166 __utee_from_param
00007e0c g     F .text	000000ec TEE_SeekObjectData
0000c2c0 g     O .rodata	00000010 Const_1_LShift_Base
00000656 g     F .text	000000fa __utee_to_param
00003e64 g     F .text	00000036 memalign
000020c0 g     F .text	00000022 TEE_BigIntConvertFromS32
0000b6f8 g     F .text	00000050 mpa_sub_mod
00001270 g     F .text	00000014 utee_cryp_obj_restrict_usage
00004048 g     F .text	0000009e malloc_buffer_is_within_alloced
000012e8 g     F .text	00000014 utee_cryp_obj_copy
0000a682 g     F .text	000001de mpa_shift_right
00001f52 g     F .text	0000004a TEE_BigIntInitFMMContext
000012fc g     F .text	00000014 utee_cryp_derive_key
000059b6 g     F .text	00000130 __mpa_montgomery_mul
00006d74 g     F .text	00000116 mpa_get_oct_str
0000b4ec g     F .text	000000a8 mpa_cmp_short
00001380 g     F .text	00000018 utee_authenc_dec_final
00007b54 g     F .text	00000032 TEE_ResetPersistentObjectEnumerator
00007d22 g     F .text	0000007e TEE_WriteObjectData
0000b314 g     F .text	000000fe __mpa_abs_cmp
000022d0 g     F .text	00000034 TEE_BigIntSquare
00000418 g     F .text	00000014 TA_CreateEntryPoint
000041a8 g     F .text	00000036 snprintk
000021dc g     F .text	00000024 TEE_BigIntGetBitCount
000024e8 g     F .text	000000bc TEE_BigIntMulMod
000170a4 g     O .bss	00000020 ta_params
0000a07a g     F .text	0000010c __mpa_abs_mul
00002a00 g     F .text	00000268 bget
0000731a g     F .text	00000060 TEE_AllocateTransientObject
00000ba0 g     F .text	0000001a TEE_Free
00001538 g     F .text	00000014 utee_se_reader_get_name
00000c02 g     F .text	00000024 TEE_CacheInvalidate
00001218 g     F .text	00000014 utee_cipher_init
00001e74 g     F .text	00000014 _assert_break
000023e0 g     F .text	00000084 TEE_BigIntAddMod
00001434 g     F .text	00000014 utee_storage_free_enum
0000133c g     F .text	00000014 utee_authenc_update_aad
0000568a g     F .text	0000006a mpa_get_bit
00009cae g     F .text	00000032 mpa_init_scratch_mem
000009bc g     F .text	00000024 TEE_MemCompare
0000420c g     F .text	00000072 __vsnprintf
00007b22 g     F .text	00000032 TEE_FreePersistentObjectEnumerator
0000104c g     F .text	00000014 utee_panic
00000750 g     F .text	00000066 TEE_OpenTASession
00001644 g     F .text	00000014 utee_testDriver_read
0000286c g     F .text	00000024 trace_ext_puts
00001df0 g     F .text	0000003c tee_user_mem_garbage
00002890 g     F .text	00000014 trace_ext_get_thread_id
000079b2 g     F .text	00000032 TEE_CloseAndDeletePersistentObject
00000bba g     F .text	00000024 TEE_CacheClean
000010c8 g     F .text	00000018 utee_open_ta_session
00008ac6 g     F .text	00000058 __mpa_div_dword
00005514 g     F .text	00000048 __mpa_set_unused_digits_to_zero
0000c2b4 g     O .rodata	0000000c const_largest_deci_base
0000680a g     F .text	00000014 mpa_get_str_size
00001d14 g     F .text	00000074 tee_user_mem_check_heap
0000764c g     F .text	000000b8 TEE_CopyObjectAttributes1
00001200 g     F .text	00000018 utee_hash_final
0000842a g     F .text	0000008a strlen
000026ac g     F .text	0000004c TEE_BigIntComputeExtendedGcd
000084c4 g     F .text	00000010 __aeabi_unwind_cpp_pr1
00009a8c g     F .text	000001da mpa_extended_gcd
0000b6a8 g     F .text	00000050 mpa_add_mod
000013c8 g     F .text	00000018 utee_storage_obj_open
000010f4 g     F .text	00000018 utee_invoke_ta_command
00006b50 g     F .text	00000090 mpa_get_str
0000115c g     F .text	00000014 utee_wait
00007f82 g     F .text	0000001a utee_free
00001cf4 g     F .text	00000020 tee_user_mem_mark_heap
00000a06 g     F .text	0000002c TEE_GetSystemTime
00000000 g     O .ta_head	00000020 ta_head
00002d90 g     F .text	00000360 brel
00009ce0 g     F .text	00000134 mpa_alloc_static_temp_var_size
00001170 g     F .text	00000014 utee_get_time
00005768 g     F .text	00000134 __mpa_montgomery_mul_add
00000954 g     F .text	00000028 TEE_SetInstanceData
00001134 g     F .text	00000014 utee_unmask_cancellation
000054e4 g     F .text	00000018 __aeabi_ldivmod
00001120 g     F .text	00000014 utee_check_access_rights
00001560 g     F .text	00000014 utee_se_reader_close_sessions
00007be0 g     F .text	000000ba TEE_GetNextPersistentObject
000014d4 g     F .text	00000014 utee_cryp_obj_generate_key
00005750 g     F .text	00000018 mpa_constant_one
000007b6 g     F .text	00000030 TEE_CloseTASession
0000a860 g     F .text	00000064 __mpa_full_adder
0000ab8a g     F .text	000000ec __mpa_abs_sub
00019c30 g       .bss	00000000 __gprof_buf_start
00003db2 g     F .text	00000026 free
00003214 g     F .text	000000c4 bstats



Disassembly of section .text:

00000020 <delete_object>:
delete_object():
/home/st/桌面/OP-TEE/optee_examples/secure_storage/ta/secure_storage_ta.c:34
      20:	e96d 7e02 	strd	r7, lr, [sp, #-8]!
      24:	b08a      	sub	sp, #40	; 0x28
      26:	af02      	add	r7, sp, #8
      28:	6078      	str	r0, [r7, #4]
      2a:	6039      	str	r1, [r7, #0]
/home/st/桌面/OP-TEE/optee_examples/secure_storage/ta/secure_storage_ta.c:35
      2c:	f04f 0305 	mov.w	r3, #5
      30:	61fb      	str	r3, [r7, #28]
/home/st/桌面/OP-TEE/optee_examples/secure_storage/ta/secure_storage_ta.c:48
      32:	687a      	ldr	r2, [r7, #4]
      34:	69fb      	ldr	r3, [r7, #28]
      36:	429a      	cmp	r2, r3
      38:	d004      	beq.n	44 <delete_object+0x24>
/home/st/桌面/OP-TEE/optee_examples/secure_storage/ta/secure_storage_ta.c:49
      3a:	f04f 0306 	mov.w	r3, #6
      3e:	f6cf 73ff 	movt	r3, #65535	; 0xffff
      42:	e042      	b.n	ca <delete_object+0xaa>
/home/st/桌面/OP-TEE/optee_examples/secure_storage/ta/secure_storage_ta.c:51
      44:	683b      	ldr	r3, [r7, #0]
      46:	685b      	ldr	r3, [r3, #4]
      48:	61bb      	str	r3, [r7, #24]
/home/st/桌面/OP-TEE/optee_examples/secure_storage/ta/secure_storage_ta.c:52
      4a:	f04f 0100 	mov.w	r1, #0
      4e:	69b8      	ldr	r0, [r7, #24]
      50:	f000 fd86 	bl	b60 <TEE_Malloc>
      54:	6178      	str	r0, [r7, #20]
/home/st/桌面/OP-TEE/optee_examples/secure_storage/ta/secure_storage_ta.c:53
      56:	697b      	ldr	r3, [r7, #20]
      58:	2b00      	cmp	r3, #0
      5a:	d104      	bne.n	66 <delete_object+0x46>
/home/st/桌面/OP-TEE/optee_examples/secure_storage/ta/secure_storage_ta.c:54
      5c:	f04f 030c 	mov.w	r3, #12
      60:	f6cf 73ff 	movt	r3, #65535	; 0xffff
      64:	e031      	b.n	ca <delete_object+0xaa>
/home/st/桌面/OP-TEE/optee_examples/secure_storage/ta/secure_storage_ta.c:56
      66:	683b      	ldr	r3, [r7, #0]
      68:	681b      	ldr	r3, [r3, #0]
      6a:	69ba      	ldr	r2, [r7, #24]
      6c:	4619      	mov	r1, r3
      6e:	6978      	ldr	r0, [r7, #20]
      70:	f000 fc92 	bl	998 <TEE_MemMove>
/home/st/桌面/OP-TEE/optee_examples/secure_storage/ta/secure_storage_ta.c:61
      74:	f107 030c 	add.w	r3, r7, #12
      78:	9300      	str	r3, [sp, #0]
      7a:	f04f 0305 	mov.w	r3, #5
      7e:	69ba      	ldr	r2, [r7, #24]
      80:	6979      	ldr	r1, [r7, #20]
      82:	f04f 0001 	mov.w	r0, #1
      86:	f007 fbb5 	bl	77f4 <TEE_OpenPersistentObject>
      8a:	6138      	str	r0, [r7, #16]
/home/st/桌面/OP-TEE/optee_examples/secure_storage/ta/secure_storage_ta.c:66
      8c:	693b      	ldr	r3, [r7, #16]
      8e:	2b00      	cmp	r3, #0
      90:	d013      	beq.n	ba <delete_object+0x9a>
/home/st/桌面/OP-TEE/optee_examples/secure_storage/ta/secure_storage_ta.c:67
      92:	693b      	ldr	r3, [r7, #16]
      94:	9301      	str	r3, [sp, #4]
      96:	4b0f      	ldr	r3, [pc, #60]	; (d4 <delete_object+0xb4>)
      98:	447b      	add	r3, pc
      9a:	9300      	str	r3, [sp, #0]
      9c:	f04f 0301 	mov.w	r3, #1
      a0:	f04f 0201 	mov.w	r2, #1
      a4:	f04f 0143 	mov.w	r1, #67	; 0x43
      a8:	480b      	ldr	r0, [pc, #44]	; (d8 <delete_object+0xb8>)
      aa:	4478      	add	r0, pc
      ac:	f005 f894 	bl	51d8 <trace_printf>
/home/st/桌面/OP-TEE/optee_examples/secure_storage/ta/secure_storage_ta.c:68
      b0:	6978      	ldr	r0, [r7, #20]
      b2:	f000 fd75 	bl	ba0 <TEE_Free>
/home/st/桌面/OP-TEE/optee_examples/secure_storage/ta/secure_storage_ta.c:69
      b6:	693b      	ldr	r3, [r7, #16]
      b8:	e007      	b.n	ca <delete_object+0xaa>
/home/st/桌面/OP-TEE/optee_examples/secure_storage/ta/secure_storage_ta.c:72
      ba:	68fb      	ldr	r3, [r7, #12]
      bc:	4618      	mov	r0, r3
      be:	f007 fc91 	bl	79e4 <TEE_CloseAndDeletePersistentObject1>
/home/st/桌面/OP-TEE/optee_examples/secure_storage/ta/secure_storage_ta.c:73
      c2:	6978      	ldr	r0, [r7, #20]
      c4:	f000 fd6c 	bl	ba0 <TEE_Free>
/home/st/桌面/OP-TEE/optee_examples/secure_storage/ta/secure_storage_ta.c:75
      c8:	693b      	ldr	r3, [r7, #16]
/home/st/桌面/OP-TEE/optee_examples/secure_storage/ta/secure_storage_ta.c:76 (discriminator 1)
      ca:	4618      	mov	r0, r3
      cc:	f107 0720 	add.w	r7, r7, #32
      d0:	46bd      	mov	sp, r7
      d2:	bd80      	pop	{r7, pc}
      d4:	0000b7e4 	.word	0x0000b7e4
      d8:	0000b8ea 	.word	0x0000b8ea

000000dc <create_raw_object>:
create_raw_object():
/home/st/桌面/OP-TEE/optee_examples/secure_storage/ta/secure_storage_ta.c:79
      dc:	e96d 7e02 	strd	r7, lr, [sp, #-8]!
      e0:	b08e      	sub	sp, #56	; 0x38
      e2:	af04      	add	r7, sp, #16
      e4:	6078      	str	r0, [r7, #4]
      e6:	6039      	str	r1, [r7, #0]
/home/st/桌面/OP-TEE/optee_examples/secure_storage/ta/secure_storage_ta.c:80
      e8:	f04f 0355 	mov.w	r3, #85	; 0x55
      ec:	627b      	str	r3, [r7, #36]	; 0x24
/home/st/桌面/OP-TEE/optee_examples/secure_storage/ta/secure_storage_ta.c:96
      ee:	687a      	ldr	r2, [r7, #4]
      f0:	6a7b      	ldr	r3, [r7, #36]	; 0x24
      f2:	429a      	cmp	r2, r3
      f4:	d004      	beq.n	100 <create_raw_object+0x24>
/home/st/桌面/OP-TEE/optee_examples/secure_storage/ta/secure_storage_ta.c:97
      f6:	f04f 0306 	mov.w	r3, #6
      fa:	f6cf 73ff 	movt	r3, #65535	; 0xffff
      fe:	e08d      	b.n	21c <create_raw_object+0x140>
/home/st/桌面/OP-TEE/optee_examples/secure_storage/ta/secure_storage_ta.c:99
     100:	683b      	ldr	r3, [r7, #0]
     102:	685b      	ldr	r3, [r3, #4]
     104:	623b      	str	r3, [r7, #32]
/home/st/桌面/OP-TEE/optee_examples/secure_storage/ta/secure_storage_ta.c:100
     106:	f04f 0100 	mov.w	r1, #0
     10a:	6a38      	ldr	r0, [r7, #32]
     10c:	f000 fd28 	bl	b60 <TEE_Malloc>
     110:	61f8      	str	r0, [r7, #28]
/home/st/桌面/OP-TEE/optee_examples/secure_storage/ta/secure_storage_ta.c:101
     112:	69fb      	ldr	r3, [r7, #28]
     114:	2b00      	cmp	r3, #0
     116:	d104      	bne.n	122 <create_raw_object+0x46>
/home/st/桌面/OP-TEE/optee_examples/secure_storage/ta/secure_storage_ta.c:102
     118:	f04f 030c 	mov.w	r3, #12
     11c:	f6cf 73ff 	movt	r3, #65535	; 0xffff
     120:	e07c      	b.n	21c <create_raw_object+0x140>
/home/st/桌面/OP-TEE/optee_examples/secure_storage/ta/secure_storage_ta.c:104
     122:	683b      	ldr	r3, [r7, #0]
     124:	681b      	ldr	r3, [r3, #0]
     126:	6a3a      	ldr	r2, [r7, #32]
     128:	4619      	mov	r1, r3
     12a:	69f8      	ldr	r0, [r7, #28]
     12c:	f000 fc34 	bl	998 <TEE_MemMove>
/home/st/桌面/OP-TEE/optee_examples/secure_storage/ta/secure_storage_ta.c:106
     130:	683b      	ldr	r3, [r7, #0]
     132:	f103 0308 	add.w	r3, r3, #8
     136:	685b      	ldr	r3, [r3, #4]
     138:	61bb      	str	r3, [r7, #24]
/home/st/桌面/OP-TEE/optee_examples/secure_storage/ta/secure_storage_ta.c:107
     13a:	f04f 0100 	mov.w	r1, #0
     13e:	69b8      	ldr	r0, [r7, #24]
     140:	f000 fd0e 	bl	b60 <TEE_Malloc>
     144:	6178      	str	r0, [r7, #20]
/home/st/桌面/OP-TEE/optee_examples/secure_storage/ta/secure_storage_ta.c:108
     146:	697b      	ldr	r3, [r7, #20]
     148:	2b00      	cmp	r3, #0
     14a:	d104      	bne.n	156 <create_raw_object+0x7a>
/home/st/桌面/OP-TEE/optee_examples/secure_storage/ta/secure_storage_ta.c:109
     14c:	f04f 030c 	mov.w	r3, #12
     150:	f6cf 73ff 	movt	r3, #65535	; 0xffff
     154:	e062      	b.n	21c <create_raw_object+0x140>
/home/st/桌面/OP-TEE/optee_examples/secure_storage/ta/secure_storage_ta.c:110
     156:	683b      	ldr	r3, [r7, #0]
     158:	f103 0308 	add.w	r3, r3, #8
     15c:	681b      	ldr	r3, [r3, #0]
     15e:	69ba      	ldr	r2, [r7, #24]
     160:	4619      	mov	r1, r3
     162:	6978      	ldr	r0, [r7, #20]
     164:	f000 fc18 	bl	998 <TEE_MemMove>
/home/st/桌面/OP-TEE/optee_examples/secure_storage/ta/secure_storage_ta.c:115
     168:	f240 4307 	movw	r3, #1031	; 0x407
     16c:	613b      	str	r3, [r7, #16]
/home/st/桌面/OP-TEE/optee_examples/secure_storage/ta/secure_storage_ta.c:120
     16e:	f107 0308 	add.w	r3, r7, #8
     172:	9303      	str	r3, [sp, #12]
     174:	f04f 0300 	mov.w	r3, #0
     178:	9302      	str	r3, [sp, #8]
     17a:	f04f 0300 	mov.w	r3, #0
     17e:	9301      	str	r3, [sp, #4]
     180:	f04f 0300 	mov.w	r3, #0
     184:	9300      	str	r3, [sp, #0]
     186:	693b      	ldr	r3, [r7, #16]
     188:	6a3a      	ldr	r2, [r7, #32]
     18a:	69f9      	ldr	r1, [r7, #28]
     18c:	f04f 0001 	mov.w	r0, #1
     190:	f007 fb93 	bl	78ba <TEE_CreatePersistentObject>
     194:	60f8      	str	r0, [r7, #12]
/home/st/桌面/OP-TEE/optee_examples/secure_storage/ta/secure_storage_ta.c:126
     196:	68fb      	ldr	r3, [r7, #12]
     198:	2b00      	cmp	r3, #0
     19a:	d016      	beq.n	1ca <create_raw_object+0xee>
/home/st/桌面/OP-TEE/optee_examples/secure_storage/ta/secure_storage_ta.c:127
     19c:	68fb      	ldr	r3, [r7, #12]
     19e:	9301      	str	r3, [sp, #4]
     1a0:	4b21      	ldr	r3, [pc, #132]	; (228 <create_raw_object+0x14c>)
     1a2:	447b      	add	r3, pc
     1a4:	9300      	str	r3, [sp, #0]
     1a6:	f04f 0301 	mov.w	r3, #1
     1aa:	f04f 0201 	mov.w	r2, #1
     1ae:	f04f 017f 	mov.w	r1, #127	; 0x7f
     1b2:	481e      	ldr	r0, [pc, #120]	; (22c <create_raw_object+0x150>)
     1b4:	4478      	add	r0, pc
     1b6:	f005 f80f 	bl	51d8 <trace_printf>
/home/st/桌面/OP-TEE/optee_examples/secure_storage/ta/secure_storage_ta.c:128
     1ba:	69f8      	ldr	r0, [r7, #28]
     1bc:	f000 fcf0 	bl	ba0 <TEE_Free>
/home/st/桌面/OP-TEE/optee_examples/secure_storage/ta/secure_storage_ta.c:129
     1c0:	6978      	ldr	r0, [r7, #20]
     1c2:	f000 fced 	bl	ba0 <TEE_Free>
/home/st/桌面/OP-TEE/optee_examples/secure_storage/ta/secure_storage_ta.c:130
     1c6:	68fb      	ldr	r3, [r7, #12]
     1c8:	e028      	b.n	21c <create_raw_object+0x140>
/home/st/桌面/OP-TEE/optee_examples/secure_storage/ta/secure_storage_ta.c:133
     1ca:	68bb      	ldr	r3, [r7, #8]
     1cc:	69ba      	ldr	r2, [r7, #24]
     1ce:	6979      	ldr	r1, [r7, #20]
     1d0:	4618      	mov	r0, r3
     1d2:	f007 fda6 	bl	7d22 <TEE_WriteObjectData>
     1d6:	60f8      	str	r0, [r7, #12]
/home/st/桌面/OP-TEE/optee_examples/secure_storage/ta/secure_storage_ta.c:134
     1d8:	68fb      	ldr	r3, [r7, #12]
     1da:	2b00      	cmp	r3, #0
     1dc:	d013      	beq.n	206 <create_raw_object+0x12a>
/home/st/桌面/OP-TEE/optee_examples/secure_storage/ta/secure_storage_ta.c:135
     1de:	68fb      	ldr	r3, [r7, #12]
     1e0:	9301      	str	r3, [sp, #4]
     1e2:	4b13      	ldr	r3, [pc, #76]	; (230 <create_raw_object+0x154>)
     1e4:	447b      	add	r3, pc
     1e6:	9300      	str	r3, [sp, #0]
     1e8:	f04f 0301 	mov.w	r3, #1
     1ec:	f04f 0201 	mov.w	r2, #1
     1f0:	f04f 0187 	mov.w	r1, #135	; 0x87
     1f4:	480f      	ldr	r0, [pc, #60]	; (234 <create_raw_object+0x158>)
     1f6:	4478      	add	r0, pc
     1f8:	f004 ffee 	bl	51d8 <trace_printf>
/home/st/桌面/OP-TEE/optee_examples/secure_storage/ta/secure_storage_ta.c:136
     1fc:	68bb      	ldr	r3, [r7, #8]
     1fe:	4618      	mov	r0, r3
     200:	f007 fbf0 	bl	79e4 <TEE_CloseAndDeletePersistentObject1>
     204:	e003      	b.n	20e <create_raw_object+0x132>
/home/st/桌面/OP-TEE/optee_examples/secure_storage/ta/secure_storage_ta.c:138
     206:	68bb      	ldr	r3, [r7, #8]
     208:	4618      	mov	r0, r3
     20a:	f007 f86d 	bl	72e8 <TEE_CloseObject>
/home/st/桌面/OP-TEE/optee_examples/secure_storage/ta/secure_storage_ta.c:140
     20e:	69f8      	ldr	r0, [r7, #28]
     210:	f000 fcc6 	bl	ba0 <TEE_Free>
/home/st/桌面/OP-TEE/optee_examples/secure_storage/ta/secure_storage_ta.c:141
     214:	6978      	ldr	r0, [r7, #20]
     216:	f000 fcc3 	bl	ba0 <TEE_Free>
/home/st/桌面/OP-TEE/optee_examples/secure_storage/ta/secure_storage_ta.c:142
     21a:	68fb      	ldr	r3, [r7, #12]
/home/st/桌面/OP-TEE/optee_examples/secure_storage/ta/secure_storage_ta.c:143 (discriminator 1)
     21c:	4618      	mov	r0, r3
     21e:	f107 0728 	add.w	r7, r7, #40	; 0x28
     222:	46bd      	mov	sp, r7
     224:	bd80      	pop	{r7, pc}
     226:	bf00      	nop
     228:	0000b70a 	.word	0x0000b70a
     22c:	0000b7f0 	.word	0x0000b7f0
     230:	0000b6f4 	.word	0x0000b6f4
     234:	0000b7ae 	.word	0x0000b7ae

00000238 <read_raw_object>:
read_raw_object():
/home/st/桌面/OP-TEE/optee_examples/secure_storage/ta/secure_storage_ta.c:146
     238:	e96d 7e02 	strd	r7, lr, [sp, #-8]!
     23c:	b096      	sub	sp, #88	; 0x58
     23e:	af04      	add	r7, sp, #16
     240:	6078      	str	r0, [r7, #4]
     242:	6039      	str	r1, [r7, #0]
/home/st/桌面/OP-TEE/optee_examples/secure_storage/ta/secure_storage_ta.c:147
     244:	f04f 0365 	mov.w	r3, #101	; 0x65
     248:	643b      	str	r3, [r7, #64]	; 0x40
/home/st/桌面/OP-TEE/optee_examples/secure_storage/ta/secure_storage_ta.c:164
     24a:	687a      	ldr	r2, [r7, #4]
     24c:	6c3b      	ldr	r3, [r7, #64]	; 0x40
     24e:	429a      	cmp	r2, r3
     250:	d004      	beq.n	25c <read_raw_object+0x24>
/home/st/桌面/OP-TEE/optee_examples/secure_storage/ta/secure_storage_ta.c:165
     252:	f04f 0306 	mov.w	r3, #6
     256:	f6cf 73ff 	movt	r3, #65535	; 0xffff
     25a:	e0c8      	b.n	3ee <read_raw_object+0x1b6>
/home/st/桌面/OP-TEE/optee_examples/secure_storage/ta/secure_storage_ta.c:167
     25c:	683b      	ldr	r3, [r7, #0]
     25e:	685b      	ldr	r3, [r3, #4]
     260:	63fb      	str	r3, [r7, #60]	; 0x3c
/home/st/桌面/OP-TEE/optee_examples/secure_storage/ta/secure_storage_ta.c:168
     262:	f04f 0100 	mov.w	r1, #0
     266:	6bf8      	ldr	r0, [r7, #60]	; 0x3c
     268:	f000 fc7a 	bl	b60 <TEE_Malloc>
     26c:	63b8      	str	r0, [r7, #56]	; 0x38
/home/st/桌面/OP-TEE/optee_examples/secure_storage/ta/secure_storage_ta.c:169
     26e:	6bbb      	ldr	r3, [r7, #56]	; 0x38
     270:	2b00      	cmp	r3, #0
     272:	d104      	bne.n	27e <read_raw_object+0x46>
/home/st/桌面/OP-TEE/optee_examples/secure_storage/ta/secure_storage_ta.c:170
     274:	f04f 030c 	mov.w	r3, #12
     278:	f6cf 73ff 	movt	r3, #65535	; 0xffff
     27c:	e0b7      	b.n	3ee <read_raw_object+0x1b6>
/home/st/桌面/OP-TEE/optee_examples/secure_storage/ta/secure_storage_ta.c:172
     27e:	683b      	ldr	r3, [r7, #0]
     280:	681b      	ldr	r3, [r3, #0]
     282:	6bfa      	ldr	r2, [r7, #60]	; 0x3c
     284:	4619      	mov	r1, r3
     286:	6bb8      	ldr	r0, [r7, #56]	; 0x38
     288:	f000 fb86 	bl	998 <TEE_MemMove>
/home/st/桌面/OP-TEE/optee_examples/secure_storage/ta/secure_storage_ta.c:174
     28c:	683b      	ldr	r3, [r7, #0]
     28e:	f103 0308 	add.w	r3, r3, #8
     292:	685b      	ldr	r3, [r3, #4]
     294:	637b      	str	r3, [r7, #52]	; 0x34
/home/st/桌面/OP-TEE/optee_examples/secure_storage/ta/secure_storage_ta.c:175
     296:	f04f 0100 	mov.w	r1, #0
     29a:	6b78      	ldr	r0, [r7, #52]	; 0x34
     29c:	f000 fc60 	bl	b60 <TEE_Malloc>
     2a0:	6338      	str	r0, [r7, #48]	; 0x30
/home/st/桌面/OP-TEE/optee_examples/secure_storage/ta/secure_storage_ta.c:176
     2a2:	6b3b      	ldr	r3, [r7, #48]	; 0x30
     2a4:	2b00      	cmp	r3, #0
     2a6:	d104      	bne.n	2b2 <read_raw_object+0x7a>
/home/st/桌面/OP-TEE/optee_examples/secure_storage/ta/secure_storage_ta.c:177
     2a8:	f04f 030c 	mov.w	r3, #12
     2ac:	f6cf 73ff 	movt	r3, #65535	; 0xffff
     2b0:	e09d      	b.n	3ee <read_raw_object+0x1b6>
/home/st/桌面/OP-TEE/optee_examples/secure_storage/ta/secure_storage_ta.c:183
     2b2:	f107 032c 	add.w	r3, r7, #44	; 0x2c
     2b6:	9300      	str	r3, [sp, #0]
     2b8:	f04f 0311 	mov.w	r3, #17
     2bc:	6bfa      	ldr	r2, [r7, #60]	; 0x3c
     2be:	6bb9      	ldr	r1, [r7, #56]	; 0x38
     2c0:	f04f 0001 	mov.w	r0, #1
     2c4:	f007 fa96 	bl	77f4 <TEE_OpenPersistentObject>
     2c8:	6478      	str	r0, [r7, #68]	; 0x44
/home/st/桌面/OP-TEE/optee_examples/secure_storage/ta/secure_storage_ta.c:188
     2ca:	6c7b      	ldr	r3, [r7, #68]	; 0x44
     2cc:	2b00      	cmp	r3, #0
     2ce:	d016      	beq.n	2fe <read_raw_object+0xc6>
/home/st/桌面/OP-TEE/optee_examples/secure_storage/ta/secure_storage_ta.c:189
     2d0:	6c7b      	ldr	r3, [r7, #68]	; 0x44
     2d2:	9301      	str	r3, [sp, #4]
     2d4:	4b48      	ldr	r3, [pc, #288]	; (3f8 <read_raw_object+0x1c0>)
     2d6:	447b      	add	r3, pc
     2d8:	9300      	str	r3, [sp, #0]
     2da:	f04f 0301 	mov.w	r3, #1
     2de:	f04f 0201 	mov.w	r2, #1
     2e2:	f04f 01bd 	mov.w	r1, #189	; 0xbd
     2e6:	4845      	ldr	r0, [pc, #276]	; (3fc <read_raw_object+0x1c4>)
     2e8:	4478      	add	r0, pc
     2ea:	f004 ff75 	bl	51d8 <trace_printf>
/home/st/桌面/OP-TEE/optee_examples/secure_storage/ta/secure_storage_ta.c:190
     2ee:	6bb8      	ldr	r0, [r7, #56]	; 0x38
     2f0:	f000 fc56 	bl	ba0 <TEE_Free>
/home/st/桌面/OP-TEE/optee_examples/secure_storage/ta/secure_storage_ta.c:191
     2f4:	6b38      	ldr	r0, [r7, #48]	; 0x30
     2f6:	f000 fc53 	bl	ba0 <TEE_Free>
/home/st/桌面/OP-TEE/optee_examples/secure_storage/ta/secure_storage_ta.c:192
     2fa:	6c7b      	ldr	r3, [r7, #68]	; 0x44
     2fc:	e077      	b.n	3ee <read_raw_object+0x1b6>
/home/st/桌面/OP-TEE/optee_examples/secure_storage/ta/secure_storage_ta.c:195
     2fe:	6afb      	ldr	r3, [r7, #44]	; 0x2c
     300:	f107 0210 	add.w	r2, r7, #16
     304:	4611      	mov	r1, r2
     306:	4618      	mov	r0, r3
     308:	f006 feac 	bl	7064 <TEE_GetObjectInfo1>
     30c:	6478      	str	r0, [r7, #68]	; 0x44
/home/st/桌面/OP-TEE/optee_examples/secure_storage/ta/secure_storage_ta.c:196
     30e:	6c7b      	ldr	r3, [r7, #68]	; 0x44
     310:	2b00      	cmp	r3, #0
     312:	d00f      	beq.n	334 <read_raw_object+0xfc>
/home/st/桌面/OP-TEE/optee_examples/secure_storage/ta/secure_storage_ta.c:197
     314:	6c7b      	ldr	r3, [r7, #68]	; 0x44
     316:	9301      	str	r3, [sp, #4]
     318:	4b39      	ldr	r3, [pc, #228]	; (400 <read_raw_object+0x1c8>)
     31a:	447b      	add	r3, pc
     31c:	9300      	str	r3, [sp, #0]
     31e:	f04f 0301 	mov.w	r3, #1
     322:	f04f 0201 	mov.w	r2, #1
     326:	f04f 01c5 	mov.w	r1, #197	; 0xc5
     32a:	4836      	ldr	r0, [pc, #216]	; (404 <read_raw_object+0x1cc>)
     32c:	4478      	add	r0, pc
     32e:	f004 ff53 	bl	51d8 <trace_printf>
/home/st/桌面/OP-TEE/optee_examples/secure_storage/ta/secure_storage_ta.c:198
     332:	e051      	b.n	3d8 <read_raw_object+0x1a0>
/home/st/桌面/OP-TEE/optee_examples/secure_storage/ta/secure_storage_ta.c:201
     334:	6a3a      	ldr	r2, [r7, #32]
     336:	6b7b      	ldr	r3, [r7, #52]	; 0x34
     338:	429a      	cmp	r2, r3
     33a:	d90a      	bls.n	352 <read_raw_object+0x11a>
/home/st/桌面/OP-TEE/optee_examples/secure_storage/ta/secure_storage_ta.c:206
     33c:	683b      	ldr	r3, [r7, #0]
     33e:	f103 0308 	add.w	r3, r3, #8
     342:	6a3a      	ldr	r2, [r7, #32]
     344:	605a      	str	r2, [r3, #4]
/home/st/桌面/OP-TEE/optee_examples/secure_storage/ta/secure_storage_ta.c:207
     346:	f04f 0310 	mov.w	r3, #16
     34a:	f6cf 73ff 	movt	r3, #65535	; 0xffff
     34e:	647b      	str	r3, [r7, #68]	; 0x44
/home/st/桌面/OP-TEE/optee_examples/secure_storage/ta/secure_storage_ta.c:208
     350:	e042      	b.n	3d8 <read_raw_object+0x1a0>
/home/st/桌面/OP-TEE/optee_examples/secure_storage/ta/secure_storage_ta.c:211
     352:	6af8      	ldr	r0, [r7, #44]	; 0x2c
     354:	6a3a      	ldr	r2, [r7, #32]
     356:	f107 030c 	add.w	r3, r7, #12
     35a:	6b39      	ldr	r1, [r7, #48]	; 0x30
     35c:	f007 fc9d 	bl	7c9a <TEE_ReadObjectData>
     360:	6478      	str	r0, [r7, #68]	; 0x44
/home/st/桌面/OP-TEE/optee_examples/secure_storage/ta/secure_storage_ta.c:214
     362:	6b3b      	ldr	r3, [r7, #48]	; 0x30
     364:	9301      	str	r3, [sp, #4]
     366:	4b28      	ldr	r3, [pc, #160]	; (408 <read_raw_object+0x1d0>)
     368:	447b      	add	r3, pc
     36a:	9300      	str	r3, [sp, #0]
     36c:	f04f 0301 	mov.w	r3, #1
     370:	f04f 0201 	mov.w	r2, #1
     374:	f04f 01d6 	mov.w	r1, #214	; 0xd6
     378:	4824      	ldr	r0, [pc, #144]	; (40c <read_raw_object+0x1d4>)
     37a:	4478      	add	r0, pc
     37c:	f004 ff2c 	bl	51d8 <trace_printf>
/home/st/桌面/OP-TEE/optee_examples/secure_storage/ta/secure_storage_ta.c:216
     380:	6c7b      	ldr	r3, [r7, #68]	; 0x44
     382:	2b00      	cmp	r3, #0
     384:	d108      	bne.n	398 <read_raw_object+0x160>
/home/st/桌面/OP-TEE/optee_examples/secure_storage/ta/secure_storage_ta.c:217
     386:	683b      	ldr	r3, [r7, #0]
     388:	f103 0308 	add.w	r3, r3, #8
     38c:	681b      	ldr	r3, [r3, #0]
     38e:	68fa      	ldr	r2, [r7, #12]
     390:	6b39      	ldr	r1, [r7, #48]	; 0x30
     392:	4618      	mov	r0, r3
     394:	f000 fb00 	bl	998 <TEE_MemMove>
/home/st/桌面/OP-TEE/optee_examples/secure_storage/ta/secure_storage_ta.c:218
     398:	6c7b      	ldr	r3, [r7, #68]	; 0x44
     39a:	2b00      	cmp	r3, #0
     39c:	d103      	bne.n	3a6 <read_raw_object+0x16e>
/home/st/桌面/OP-TEE/optee_examples/secure_storage/ta/secure_storage_ta.c:218 (discriminator 1)
     39e:	6a3a      	ldr	r2, [r7, #32]
     3a0:	68fb      	ldr	r3, [r7, #12]
     3a2:	429a      	cmp	r2, r3
     3a4:	d013      	beq.n	3ce <read_raw_object+0x196>
/home/st/桌面/OP-TEE/optee_examples/secure_storage/ta/secure_storage_ta.c:219
     3a6:	68fb      	ldr	r3, [r7, #12]
     3a8:	6a3a      	ldr	r2, [r7, #32]
     3aa:	9203      	str	r2, [sp, #12]
     3ac:	9302      	str	r3, [sp, #8]
     3ae:	6c7b      	ldr	r3, [r7, #68]	; 0x44
     3b0:	9301      	str	r3, [sp, #4]
     3b2:	4b17      	ldr	r3, [pc, #92]	; (410 <read_raw_object+0x1d8>)
     3b4:	447b      	add	r3, pc
     3b6:	9300      	str	r3, [sp, #0]
     3b8:	f04f 0301 	mov.w	r3, #1
     3bc:	f04f 0201 	mov.w	r2, #1
     3c0:	f04f 01dc 	mov.w	r1, #220	; 0xdc
     3c4:	4813      	ldr	r0, [pc, #76]	; (414 <read_raw_object+0x1dc>)
     3c6:	4478      	add	r0, pc
     3c8:	f004 ff06 	bl	51d8 <trace_printf>
/home/st/桌面/OP-TEE/optee_examples/secure_storage/ta/secure_storage_ta.c:221
     3cc:	e004      	b.n	3d8 <read_raw_object+0x1a0>
/home/st/桌面/OP-TEE/optee_examples/secure_storage/ta/secure_storage_ta.c:225
     3ce:	683b      	ldr	r3, [r7, #0]
     3d0:	f103 0308 	add.w	r3, r3, #8
     3d4:	68fa      	ldr	r2, [r7, #12]
     3d6:	605a      	str	r2, [r3, #4]
/home/st/桌面/OP-TEE/optee_examples/secure_storage/ta/secure_storage_ta.c:227
     3d8:	6afb      	ldr	r3, [r7, #44]	; 0x2c
     3da:	4618      	mov	r0, r3
     3dc:	f006 ff84 	bl	72e8 <TEE_CloseObject>
/home/st/桌面/OP-TEE/optee_examples/secure_storage/ta/secure_storage_ta.c:228
     3e0:	6bb8      	ldr	r0, [r7, #56]	; 0x38
     3e2:	f000 fbdd 	bl	ba0 <TEE_Free>
/home/st/桌面/OP-TEE/optee_examples/secure_storage/ta/secure_storage_ta.c:229
     3e6:	6b38      	ldr	r0, [r7, #48]	; 0x30
     3e8:	f000 fbda 	bl	ba0 <TEE_Free>
/home/st/桌面/OP-TEE/optee_examples/secure_storage/ta/secure_storage_ta.c:230
     3ec:	6c7b      	ldr	r3, [r7, #68]	; 0x44
/home/st/桌面/OP-TEE/optee_examples/secure_storage/ta/secure_storage_ta.c:231 (discriminator 1)
     3ee:	4618      	mov	r0, r3
     3f0:	f107 0748 	add.w	r7, r7, #72	; 0x48
     3f4:	46bd      	mov	sp, r7
     3f6:	bd80      	pop	{r7, pc}
     3f8:	0000b5a6 	.word	0x0000b5a6
     3fc:	0000b6d0 	.word	0x0000b6d0
     400:	0000b5e2 	.word	0x0000b5e2
     404:	0000b68c 	.word	0x0000b68c
     408:	0000b5c4 	.word	0x0000b5c4
     40c:	0000b63e 	.word	0x0000b63e
     410:	0000b588 	.word	0x0000b588
     414:	0000b5f2 	.word	0x0000b5f2

00000418 <TA_CreateEntryPoint>:
TA_CreateEntryPoint():
/home/st/桌面/OP-TEE/optee_examples/secure_storage/ta/secure_storage_ta.c:234
     418:	f84d 7d04 	str.w	r7, [sp, #-4]!
     41c:	af00      	add	r7, sp, #0
/home/st/桌面/OP-TEE/optee_examples/secure_storage/ta/secure_storage_ta.c:236
     41e:	f04f 0300 	mov.w	r3, #0
/home/st/桌面/OP-TEE/optee_examples/secure_storage/ta/secure_storage_ta.c:237
     422:	4618      	mov	r0, r3
     424:	46bd      	mov	sp, r7
     426:	f85d 7b04 	ldr.w	r7, [sp], #4
     42a:	4770      	bx	lr

0000042c <TA_DestroyEntryPoint>:
TA_DestroyEntryPoint():
/home/st/桌面/OP-TEE/optee_examples/secure_storage/ta/secure_storage_ta.c:240
     42c:	f84d 7d04 	str.w	r7, [sp, #-4]!
     430:	af00      	add	r7, sp, #0
/home/st/桌面/OP-TEE/optee_examples/secure_storage/ta/secure_storage_ta.c:242
     432:	bf00      	nop
     434:	46bd      	mov	sp, r7
     436:	f85d 7b04 	ldr.w	r7, [sp], #4
     43a:	4770      	bx	lr

0000043c <TA_OpenSessionEntryPoint>:
TA_OpenSessionEntryPoint():
/home/st/桌面/OP-TEE/optee_examples/secure_storage/ta/secure_storage_ta.c:247
     43c:	f84d 7d04 	str.w	r7, [sp, #-4]!
     440:	b085      	sub	sp, #20
     442:	af00      	add	r7, sp, #0
     444:	60f8      	str	r0, [r7, #12]
     446:	60b9      	str	r1, [r7, #8]
     448:	607a      	str	r2, [r7, #4]
/home/st/桌面/OP-TEE/optee_examples/secure_storage/ta/secure_storage_ta.c:249
     44a:	f04f 0300 	mov.w	r3, #0
/home/st/桌面/OP-TEE/optee_examples/secure_storage/ta/secure_storage_ta.c:250
     44e:	4618      	mov	r0, r3
     450:	f107 0714 	add.w	r7, r7, #20
     454:	46bd      	mov	sp, r7
     456:	f85d 7b04 	ldr.w	r7, [sp], #4
     45a:	4770      	bx	lr

0000045c <TA_CloseSessionEntryPoint>:
TA_CloseSessionEntryPoint():
/home/st/桌面/OP-TEE/optee_examples/secure_storage/ta/secure_storage_ta.c:253
     45c:	f84d 7d04 	str.w	r7, [sp, #-4]!
     460:	b083      	sub	sp, #12
     462:	af00      	add	r7, sp, #0
     464:	6078      	str	r0, [r7, #4]
/home/st/桌面/OP-TEE/optee_examples/secure_storage/ta/secure_storage_ta.c:255
     466:	bf00      	nop
     468:	f107 070c 	add.w	r7, r7, #12
     46c:	46bd      	mov	sp, r7
     46e:	f85d 7b04 	ldr.w	r7, [sp], #4
     472:	4770      	bx	lr

00000474 <TA_InvokeCommandEntryPoint>:
TA_InvokeCommandEntryPoint():
/home/st/桌面/OP-TEE/optee_examples/secure_storage/ta/secure_storage_ta.c:261
     474:	e96d 7e02 	strd	r7, lr, [sp, #-8]!
     478:	b086      	sub	sp, #24
     47a:	af02      	add	r7, sp, #8
     47c:	60f8      	str	r0, [r7, #12]
     47e:	60b9      	str	r1, [r7, #8]
     480:	607a      	str	r2, [r7, #4]
     482:	603b      	str	r3, [r7, #0]
/home/st/桌面/OP-TEE/optee_examples/secure_storage/ta/secure_storage_ta.c:262
     484:	68bb      	ldr	r3, [r7, #8]
     486:	2b01      	cmp	r3, #1
     488:	d004      	beq.n	494 <TA_InvokeCommandEntryPoint+0x20>
     48a:	2b01      	cmp	r3, #1
     48c:	d308      	bcc.n	4a0 <TA_InvokeCommandEntryPoint+0x2c>
     48e:	2b02      	cmp	r3, #2
     490:	d00c      	beq.n	4ac <TA_InvokeCommandEntryPoint+0x38>
     492:	e011      	b.n	4b8 <TA_InvokeCommandEntryPoint+0x44>
/home/st/桌面/OP-TEE/optee_examples/secure_storage/ta/secure_storage_ta.c:264
     494:	6839      	ldr	r1, [r7, #0]
     496:	6878      	ldr	r0, [r7, #4]
     498:	f7ff fe20 	bl	dc <create_raw_object>
     49c:	4603      	mov	r3, r0
     49e:	e01e      	b.n	4de <TA_InvokeCommandEntryPoint+0x6a>
/home/st/桌面/OP-TEE/optee_examples/secure_storage/ta/secure_storage_ta.c:266
     4a0:	6839      	ldr	r1, [r7, #0]
     4a2:	6878      	ldr	r0, [r7, #4]
     4a4:	f7ff fec8 	bl	238 <read_raw_object>
     4a8:	4603      	mov	r3, r0
     4aa:	e018      	b.n	4de <TA_InvokeCommandEntryPoint+0x6a>
/home/st/桌面/OP-TEE/optee_examples/secure_storage/ta/secure_storage_ta.c:268
     4ac:	6839      	ldr	r1, [r7, #0]
     4ae:	6878      	ldr	r0, [r7, #4]
     4b0:	f7ff fdb6 	bl	20 <delete_object>
     4b4:	4603      	mov	r3, r0
     4b6:	e012      	b.n	4de <TA_InvokeCommandEntryPoint+0x6a>
/home/st/桌面/OP-TEE/optee_examples/secure_storage/ta/secure_storage_ta.c:270
     4b8:	68bb      	ldr	r3, [r7, #8]
     4ba:	9301      	str	r3, [sp, #4]
     4bc:	4b0a      	ldr	r3, [pc, #40]	; (4e8 <TA_InvokeCommandEntryPoint+0x74>)
     4be:	447b      	add	r3, pc
     4c0:	9300      	str	r3, [sp, #0]
     4c2:	f04f 0301 	mov.w	r3, #1
     4c6:	f04f 0201 	mov.w	r2, #1
     4ca:	f44f 7187 	mov.w	r1, #270	; 0x10e
     4ce:	4807      	ldr	r0, [pc, #28]	; (4ec <TA_InvokeCommandEntryPoint+0x78>)
     4d0:	4478      	add	r0, pc
     4d2:	f004 fe81 	bl	51d8 <trace_printf>
/home/st/桌面/OP-TEE/optee_examples/secure_storage/ta/secure_storage_ta.c:271
     4d6:	f04f 030a 	mov.w	r3, #10
     4da:	f6cf 73ff 	movt	r3, #65535	; 0xffff
/home/st/桌面/OP-TEE/optee_examples/secure_storage/ta/secure_storage_ta.c:273
     4de:	4618      	mov	r0, r3
     4e0:	f107 0710 	add.w	r7, r7, #16
     4e4:	46bd      	mov	sp, r7
     4e6:	bd80      	pop	{r7, pc}
     4e8:	0000b4b2 	.word	0x0000b4b2
     4ec:	0000b4f8 	.word	0x0000b4f8

000004f0 <__utee_from_param>:
__utee_from_param():
/home/st/桌面/OP-TEE/optee_os/lib/libutee/tee_api.c:42
     4f0:	e96d 4702 	strd	r4, r7, [sp, #-8]!
     4f4:	b086      	sub	sp, #24
     4f6:	af00      	add	r7, sp, #0
     4f8:	60f8      	str	r0, [r7, #12]
     4fa:	60b9      	str	r1, [r7, #8]
     4fc:	607a      	str	r2, [r7, #4]
/home/st/桌面/OP-TEE/optee_os/lib/libutee/tee_api.c:45
     4fe:	68bb      	ldr	r3, [r7, #8]
     500:	f04f 0400 	mov.w	r4, #0
     504:	68fa      	ldr	r2, [r7, #12]
     506:	e9c2 3400 	strd	r3, r4, [r2]
/home/st/桌面/OP-TEE/optee_os/lib/libutee/tee_api.c:46
     50a:	f04f 0300 	mov.w	r3, #0
     50e:	617b      	str	r3, [r7, #20]
     510:	e095      	b.n	63e <__utee_from_param+0x14e>
/home/st/桌面/OP-TEE/optee_os/lib/libutee/tee_api.c:47
     512:	697b      	ldr	r3, [r7, #20]
     514:	ea4f 0383 	mov.w	r3, r3, lsl #2
     518:	68ba      	ldr	r2, [r7, #8]
     51a:	fa22 f303 	lsr.w	r3, r2, r3
     51e:	f003 030f 	and.w	r3, r3, #15
     522:	f103 33ff 	add.w	r3, r3, #4294967295	; 0xffffffff
     526:	2b06      	cmp	r3, #6
     528:	d864      	bhi.n	5f4 <__utee_from_param+0x104>
     52a:	a202      	add	r2, pc, #8	; (adr r2, 534 <__utee_from_param+0x44>)
     52c:	f852 3023 	ldr.w	r3, [r2, r3, lsl #2]
     530:	441a      	add	r2, r3
     532:	4710      	bx	r2
     534:	0000001d 	.word	0x0000001d
     538:	0000001d 	.word	0x0000001d
     53c:	0000001d 	.word	0x0000001d
     540:	000000c1 	.word	0x000000c1
     544:	0000006f 	.word	0x0000006f
     548:	0000006f 	.word	0x0000006f
     54c:	0000006f 	.word	0x0000006f
/home/st/桌面/OP-TEE/optee_os/lib/libutee/tee_api.c:51
     550:	697b      	ldr	r3, [r7, #20]
     552:	ea4f 0243 	mov.w	r2, r3, lsl #1
     556:	697b      	ldr	r3, [r7, #20]
     558:	ea4f 03c3 	mov.w	r3, r3, lsl #3
     55c:	6879      	ldr	r1, [r7, #4]
     55e:	440b      	add	r3, r1
     560:	681b      	ldr	r3, [r3, #0]
     562:	f04f 0400 	mov.w	r4, #0
     566:	68f9      	ldr	r1, [r7, #12]
     568:	f102 0201 	add.w	r2, r2, #1
     56c:	ea4f 02c2 	mov.w	r2, r2, lsl #3
     570:	440a      	add	r2, r1
     572:	e9c2 3400 	strd	r3, r4, [r2]
/home/st/桌面/OP-TEE/optee_os/lib/libutee/tee_api.c:52
     576:	697b      	ldr	r3, [r7, #20]
     578:	ea4f 0343 	mov.w	r3, r3, lsl #1
     57c:	f103 0201 	add.w	r2, r3, #1
     580:	697b      	ldr	r3, [r7, #20]
     582:	ea4f 03c3 	mov.w	r3, r3, lsl #3
     586:	6879      	ldr	r1, [r7, #4]
     588:	440b      	add	r3, r1
     58a:	685b      	ldr	r3, [r3, #4]
     58c:	f04f 0400 	mov.w	r4, #0
     590:	68f9      	ldr	r1, [r7, #12]
     592:	f102 0201 	add.w	r2, r2, #1
     596:	ea4f 02c2 	mov.w	r2, r2, lsl #3
     59a:	440a      	add	r2, r1
     59c:	e9c2 3400 	strd	r3, r4, [r2]
/home/st/桌面/OP-TEE/optee_os/lib/libutee/tee_api.c:53
     5a0:	e049      	b.n	636 <__utee_from_param+0x146>
/home/st/桌面/OP-TEE/optee_os/lib/libutee/tee_api.c:57
     5a2:	697b      	ldr	r3, [r7, #20]
     5a4:	ea4f 0243 	mov.w	r2, r3, lsl #1
     5a8:	697b      	ldr	r3, [r7, #20]
     5aa:	ea4f 03c3 	mov.w	r3, r3, lsl #3
     5ae:	6879      	ldr	r1, [r7, #4]
     5b0:	440b      	add	r3, r1
     5b2:	681b      	ldr	r3, [r3, #0]
     5b4:	f04f 0400 	mov.w	r4, #0
     5b8:	68f9      	ldr	r1, [r7, #12]
     5ba:	f102 0201 	add.w	r2, r2, #1
     5be:	ea4f 02c2 	mov.w	r2, r2, lsl #3
     5c2:	440a      	add	r2, r1
     5c4:	e9c2 3400 	strd	r3, r4, [r2]
/home/st/桌面/OP-TEE/optee_os/lib/libutee/tee_api.c:58
     5c8:	697b      	ldr	r3, [r7, #20]
     5ca:	ea4f 0343 	mov.w	r3, r3, lsl #1
     5ce:	f103 0201 	add.w	r2, r3, #1
     5d2:	697b      	ldr	r3, [r7, #20]
     5d4:	ea4f 03c3 	mov.w	r3, r3, lsl #3
     5d8:	6879      	ldr	r1, [r7, #4]
     5da:	440b      	add	r3, r1
     5dc:	685b      	ldr	r3, [r3, #4]
     5de:	f04f 0400 	mov.w	r4, #0
     5e2:	68f9      	ldr	r1, [r7, #12]
     5e4:	f102 0201 	add.w	r2, r2, #1
     5e8:	ea4f 02c2 	mov.w	r2, r2, lsl #3
     5ec:	440a      	add	r2, r1
     5ee:	e9c2 3400 	strd	r3, r4, [r2]
/home/st/桌面/OP-TEE/optee_os/lib/libutee/tee_api.c:59
     5f2:	e020      	b.n	636 <__utee_from_param+0x146>
/home/st/桌面/OP-TEE/optee_os/lib/libutee/tee_api.c:61
     5f4:	697b      	ldr	r3, [r7, #20]
     5f6:	ea4f 0343 	mov.w	r3, r3, lsl #1
     5fa:	68fa      	ldr	r2, [r7, #12]
     5fc:	f103 0301 	add.w	r3, r3, #1
     600:	ea4f 03c3 	mov.w	r3, r3, lsl #3
     604:	441a      	add	r2, r3
     606:	f04f 0300 	mov.w	r3, #0
     60a:	f04f 0400 	mov.w	r4, #0
     60e:	e9c2 3400 	strd	r3, r4, [r2]
/home/st/桌面/OP-TEE/optee_os/lib/libutee/tee_api.c:62
     612:	697b      	ldr	r3, [r7, #20]
     614:	ea4f 0343 	mov.w	r3, r3, lsl #1
     618:	f103 0301 	add.w	r3, r3, #1
     61c:	68fa      	ldr	r2, [r7, #12]
     61e:	f103 0301 	add.w	r3, r3, #1
     622:	ea4f 03c3 	mov.w	r3, r3, lsl #3
     626:	441a      	add	r2, r3
     628:	f04f 0300 	mov.w	r3, #0
     62c:	f04f 0400 	mov.w	r4, #0
     630:	e9c2 3400 	strd	r3, r4, [r2]
/home/st/桌面/OP-TEE/optee_os/lib/libutee/tee_api.c:63
     634:	bf00      	nop
/home/st/桌面/OP-TEE/optee_os/lib/libutee/tee_api.c:46 (discriminator 2)
     636:	697b      	ldr	r3, [r7, #20]
     638:	f103 0301 	add.w	r3, r3, #1
     63c:	617b      	str	r3, [r7, #20]
/home/st/桌面/OP-TEE/optee_os/lib/libutee/tee_api.c:46 (discriminator 1)
     63e:	697b      	ldr	r3, [r7, #20]
     640:	2b03      	cmp	r3, #3
     642:	f67f af66 	bls.w	512 <__utee_from_param+0x22>
/home/st/桌面/OP-TEE/optee_os/lib/libutee/tee_api.c:66
     646:	bf00      	nop
     648:	f107 0718 	add.w	r7, r7, #24
     64c:	46bd      	mov	sp, r7
     64e:	e9dd 4700 	ldrd	r4, r7, [sp]
     652:	b002      	add	sp, #8
     654:	4770      	bx	lr

00000656 <__utee_to_param>:
__utee_to_param():
/home/st/桌面/OP-TEE/optee_os/lib/libutee/tee_api.c:70
     656:	e96d 4702 	strd	r4, r7, [sp, #-8]!
     65a:	b088      	sub	sp, #32
     65c:	af00      	add	r7, sp, #0
     65e:	60f8      	str	r0, [r7, #12]
     660:	60b9      	str	r1, [r7, #8]
     662:	607a      	str	r2, [r7, #4]
/home/st/桌面/OP-TEE/optee_os/lib/libutee/tee_api.c:72
     664:	687b      	ldr	r3, [r7, #4]
     666:	e9d3 3400 	ldrd	r3, r4, [r3]
     66a:	61bb      	str	r3, [r7, #24]
/home/st/桌面/OP-TEE/optee_os/lib/libutee/tee_api.c:74
     66c:	f04f 0300 	mov.w	r3, #0
     670:	61fb      	str	r3, [r7, #28]
     672:	e05c      	b.n	72e <__utee_to_param+0xd8>
/home/st/桌面/OP-TEE/optee_os/lib/libutee/tee_api.c:75
     674:	69fb      	ldr	r3, [r7, #28]
     676:	ea4f 0343 	mov.w	r3, r3, lsl #1
     67a:	687a      	ldr	r2, [r7, #4]
     67c:	f103 0301 	add.w	r3, r3, #1
     680:	ea4f 03c3 	mov.w	r3, r3, lsl #3
     684:	4413      	add	r3, r2
     686:	e9d3 3400 	ldrd	r3, r4, [r3]
     68a:	617b      	str	r3, [r7, #20]
/home/st/桌面/OP-TEE/optee_os/lib/libutee/tee_api.c:76
     68c:	69fb      	ldr	r3, [r7, #28]
     68e:	ea4f 0343 	mov.w	r3, r3, lsl #1
     692:	f103 0301 	add.w	r3, r3, #1
     696:	687a      	ldr	r2, [r7, #4]
     698:	f103 0301 	add.w	r3, r3, #1
     69c:	ea4f 03c3 	mov.w	r3, r3, lsl #3
     6a0:	4413      	add	r3, r2
     6a2:	e9d3 3400 	ldrd	r3, r4, [r3]
     6a6:	613b      	str	r3, [r7, #16]
/home/st/桌面/OP-TEE/optee_os/lib/libutee/tee_api.c:78
     6a8:	69fb      	ldr	r3, [r7, #28]
     6aa:	ea4f 0383 	mov.w	r3, r3, lsl #2
     6ae:	69ba      	ldr	r2, [r7, #24]
     6b0:	fa22 f303 	lsr.w	r3, r2, r3
     6b4:	f003 030f 	and.w	r3, r3, #15
     6b8:	f103 33ff 	add.w	r3, r3, #4294967295	; 0xffffffff
     6bc:	2b06      	cmp	r3, #6
     6be:	d831      	bhi.n	724 <__utee_to_param+0xce>
     6c0:	a202      	add	r2, pc, #8	; (adr r2, 6cc <__utee_to_param+0x76>)
     6c2:	f852 3023 	ldr.w	r3, [r2, r3, lsl #2]
     6c6:	441a      	add	r2, r3
     6c8:	4710      	bx	r2
     6ca:	bf00      	nop
     6cc:	0000001d 	.word	0x0000001d
     6d0:	0000001d 	.word	0x0000001d
     6d4:	0000001d 	.word	0x0000001d
     6d8:	00000059 	.word	0x00000059
     6dc:	0000003b 	.word	0x0000003b
     6e0:	0000003b 	.word	0x0000003b
     6e4:	0000003b 	.word	0x0000003b
/home/st/桌面/OP-TEE/optee_os/lib/libutee/tee_api.c:82
     6e8:	69fb      	ldr	r3, [r7, #28]
     6ea:	ea4f 03c3 	mov.w	r3, r3, lsl #3
     6ee:	68fa      	ldr	r2, [r7, #12]
     6f0:	4413      	add	r3, r2
     6f2:	697a      	ldr	r2, [r7, #20]
     6f4:	601a      	str	r2, [r3, #0]
/home/st/桌面/OP-TEE/optee_os/lib/libutee/tee_api.c:83
     6f6:	69fb      	ldr	r3, [r7, #28]
     6f8:	ea4f 03c3 	mov.w	r3, r3, lsl #3
     6fc:	68fa      	ldr	r2, [r7, #12]
     6fe:	4413      	add	r3, r2
     700:	693a      	ldr	r2, [r7, #16]
     702:	605a      	str	r2, [r3, #4]
/home/st/桌面/OP-TEE/optee_os/lib/libutee/tee_api.c:84
     704:	e00f      	b.n	726 <__utee_to_param+0xd0>
/home/st/桌面/OP-TEE/optee_os/lib/libutee/tee_api.c:88
     706:	69fb      	ldr	r3, [r7, #28]
     708:	ea4f 03c3 	mov.w	r3, r3, lsl #3
     70c:	68fa      	ldr	r2, [r7, #12]
     70e:	4413      	add	r3, r2
     710:	697a      	ldr	r2, [r7, #20]
     712:	601a      	str	r2, [r3, #0]
/home/st/桌面/OP-TEE/optee_os/lib/libutee/tee_api.c:89
     714:	69fb      	ldr	r3, [r7, #28]
     716:	ea4f 03c3 	mov.w	r3, r3, lsl #3
     71a:	68fa      	ldr	r2, [r7, #12]
     71c:	4413      	add	r3, r2
     71e:	693a      	ldr	r2, [r7, #16]
     720:	605a      	str	r2, [r3, #4]
/home/st/桌面/OP-TEE/optee_os/lib/libutee/tee_api.c:90
     722:	e000      	b.n	726 <__utee_to_param+0xd0>
/home/st/桌面/OP-TEE/optee_os/lib/libutee/tee_api.c:92
     724:	bf00      	nop
/home/st/桌面/OP-TEE/optee_os/lib/libutee/tee_api.c:74 (discriminator 2)
     726:	69fb      	ldr	r3, [r7, #28]
     728:	f103 0301 	add.w	r3, r3, #1
     72c:	61fb      	str	r3, [r7, #28]
/home/st/桌面/OP-TEE/optee_os/lib/libutee/tee_api.c:74 (discriminator 1)
     72e:	69fb      	ldr	r3, [r7, #28]
     730:	2b03      	cmp	r3, #3
     732:	d99f      	bls.n	674 <__utee_to_param+0x1e>
/home/st/桌面/OP-TEE/optee_os/lib/libutee/tee_api.c:96
     734:	68bb      	ldr	r3, [r7, #8]
     736:	2b00      	cmp	r3, #0
     738:	d002      	beq.n	740 <__utee_to_param+0xea>
/home/st/桌面/OP-TEE/optee_os/lib/libutee/tee_api.c:97
     73a:	68bb      	ldr	r3, [r7, #8]
     73c:	69ba      	ldr	r2, [r7, #24]
     73e:	601a      	str	r2, [r3, #0]
/home/st/桌面/OP-TEE/optee_os/lib/libutee/tee_api.c:98
     740:	bf00      	nop
     742:	f107 0720 	add.w	r7, r7, #32
     746:	46bd      	mov	sp, r7
     748:	e9dd 4700 	ldrd	r4, r7, [sp]
     74c:	b002      	add	sp, #8
     74e:	4770      	bx	lr

00000750 <TEE_OpenTASession>:
TEE_OpenTASession():
/home/st/桌面/OP-TEE/optee_os/lib/libutee/tee_api.c:106
     750:	e96d 7e02 	strd	r7, lr, [sp, #-8]!
     754:	b09c      	sub	sp, #112	; 0x70
     756:	af02      	add	r7, sp, #8
     758:	60f8      	str	r0, [r7, #12]
     75a:	60b9      	str	r1, [r7, #8]
     75c:	607a      	str	r2, [r7, #4]
     75e:	603b      	str	r3, [r7, #0]
/home/st/桌面/OP-TEE/optee_os/lib/libutee/tee_api.c:111
     760:	f107 0318 	add.w	r3, r7, #24
     764:	683a      	ldr	r2, [r7, #0]
     766:	6879      	ldr	r1, [r7, #4]
     768:	4618      	mov	r0, r3
     76a:	f7ff fec1 	bl	4f0 <__utee_from_param>
/home/st/桌面/OP-TEE/optee_os/lib/libutee/tee_api.c:112
     76e:	f107 0114 	add.w	r1, r7, #20
     772:	f107 0218 	add.w	r2, r7, #24
     776:	6f7b      	ldr	r3, [r7, #116]	; 0x74
     778:	9300      	str	r3, [sp, #0]
     77a:	460b      	mov	r3, r1
     77c:	68b9      	ldr	r1, [r7, #8]
     77e:	68f8      	ldr	r0, [r7, #12]
     780:	f000 eca2 	blx	10c8 <utee_open_ta_session>
     784:	6678      	str	r0, [r7, #100]	; 0x64
/home/st/桌面/OP-TEE/optee_os/lib/libutee/tee_api.c:114
     786:	f107 0318 	add.w	r3, r7, #24
     78a:	461a      	mov	r2, r3
     78c:	f04f 0100 	mov.w	r1, #0
     790:	6838      	ldr	r0, [r7, #0]
     792:	f7ff ff60 	bl	656 <__utee_to_param>
/home/st/桌面/OP-TEE/optee_os/lib/libutee/tee_api.c:120
     796:	6e7b      	ldr	r3, [r7, #100]	; 0x64
     798:	2b00      	cmp	r3, #0
     79a:	d002      	beq.n	7a2 <TEE_OpenTASession+0x52>
/home/st/桌面/OP-TEE/optee_os/lib/libutee/tee_api.c:121
     79c:	f04f 0300 	mov.w	r3, #0
     7a0:	617b      	str	r3, [r7, #20]
/home/st/桌面/OP-TEE/optee_os/lib/libutee/tee_api.c:123
     7a2:	697b      	ldr	r3, [r7, #20]
     7a4:	461a      	mov	r2, r3
     7a6:	6f3b      	ldr	r3, [r7, #112]	; 0x70
     7a8:	601a      	str	r2, [r3, #0]
/home/st/桌面/OP-TEE/optee_os/lib/libutee/tee_api.c:124
     7aa:	6e7b      	ldr	r3, [r7, #100]	; 0x64
/home/st/桌面/OP-TEE/optee_os/lib/libutee/tee_api.c:125
     7ac:	4618      	mov	r0, r3
     7ae:	f107 0768 	add.w	r7, r7, #104	; 0x68
     7b2:	46bd      	mov	sp, r7
     7b4:	bd80      	pop	{r7, pc}

000007b6 <TEE_CloseTASession>:
TEE_CloseTASession():
/home/st/桌面/OP-TEE/optee_os/lib/libutee/tee_api.c:128
     7b6:	e96d 7e02 	strd	r7, lr, [sp, #-8]!
     7ba:	b084      	sub	sp, #16
     7bc:	af00      	add	r7, sp, #0
     7be:	6078      	str	r0, [r7, #4]
/home/st/桌面/OP-TEE/optee_os/lib/libutee/tee_api.c:129
     7c0:	687b      	ldr	r3, [r7, #4]
     7c2:	2b00      	cmp	r3, #0
     7c4:	d00a      	beq.n	7dc <TEE_CloseTASession+0x26>
/home/st/桌面/OP-TEE/optee_os/lib/libutee/tee_api.c:130
     7c6:	687b      	ldr	r3, [r7, #4]
     7c8:	4618      	mov	r0, r3
     7ca:	f000 ec8a 	blx	10e0 <utee_close_ta_session>
     7ce:	60f8      	str	r0, [r7, #12]
/home/st/桌面/OP-TEE/optee_os/lib/libutee/tee_api.c:132
     7d0:	68fb      	ldr	r3, [r7, #12]
     7d2:	2b00      	cmp	r3, #0
     7d4:	d002      	beq.n	7dc <TEE_CloseTASession+0x26>
/home/st/桌面/OP-TEE/optee_os/lib/libutee/tee_api.c:133
     7d6:	68f8      	ldr	r0, [r7, #12]
     7d8:	f007 fb8e 	bl	7ef8 <TEE_Panic>
/home/st/桌面/OP-TEE/optee_os/lib/libutee/tee_api.c:135
     7dc:	bf00      	nop
     7de:	f107 0710 	add.w	r7, r7, #16
     7e2:	46bd      	mov	sp, r7
     7e4:	bd80      	pop	{r7, pc}

000007e6 <TEE_InvokeTACommand>:
TEE_InvokeTACommand():
/home/st/桌面/OP-TEE/optee_os/lib/libutee/tee_api.c:142
     7e6:	e96d 7e02 	strd	r7, lr, [sp, #-8]!
     7ea:	b09a      	sub	sp, #104	; 0x68
     7ec:	af02      	add	r7, sp, #8
     7ee:	60f8      	str	r0, [r7, #12]
     7f0:	60b9      	str	r1, [r7, #8]
     7f2:	607a      	str	r2, [r7, #4]
     7f4:	603b      	str	r3, [r7, #0]
/home/st/桌面/OP-TEE/optee_os/lib/libutee/tee_api.c:147
     7f6:	f107 0310 	add.w	r3, r7, #16
     7fa:	6eba      	ldr	r2, [r7, #104]	; 0x68
     7fc:	6839      	ldr	r1, [r7, #0]
     7fe:	4618      	mov	r0, r3
     800:	f7ff fe76 	bl	4f0 <__utee_from_param>
/home/st/桌面/OP-TEE/optee_os/lib/libutee/tee_api.c:148
     804:	68f8      	ldr	r0, [r7, #12]
     806:	f107 0210 	add.w	r2, r7, #16
     80a:	f107 0358 	add.w	r3, r7, #88	; 0x58
     80e:	9300      	str	r3, [sp, #0]
     810:	4613      	mov	r3, r2
     812:	687a      	ldr	r2, [r7, #4]
     814:	68b9      	ldr	r1, [r7, #8]
     816:	f000 ec6e 	blx	10f4 <utee_invoke_ta_command>
     81a:	65f8      	str	r0, [r7, #92]	; 0x5c
/home/st/桌面/OP-TEE/optee_os/lib/libutee/tee_api.c:151
     81c:	f107 0310 	add.w	r3, r7, #16
     820:	461a      	mov	r2, r3
     822:	f04f 0100 	mov.w	r1, #0
     826:	6eb8      	ldr	r0, [r7, #104]	; 0x68
     828:	f7ff ff15 	bl	656 <__utee_to_param>
/home/st/桌面/OP-TEE/optee_os/lib/libutee/tee_api.c:153
     82c:	6efb      	ldr	r3, [r7, #108]	; 0x6c
     82e:	2b00      	cmp	r3, #0
     830:	d002      	beq.n	838 <TEE_InvokeTACommand+0x52>
/home/st/桌面/OP-TEE/optee_os/lib/libutee/tee_api.c:154
     832:	6dba      	ldr	r2, [r7, #88]	; 0x58
     834:	6efb      	ldr	r3, [r7, #108]	; 0x6c
     836:	601a      	str	r2, [r3, #0]
/home/st/桌面/OP-TEE/optee_os/lib/libutee/tee_api.c:156
     838:	6dbb      	ldr	r3, [r7, #88]	; 0x58
     83a:	2b04      	cmp	r3, #4
     83c:	d101      	bne.n	842 <TEE_InvokeTACommand+0x5c>
/home/st/桌面/OP-TEE/optee_os/lib/libutee/tee_api.c:157
     83e:	6dfb      	ldr	r3, [r7, #92]	; 0x5c
     840:	e014      	b.n	86c <TEE_InvokeTACommand+0x86>
/home/st/桌面/OP-TEE/optee_os/lib/libutee/tee_api.c:159
     842:	6dfb      	ldr	r3, [r7, #92]	; 0x5c
     844:	2b00      	cmp	r3, #0
     846:	d010      	beq.n	86a <TEE_InvokeTACommand+0x84>
/home/st/桌面/OP-TEE/optee_os/lib/libutee/tee_api.c:159 (discriminator 1)
     848:	6dfa      	ldr	r2, [r7, #92]	; 0x5c
     84a:	f04f 030c 	mov.w	r3, #12
     84e:	f6cf 73ff 	movt	r3, #65535	; 0xffff
     852:	429a      	cmp	r2, r3
     854:	d009      	beq.n	86a <TEE_InvokeTACommand+0x84>
/home/st/桌面/OP-TEE/optee_os/lib/libutee/tee_api.c:160
     856:	6dfa      	ldr	r2, [r7, #92]	; 0x5c
     858:	f243 0324 	movw	r3, #12324	; 0x3024
     85c:	f6cf 73ff 	movt	r3, #65535	; 0xffff
     860:	429a      	cmp	r2, r3
     862:	d002      	beq.n	86a <TEE_InvokeTACommand+0x84>
/home/st/桌面/OP-TEE/optee_os/lib/libutee/tee_api.c:162
     864:	6df8      	ldr	r0, [r7, #92]	; 0x5c
     866:	f007 fb47 	bl	7ef8 <TEE_Panic>
/home/st/桌面/OP-TEE/optee_os/lib/libutee/tee_api.c:164
     86a:	6dfb      	ldr	r3, [r7, #92]	; 0x5c
/home/st/桌面/OP-TEE/optee_os/lib/libutee/tee_api.c:165 (discriminator 1)
     86c:	4618      	mov	r0, r3
     86e:	f107 0760 	add.w	r7, r7, #96	; 0x60
     872:	46bd      	mov	sp, r7
     874:	bd80      	pop	{r7, pc}

00000876 <TEE_GetCancellationFlag>:
TEE_GetCancellationFlag():
/home/st/桌面/OP-TEE/optee_os/lib/libutee/tee_api.c:170
     876:	e96d 7e02 	strd	r7, lr, [sp, #-8]!
     87a:	b082      	sub	sp, #8
     87c:	af00      	add	r7, sp, #0
/home/st/桌面/OP-TEE/optee_os/lib/libutee/tee_api.c:172
     87e:	463b      	mov	r3, r7
     880:	4618      	mov	r0, r3
     882:	f000 ec44 	blx	110c <utee_get_cancellation_flag>
     886:	6078      	str	r0, [r7, #4]
/home/st/桌面/OP-TEE/optee_os/lib/libutee/tee_api.c:174
     888:	687b      	ldr	r3, [r7, #4]
     88a:	2b00      	cmp	r3, #0
     88c:	d002      	beq.n	894 <TEE_GetCancellationFlag+0x1e>
/home/st/桌面/OP-TEE/optee_os/lib/libutee/tee_api.c:175
     88e:	f04f 0300 	mov.w	r3, #0
     892:	603b      	str	r3, [r7, #0]
/home/st/桌面/OP-TEE/optee_os/lib/libutee/tee_api.c:176
     894:	683b      	ldr	r3, [r7, #0]
     896:	2b00      	cmp	r3, #0
     898:	bf14      	ite	ne
     89a:	2301      	movne	r3, #1
     89c:	2300      	moveq	r3, #0
     89e:	b2db      	uxtb	r3, r3
/home/st/桌面/OP-TEE/optee_os/lib/libutee/tee_api.c:177
     8a0:	4618      	mov	r0, r3
     8a2:	f107 0708 	add.w	r7, r7, #8
     8a6:	46bd      	mov	sp, r7
     8a8:	bd80      	pop	{r7, pc}

000008aa <TEE_UnmaskCancellation>:
TEE_UnmaskCancellation():
/home/st/桌面/OP-TEE/optee_os/lib/libutee/tee_api.c:180
     8aa:	e96d 7e02 	strd	r7, lr, [sp, #-8]!
     8ae:	b082      	sub	sp, #8
     8b0:	af00      	add	r7, sp, #0
/home/st/桌面/OP-TEE/optee_os/lib/libutee/tee_api.c:182
     8b2:	463b      	mov	r3, r7
     8b4:	4618      	mov	r0, r3
     8b6:	f000 ec3e 	blx	1134 <utee_unmask_cancellation>
     8ba:	6078      	str	r0, [r7, #4]
/home/st/桌面/OP-TEE/optee_os/lib/libutee/tee_api.c:184
     8bc:	687b      	ldr	r3, [r7, #4]
     8be:	2b00      	cmp	r3, #0
     8c0:	d002      	beq.n	8c8 <TEE_UnmaskCancellation+0x1e>
/home/st/桌面/OP-TEE/optee_os/lib/libutee/tee_api.c:185
     8c2:	6878      	ldr	r0, [r7, #4]
     8c4:	f007 fb18 	bl	7ef8 <TEE_Panic>
/home/st/桌面/OP-TEE/optee_os/lib/libutee/tee_api.c:186
     8c8:	683b      	ldr	r3, [r7, #0]
     8ca:	2b00      	cmp	r3, #0
     8cc:	bf14      	ite	ne
     8ce:	2301      	movne	r3, #1
     8d0:	2300      	moveq	r3, #0
     8d2:	b2db      	uxtb	r3, r3
/home/st/桌面/OP-TEE/optee_os/lib/libutee/tee_api.c:187
     8d4:	4618      	mov	r0, r3
     8d6:	f107 0708 	add.w	r7, r7, #8
     8da:	46bd      	mov	sp, r7
     8dc:	bd80      	pop	{r7, pc}

000008de <TEE_MaskCancellation>:
TEE_MaskCancellation():
/home/st/桌面/OP-TEE/optee_os/lib/libutee/tee_api.c:190
     8de:	e96d 7e02 	strd	r7, lr, [sp, #-8]!
     8e2:	b082      	sub	sp, #8
     8e4:	af00      	add	r7, sp, #0
/home/st/桌面/OP-TEE/optee_os/lib/libutee/tee_api.c:192
     8e6:	463b      	mov	r3, r7
     8e8:	4618      	mov	r0, r3
     8ea:	f000 ec2e 	blx	1148 <utee_mask_cancellation>
     8ee:	6078      	str	r0, [r7, #4]
/home/st/桌面/OP-TEE/optee_os/lib/libutee/tee_api.c:194
     8f0:	687b      	ldr	r3, [r7, #4]
     8f2:	2b00      	cmp	r3, #0
     8f4:	d002      	beq.n	8fc <TEE_MaskCancellation+0x1e>
/home/st/桌面/OP-TEE/optee_os/lib/libutee/tee_api.c:195
     8f6:	6878      	ldr	r0, [r7, #4]
     8f8:	f007 fafe 	bl	7ef8 <TEE_Panic>
/home/st/桌面/OP-TEE/optee_os/lib/libutee/tee_api.c:196
     8fc:	683b      	ldr	r3, [r7, #0]
     8fe:	2b00      	cmp	r3, #0
     900:	bf14      	ite	ne
     902:	2301      	movne	r3, #1
     904:	2300      	moveq	r3, #0
     906:	b2db      	uxtb	r3, r3
/home/st/桌面/OP-TEE/optee_os/lib/libutee/tee_api.c:197
     908:	4618      	mov	r0, r3
     90a:	f107 0708 	add.w	r7, r7, #8
     90e:	46bd      	mov	sp, r7
     910:	bd80      	pop	{r7, pc}

00000912 <TEE_CheckMemoryAccessRights>:
TEE_CheckMemoryAccessRights():
/home/st/桌面/OP-TEE/optee_os/lib/libutee/tee_api.c:203
     912:	e96d 7e02 	strd	r7, lr, [sp, #-8]!
     916:	b086      	sub	sp, #24
     918:	af00      	add	r7, sp, #0
     91a:	60f8      	str	r0, [r7, #12]
     91c:	60b9      	str	r1, [r7, #8]
     91e:	607a      	str	r2, [r7, #4]
/home/st/桌面/OP-TEE/optee_os/lib/libutee/tee_api.c:206
     920:	687b      	ldr	r3, [r7, #4]
     922:	2b00      	cmp	r3, #0
     924:	d102      	bne.n	92c <TEE_CheckMemoryAccessRights+0x1a>
/home/st/桌面/OP-TEE/optee_os/lib/libutee/tee_api.c:207
     926:	f04f 0300 	mov.w	r3, #0
     92a:	e00e      	b.n	94a <TEE_CheckMemoryAccessRights+0x38>
/home/st/桌面/OP-TEE/optee_os/lib/libutee/tee_api.c:210
     92c:	687a      	ldr	r2, [r7, #4]
     92e:	68b9      	ldr	r1, [r7, #8]
     930:	68f8      	ldr	r0, [r7, #12]
     932:	f000 ebf6 	blx	1120 <utee_check_access_rights>
     936:	6178      	str	r0, [r7, #20]
/home/st/桌面/OP-TEE/optee_os/lib/libutee/tee_api.c:211
     938:	697b      	ldr	r3, [r7, #20]
     93a:	2b00      	cmp	r3, #0
     93c:	d103      	bne.n	946 <TEE_CheckMemoryAccessRights+0x34>
/home/st/桌面/OP-TEE/optee_os/lib/libutee/tee_api.c:219
     93e:	f04f 0300 	mov.w	r3, #0
     942:	617b      	str	r3, [r7, #20]
     944:	e000      	b.n	948 <TEE_CheckMemoryAccessRights+0x36>
/home/st/桌面/OP-TEE/optee_os/lib/libutee/tee_api.c:212
     946:	bf00      	nop
/home/st/桌面/OP-TEE/optee_os/lib/libutee/tee_api.c:221
     948:	697b      	ldr	r3, [r7, #20]
/home/st/桌面/OP-TEE/optee_os/lib/libutee/tee_api.c:222
     94a:	4618      	mov	r0, r3
     94c:	f107 0718 	add.w	r7, r7, #24
     950:	46bd      	mov	sp, r7
     952:	bd80      	pop	{r7, pc}

00000954 <TEE_SetInstanceData>:
TEE_SetInstanceData():
/home/st/桌面/OP-TEE/optee_os/lib/libutee/tee_api.c:225
     954:	f84d 7d04 	str.w	r7, [sp, #-4]!
     958:	b083      	sub	sp, #12
     95a:	af00      	add	r7, sp, #0
     95c:	6078      	str	r0, [r7, #4]
/home/st/桌面/OP-TEE/optee_os/lib/libutee/tee_api.c:226
     95e:	4b06      	ldr	r3, [pc, #24]	; (978 <TEE_SetInstanceData+0x24>)
     960:	447b      	add	r3, pc
     962:	461a      	mov	r2, r3
     964:	687b      	ldr	r3, [r7, #4]
     966:	6013      	str	r3, [r2, #0]
/home/st/桌面/OP-TEE/optee_os/lib/libutee/tee_api.c:227
     968:	bf00      	nop
     96a:	f107 070c 	add.w	r7, r7, #12
     96e:	46bd      	mov	sp, r7
     970:	f85d 7b04 	ldr.w	r7, [sp], #4
     974:	4770      	bx	lr
     976:	bf00      	nop
     978:	00016738 	.word	0x00016738

0000097c <TEE_GetInstanceData>:
TEE_GetInstanceData():
/home/st/桌面/OP-TEE/optee_os/lib/libutee/tee_api.c:230
     97c:	f84d 7d04 	str.w	r7, [sp, #-4]!
     980:	af00      	add	r7, sp, #0
/home/st/桌面/OP-TEE/optee_os/lib/libutee/tee_api.c:231
     982:	4b04      	ldr	r3, [pc, #16]	; (994 <TEE_GetInstanceData+0x18>)
     984:	447b      	add	r3, pc
     986:	681b      	ldr	r3, [r3, #0]
/home/st/桌面/OP-TEE/optee_os/lib/libutee/tee_api.c:232
     988:	4618      	mov	r0, r3
     98a:	46bd      	mov	sp, r7
     98c:	f85d 7b04 	ldr.w	r7, [sp], #4
     990:	4770      	bx	lr
     992:	bf00      	nop
     994:	00016714 	.word	0x00016714

00000998 <TEE_MemMove>:
TEE_MemMove():
/home/st/桌面/OP-TEE/optee_os/lib/libutee/tee_api.c:235
     998:	e96d 7e02 	strd	r7, lr, [sp, #-8]!
     99c:	b084      	sub	sp, #16
     99e:	af00      	add	r7, sp, #0
     9a0:	60f8      	str	r0, [r7, #12]
     9a2:	60b9      	str	r1, [r7, #8]
     9a4:	607a      	str	r2, [r7, #4]
/home/st/桌面/OP-TEE/optee_os/lib/libutee/tee_api.c:236
     9a6:	687a      	ldr	r2, [r7, #4]
     9a8:	68b9      	ldr	r1, [r7, #8]
     9aa:	68f8      	ldr	r0, [r7, #12]
     9ac:	f007 fc10 	bl	81d0 <memmove>
     9b0:	4603      	mov	r3, r0
/home/st/桌面/OP-TEE/optee_os/lib/libutee/tee_api.c:237
     9b2:	4618      	mov	r0, r3
     9b4:	f107 0710 	add.w	r7, r7, #16
     9b8:	46bd      	mov	sp, r7
     9ba:	bd80      	pop	{r7, pc}

000009bc <TEE_MemCompare>:
TEE_MemCompare():
/home/st/桌面/OP-TEE/optee_os/lib/libutee/tee_api.c:240
     9bc:	e96d 7e02 	strd	r7, lr, [sp, #-8]!
     9c0:	b084      	sub	sp, #16
     9c2:	af00      	add	r7, sp, #0
     9c4:	60f8      	str	r0, [r7, #12]
     9c6:	60b9      	str	r1, [r7, #8]
     9c8:	607a      	str	r2, [r7, #4]
/home/st/桌面/OP-TEE/optee_os/lib/libutee/tee_api.c:241
     9ca:	687a      	ldr	r2, [r7, #4]
     9cc:	68b9      	ldr	r1, [r7, #8]
     9ce:	68f8      	ldr	r0, [r7, #12]
     9d0:	f007 fb29 	bl	8026 <memcmp>
     9d4:	4603      	mov	r3, r0
/home/st/桌面/OP-TEE/optee_os/lib/libutee/tee_api.c:242
     9d6:	4618      	mov	r0, r3
     9d8:	f107 0710 	add.w	r7, r7, #16
     9dc:	46bd      	mov	sp, r7
     9de:	bd80      	pop	{r7, pc}

000009e0 <TEE_MemFill>:
TEE_MemFill():
/home/st/桌面/OP-TEE/optee_os/lib/libutee/tee_api.c:245
     9e0:	e96d 7e02 	strd	r7, lr, [sp, #-8]!
     9e4:	b084      	sub	sp, #16
     9e6:	af00      	add	r7, sp, #0
     9e8:	60f8      	str	r0, [r7, #12]
     9ea:	60b9      	str	r1, [r7, #8]
     9ec:	607a      	str	r2, [r7, #4]
/home/st/桌面/OP-TEE/optee_os/lib/libutee/tee_api.c:246
     9ee:	68bb      	ldr	r3, [r7, #8]
     9f0:	687a      	ldr	r2, [r7, #4]
     9f2:	4619      	mov	r1, r3
     9f4:	68f8      	ldr	r0, [r7, #12]
     9f6:	f007 fc8a 	bl	830e <memset>
     9fa:	4603      	mov	r3, r0
/home/st/桌面/OP-TEE/optee_os/lib/libutee/tee_api.c:247
     9fc:	4618      	mov	r0, r3
     9fe:	f107 0710 	add.w	r7, r7, #16
     a02:	46bd      	mov	sp, r7
     a04:	bd80      	pop	{r7, pc}

00000a06 <TEE_GetSystemTime>:
TEE_GetSystemTime():
/home/st/桌面/OP-TEE/optee_os/lib/libutee/tee_api.c:252
     a06:	e96d 7e02 	strd	r7, lr, [sp, #-8]!
     a0a:	b084      	sub	sp, #16
     a0c:	af00      	add	r7, sp, #0
     a0e:	6078      	str	r0, [r7, #4]
/home/st/桌面/OP-TEE/optee_os/lib/libutee/tee_api.c:253
     a10:	6879      	ldr	r1, [r7, #4]
     a12:	f04f 0000 	mov.w	r0, #0
     a16:	f000 ebac 	blx	1170 <utee_get_time>
     a1a:	60f8      	str	r0, [r7, #12]
/home/st/桌面/OP-TEE/optee_os/lib/libutee/tee_api.c:255
     a1c:	68fb      	ldr	r3, [r7, #12]
     a1e:	2b00      	cmp	r3, #0
     a20:	d002      	beq.n	a28 <TEE_GetSystemTime+0x22>
/home/st/桌面/OP-TEE/optee_os/lib/libutee/tee_api.c:256
     a22:	68f8      	ldr	r0, [r7, #12]
     a24:	f007 fa68 	bl	7ef8 <TEE_Panic>
/home/st/桌面/OP-TEE/optee_os/lib/libutee/tee_api.c:257
     a28:	bf00      	nop
     a2a:	f107 0710 	add.w	r7, r7, #16
     a2e:	46bd      	mov	sp, r7
     a30:	bd80      	pop	{r7, pc}

00000a32 <TEE_Wait>:
TEE_Wait():
/home/st/桌面/OP-TEE/optee_os/lib/libutee/tee_api.c:260
     a32:	e96d 7e02 	strd	r7, lr, [sp, #-8]!
     a36:	b084      	sub	sp, #16
     a38:	af00      	add	r7, sp, #0
     a3a:	6078      	str	r0, [r7, #4]
/home/st/桌面/OP-TEE/optee_os/lib/libutee/tee_api.c:261
     a3c:	6878      	ldr	r0, [r7, #4]
     a3e:	f000 eb8e 	blx	115c <utee_wait>
     a42:	60f8      	str	r0, [r7, #12]
/home/st/桌面/OP-TEE/optee_os/lib/libutee/tee_api.c:263
     a44:	68fb      	ldr	r3, [r7, #12]
     a46:	2b00      	cmp	r3, #0
     a48:	d009      	beq.n	a5e <TEE_Wait+0x2c>
/home/st/桌面/OP-TEE/optee_os/lib/libutee/tee_api.c:263 (discriminator 1)
     a4a:	68fa      	ldr	r2, [r7, #12]
     a4c:	f04f 0302 	mov.w	r3, #2
     a50:	f6cf 73ff 	movt	r3, #65535	; 0xffff
     a54:	429a      	cmp	r2, r3
     a56:	d002      	beq.n	a5e <TEE_Wait+0x2c>
/home/st/桌面/OP-TEE/optee_os/lib/libutee/tee_api.c:264
     a58:	68f8      	ldr	r0, [r7, #12]
     a5a:	f007 fa4d 	bl	7ef8 <TEE_Panic>
/home/st/桌面/OP-TEE/optee_os/lib/libutee/tee_api.c:266
     a5e:	68fb      	ldr	r3, [r7, #12]
/home/st/桌面/OP-TEE/optee_os/lib/libutee/tee_api.c:267
     a60:	4618      	mov	r0, r3
     a62:	f107 0710 	add.w	r7, r7, #16
     a66:	46bd      	mov	sp, r7
     a68:	bd80      	pop	{r7, pc}

00000a6a <TEE_GetTAPersistentTime>:
TEE_GetTAPersistentTime():
/home/st/桌面/OP-TEE/optee_os/lib/libutee/tee_api.c:270
     a6a:	e96d 7e02 	strd	r7, lr, [sp, #-8]!
     a6e:	b084      	sub	sp, #16
     a70:	af00      	add	r7, sp, #0
     a72:	6078      	str	r0, [r7, #4]
/home/st/桌面/OP-TEE/optee_os/lib/libutee/tee_api.c:273
     a74:	6879      	ldr	r1, [r7, #4]
     a76:	f04f 0001 	mov.w	r0, #1
     a7a:	f000 eb7a 	blx	1170 <utee_get_time>
     a7e:	60f8      	str	r0, [r7, #12]
/home/st/桌面/OP-TEE/optee_os/lib/libutee/tee_api.c:275
     a80:	68fb      	ldr	r3, [r7, #12]
     a82:	2b00      	cmp	r3, #0
     a84:	d00e      	beq.n	aa4 <TEE_GetTAPersistentTime+0x3a>
/home/st/桌面/OP-TEE/optee_os/lib/libutee/tee_api.c:275 (discriminator 1)
     a86:	68fa      	ldr	r2, [r7, #12]
     a88:	f243 030f 	movw	r3, #12303	; 0x300f
     a8c:	f6cf 73ff 	movt	r3, #65535	; 0xffff
     a90:	429a      	cmp	r2, r3
     a92:	d007      	beq.n	aa4 <TEE_GetTAPersistentTime+0x3a>
/home/st/桌面/OP-TEE/optee_os/lib/libutee/tee_api.c:276
     a94:	687b      	ldr	r3, [r7, #4]
     a96:	f04f 0200 	mov.w	r2, #0
     a9a:	601a      	str	r2, [r3, #0]
/home/st/桌面/OP-TEE/optee_os/lib/libutee/tee_api.c:277
     a9c:	687b      	ldr	r3, [r7, #4]
     a9e:	f04f 0200 	mov.w	r2, #0
     aa2:	605a      	str	r2, [r3, #4]
/home/st/桌面/OP-TEE/optee_os/lib/libutee/tee_api.c:280
     aa4:	68fb      	ldr	r3, [r7, #12]
     aa6:	2b00      	cmp	r3, #0
     aa8:	d01b      	beq.n	ae2 <TEE_GetTAPersistentTime+0x78>
/home/st/桌面/OP-TEE/optee_os/lib/libutee/tee_api.c:280 (discriminator 1)
     aaa:	68fb      	ldr	r3, [r7, #12]
     aac:	f513 4f30 	cmn.w	r3, #45056	; 0xb000
     ab0:	d017      	beq.n	ae2 <TEE_GetTAPersistentTime+0x78>
/home/st/桌面/OP-TEE/optee_os/lib/libutee/tee_api.c:281
     ab2:	68fa      	ldr	r2, [r7, #12]
     ab4:	f245 0301 	movw	r3, #20481	; 0x5001
     ab8:	f6cf 73ff 	movt	r3, #65535	; 0xffff
     abc:	429a      	cmp	r2, r3
     abe:	d010      	beq.n	ae2 <TEE_GetTAPersistentTime+0x78>
/home/st/桌面/OP-TEE/optee_os/lib/libutee/tee_api.c:282
     ac0:	68fa      	ldr	r2, [r7, #12]
     ac2:	f243 030f 	movw	r3, #12303	; 0x300f
     ac6:	f6cf 73ff 	movt	r3, #65535	; 0xffff
     aca:	429a      	cmp	r2, r3
     acc:	d009      	beq.n	ae2 <TEE_GetTAPersistentTime+0x78>
/home/st/桌面/OP-TEE/optee_os/lib/libutee/tee_api.c:283
     ace:	68fa      	ldr	r2, [r7, #12]
     ad0:	f04f 030c 	mov.w	r3, #12
     ad4:	f6cf 73ff 	movt	r3, #65535	; 0xffff
     ad8:	429a      	cmp	r2, r3
     ada:	d002      	beq.n	ae2 <TEE_GetTAPersistentTime+0x78>
/home/st/桌面/OP-TEE/optee_os/lib/libutee/tee_api.c:285
     adc:	68f8      	ldr	r0, [r7, #12]
     ade:	f007 fa0b 	bl	7ef8 <TEE_Panic>
/home/st/桌面/OP-TEE/optee_os/lib/libutee/tee_api.c:287
     ae2:	68fb      	ldr	r3, [r7, #12]
/home/st/桌面/OP-TEE/optee_os/lib/libutee/tee_api.c:288
     ae4:	4618      	mov	r0, r3
     ae6:	f107 0710 	add.w	r7, r7, #16
     aea:	46bd      	mov	sp, r7
     aec:	bd80      	pop	{r7, pc}

00000aee <TEE_SetTAPersistentTime>:
TEE_SetTAPersistentTime():
/home/st/桌面/OP-TEE/optee_os/lib/libutee/tee_api.c:291
     aee:	e96d 7e02 	strd	r7, lr, [sp, #-8]!
     af2:	b084      	sub	sp, #16
     af4:	af00      	add	r7, sp, #0
     af6:	6078      	str	r0, [r7, #4]
/home/st/桌面/OP-TEE/optee_os/lib/libutee/tee_api.c:294
     af8:	6878      	ldr	r0, [r7, #4]
     afa:	f000 eb44 	blx	1184 <utee_set_ta_time>
     afe:	60f8      	str	r0, [r7, #12]
/home/st/桌面/OP-TEE/optee_os/lib/libutee/tee_api.c:296
     b00:	68fb      	ldr	r3, [r7, #12]
     b02:	2b00      	cmp	r3, #0
     b04:	d010      	beq.n	b28 <TEE_SetTAPersistentTime+0x3a>
/home/st/桌面/OP-TEE/optee_os/lib/libutee/tee_api.c:296 (discriminator 1)
     b06:	68fa      	ldr	r2, [r7, #12]
     b08:	f04f 030c 	mov.w	r3, #12
     b0c:	f6cf 73ff 	movt	r3, #65535	; 0xffff
     b10:	429a      	cmp	r2, r3
     b12:	d009      	beq.n	b28 <TEE_SetTAPersistentTime+0x3a>
/home/st/桌面/OP-TEE/optee_os/lib/libutee/tee_api.c:297
     b14:	68fa      	ldr	r2, [r7, #12]
     b16:	f243 0341 	movw	r3, #12353	; 0x3041
     b1a:	f6cf 73ff 	movt	r3, #65535	; 0xffff
     b1e:	429a      	cmp	r2, r3
     b20:	d002      	beq.n	b28 <TEE_SetTAPersistentTime+0x3a>
/home/st/桌面/OP-TEE/optee_os/lib/libutee/tee_api.c:299
     b22:	68f8      	ldr	r0, [r7, #12]
     b24:	f007 f9e8 	bl	7ef8 <TEE_Panic>
/home/st/桌面/OP-TEE/optee_os/lib/libutee/tee_api.c:301
     b28:	68fb      	ldr	r3, [r7, #12]
/home/st/桌面/OP-TEE/optee_os/lib/libutee/tee_api.c:302
     b2a:	4618      	mov	r0, r3
     b2c:	f107 0710 	add.w	r7, r7, #16
     b30:	46bd      	mov	sp, r7
     b32:	bd80      	pop	{r7, pc}

00000b34 <TEE_GetREETime>:
TEE_GetREETime():
/home/st/桌面/OP-TEE/optee_os/lib/libutee/tee_api.c:305
     b34:	e96d 7e02 	strd	r7, lr, [sp, #-8]!
     b38:	b084      	sub	sp, #16
     b3a:	af00      	add	r7, sp, #0
     b3c:	6078      	str	r0, [r7, #4]
/home/st/桌面/OP-TEE/optee_os/lib/libutee/tee_api.c:306
     b3e:	6879      	ldr	r1, [r7, #4]
     b40:	f04f 0002 	mov.w	r0, #2
     b44:	f000 eb14 	blx	1170 <utee_get_time>
     b48:	60f8      	str	r0, [r7, #12]
/home/st/桌面/OP-TEE/optee_os/lib/libutee/tee_api.c:308
     b4a:	68fb      	ldr	r3, [r7, #12]
     b4c:	2b00      	cmp	r3, #0
     b4e:	d002      	beq.n	b56 <TEE_GetREETime+0x22>
/home/st/桌面/OP-TEE/optee_os/lib/libutee/tee_api.c:309
     b50:	68f8      	ldr	r0, [r7, #12]
     b52:	f007 f9d1 	bl	7ef8 <TEE_Panic>
/home/st/桌面/OP-TEE/optee_os/lib/libutee/tee_api.c:310
     b56:	bf00      	nop
     b58:	f107 0710 	add.w	r7, r7, #16
     b5c:	46bd      	mov	sp, r7
     b5e:	bd80      	pop	{r7, pc}

00000b60 <TEE_Malloc>:
TEE_Malloc():
/home/st/桌面/OP-TEE/optee_os/lib/libutee/tee_api.c:313
     b60:	e96d 7e02 	strd	r7, lr, [sp, #-8]!
     b64:	b082      	sub	sp, #8
     b66:	af00      	add	r7, sp, #0
     b68:	6078      	str	r0, [r7, #4]
     b6a:	6039      	str	r1, [r7, #0]
/home/st/桌面/OP-TEE/optee_os/lib/libutee/tee_api.c:314
     b6c:	6839      	ldr	r1, [r7, #0]
     b6e:	6878      	ldr	r0, [r7, #4]
     b70:	f000 ff3e 	bl	19f0 <tee_user_mem_alloc>
     b74:	4603      	mov	r3, r0
/home/st/桌面/OP-TEE/optee_os/lib/libutee/tee_api.c:315
     b76:	4618      	mov	r0, r3
     b78:	f107 0708 	add.w	r7, r7, #8
     b7c:	46bd      	mov	sp, r7
     b7e:	bd80      	pop	{r7, pc}

00000b80 <TEE_Realloc>:
TEE_Realloc():
/home/st/桌面/OP-TEE/optee_os/lib/libutee/tee_api.c:318
     b80:	e96d 7e02 	strd	r7, lr, [sp, #-8]!
     b84:	b082      	sub	sp, #8
     b86:	af00      	add	r7, sp, #0
     b88:	6078      	str	r0, [r7, #4]
     b8a:	6039      	str	r1, [r7, #0]
/home/st/桌面/OP-TEE/optee_os/lib/libutee/tee_api.c:323
     b8c:	6839      	ldr	r1, [r7, #0]
     b8e:	6878      	ldr	r0, [r7, #4]
     b90:	f000 ffd2 	bl	1b38 <tee_user_mem_realloc>
     b94:	4603      	mov	r3, r0
/home/st/桌面/OP-TEE/optee_os/lib/libutee/tee_api.c:324
     b96:	4618      	mov	r0, r3
     b98:	f107 0708 	add.w	r7, r7, #8
     b9c:	46bd      	mov	sp, r7
     b9e:	bd80      	pop	{r7, pc}

00000ba0 <TEE_Free>:
TEE_Free():
/home/st/桌面/OP-TEE/optee_os/lib/libutee/tee_api.c:327
     ba0:	e96d 7e02 	strd	r7, lr, [sp, #-8]!
     ba4:	b082      	sub	sp, #8
     ba6:	af00      	add	r7, sp, #0
     ba8:	6078      	str	r0, [r7, #4]
/home/st/桌面/OP-TEE/optee_os/lib/libutee/tee_api.c:328
     baa:	6878      	ldr	r0, [r7, #4]
     bac:	f001 f81a 	bl	1be4 <tee_user_mem_free>
/home/st/桌面/OP-TEE/optee_os/lib/libutee/tee_api.c:329
     bb0:	bf00      	nop
     bb2:	f107 0708 	add.w	r7, r7, #8
     bb6:	46bd      	mov	sp, r7
     bb8:	bd80      	pop	{r7, pc}

00000bba <TEE_CacheClean>:
TEE_CacheClean():
/home/st/桌面/OP-TEE/optee_os/lib/libutee/tee_api.c:333
     bba:	e96d 7e02 	strd	r7, lr, [sp, #-8]!
     bbe:	b082      	sub	sp, #8
     bc0:	af00      	add	r7, sp, #0
     bc2:	6078      	str	r0, [r7, #4]
     bc4:	6039      	str	r1, [r7, #0]
/home/st/桌面/OP-TEE/optee_os/lib/libutee/tee_api.c:334
     bc6:	f04f 0200 	mov.w	r2, #0
     bca:	6839      	ldr	r1, [r7, #0]
     bcc:	6878      	ldr	r0, [r7, #4]
     bce:	f000 ed26 	blx	161c <utee_cache_operation>
     bd2:	4603      	mov	r3, r0
/home/st/桌面/OP-TEE/optee_os/lib/libutee/tee_api.c:335
     bd4:	4618      	mov	r0, r3
     bd6:	f107 0708 	add.w	r7, r7, #8
     bda:	46bd      	mov	sp, r7
     bdc:	bd80      	pop	{r7, pc}

00000bde <TEE_CacheFlush>:
TEE_CacheFlush():
/home/st/桌面/OP-TEE/optee_os/lib/libutee/tee_api.c:337
     bde:	e96d 7e02 	strd	r7, lr, [sp, #-8]!
     be2:	b082      	sub	sp, #8
     be4:	af00      	add	r7, sp, #0
     be6:	6078      	str	r0, [r7, #4]
     be8:	6039      	str	r1, [r7, #0]
/home/st/桌面/OP-TEE/optee_os/lib/libutee/tee_api.c:338
     bea:	f04f 0201 	mov.w	r2, #1
     bee:	6839      	ldr	r1, [r7, #0]
     bf0:	6878      	ldr	r0, [r7, #4]
     bf2:	f000 ed14 	blx	161c <utee_cache_operation>
     bf6:	4603      	mov	r3, r0
/home/st/桌面/OP-TEE/optee_os/lib/libutee/tee_api.c:339
     bf8:	4618      	mov	r0, r3
     bfa:	f107 0708 	add.w	r7, r7, #8
     bfe:	46bd      	mov	sp, r7
     c00:	bd80      	pop	{r7, pc}

00000c02 <TEE_CacheInvalidate>:
TEE_CacheInvalidate():
/home/st/桌面/OP-TEE/optee_os/lib/libutee/tee_api.c:342
     c02:	e96d 7e02 	strd	r7, lr, [sp, #-8]!
     c06:	b082      	sub	sp, #8
     c08:	af00      	add	r7, sp, #0
     c0a:	6078      	str	r0, [r7, #4]
     c0c:	6039      	str	r1, [r7, #0]
/home/st/桌面/OP-TEE/optee_os/lib/libutee/tee_api.c:343
     c0e:	f04f 0202 	mov.w	r2, #2
     c12:	6839      	ldr	r1, [r7, #0]
     c14:	6878      	ldr	r0, [r7, #4]
     c16:	f000 ed02 	blx	161c <utee_cache_operation>
     c1a:	4603      	mov	r3, r0
/home/st/桌面/OP-TEE/optee_os/lib/libutee/tee_api.c:344
     c1c:	4618      	mov	r0, r3
     c1e:	f107 0708 	add.w	r7, r7, #8
     c22:	46bd      	mov	sp, r7
     c24:	bd80      	pop	{r7, pc}
     c26:	bf00      	nop

00000c28 <__utee_gprof_init>:
__utee_gprof_init():
/home/st/桌面/OP-TEE/optee_os/lib/libutee/arch/arm/../../tee_api_private.h:51
     c28:	f84d 7d04 	str.w	r7, [sp, #-4]!
     c2c:	af00      	add	r7, sp, #0
     c2e:	bf00      	nop
     c30:	46bd      	mov	sp, r7
     c32:	f85d 7b04 	ldr.w	r7, [sp], #4
     c36:	4770      	bx	lr

00000c38 <__utee_gprof_fini>:
__utee_gprof_fini():
/home/st/桌面/OP-TEE/optee_os/lib/libutee/arch/arm/../../tee_api_private.h:52
     c38:	f84d 7d04 	str.w	r7, [sp, #-4]!
     c3c:	af00      	add	r7, sp, #0
     c3e:	bf00      	nop
     c40:	46bd      	mov	sp, r7
     c42:	f85d 7b04 	ldr.w	r7, [sp], #4
     c46:	4770      	bx	lr

00000c48 <ta_header_save_params>:
ta_header_save_params():
/home/st/桌面/OP-TEE/optee_os/lib/libutee/arch/arm/user_ta_entry.c:75
     c48:	e96d 7e02 	strd	r7, lr, [sp, #-8]!
     c4c:	b082      	sub	sp, #8
     c4e:	af00      	add	r7, sp, #0
     c50:	6078      	str	r0, [r7, #4]
     c52:	6039      	str	r1, [r7, #0]
/home/st/桌面/OP-TEE/optee_os/lib/libutee/arch/arm/user_ta_entry.c:76
     c54:	4b0f      	ldr	r3, [pc, #60]	; (c94 <ta_header_save_params+0x4c>)
     c56:	447b      	add	r3, pc
     c58:	461a      	mov	r2, r3
     c5a:	687b      	ldr	r3, [r7, #4]
     c5c:	6013      	str	r3, [r2, #0]
/home/st/桌面/OP-TEE/optee_os/lib/libutee/arch/arm/user_ta_entry.c:78
     c5e:	683b      	ldr	r3, [r7, #0]
     c60:	2b00      	cmp	r3, #0
     c62:	d008      	beq.n	c76 <ta_header_save_params+0x2e>
/home/st/桌面/OP-TEE/optee_os/lib/libutee/arch/arm/user_ta_entry.c:79
     c64:	f04f 0220 	mov.w	r2, #32
     c68:	6839      	ldr	r1, [r7, #0]
     c6a:	4b0b      	ldr	r3, [pc, #44]	; (c98 <ta_header_save_params+0x50>)
     c6c:	447b      	add	r3, pc
     c6e:	4618      	mov	r0, r3
     c70:	f007 fa35 	bl	80de <memcpy>
/home/st/桌面/OP-TEE/optee_os/lib/libutee/arch/arm/user_ta_entry.c:82
     c74:	e008      	b.n	c88 <ta_header_save_params+0x40>
/home/st/桌面/OP-TEE/optee_os/lib/libutee/arch/arm/user_ta_entry.c:81
     c76:	f04f 0220 	mov.w	r2, #32
     c7a:	f04f 0100 	mov.w	r1, #0
     c7e:	4b07      	ldr	r3, [pc, #28]	; (c9c <ta_header_save_params+0x54>)
     c80:	447b      	add	r3, pc
     c82:	4618      	mov	r0, r3
     c84:	f007 fb43 	bl	830e <memset>
/home/st/桌面/OP-TEE/optee_os/lib/libutee/arch/arm/user_ta_entry.c:82
     c88:	bf00      	nop
     c8a:	f107 0708 	add.w	r7, r7, #8
     c8e:	46bd      	mov	sp, r7
     c90:	bd80      	pop	{r7, pc}
     c92:	bf00      	nop
     c94:	00016446 	.word	0x00016446
     c98:	00016434 	.word	0x00016434
     c9c:	00016420 	.word	0x00016420

00000ca0 <ta_header_get_session>:
ta_header_get_session():
/home/st/桌面/OP-TEE/optee_os/lib/libutee/arch/arm/user_ta_entry.c:85
     ca0:	f84d 7d04 	str.w	r7, [sp, #-4]!
     ca4:	b085      	sub	sp, #20
     ca6:	af00      	add	r7, sp, #0
     ca8:	6078      	str	r0, [r7, #4]
/home/st/桌面/OP-TEE/optee_os/lib/libutee/arch/arm/user_ta_entry.c:88
     caa:	4b0d      	ldr	r3, [pc, #52]	; (ce0 <ta_header_get_session+0x40>)
     cac:	447b      	add	r3, pc
     cae:	681b      	ldr	r3, [r3, #0]
     cb0:	60fb      	str	r3, [r7, #12]
     cb2:	e009      	b.n	cc8 <ta_header_get_session+0x28>
/home/st/桌面/OP-TEE/optee_os/lib/libutee/arch/arm/user_ta_entry.c:89
     cb4:	68fb      	ldr	r3, [r7, #12]
     cb6:	681a      	ldr	r2, [r3, #0]
     cb8:	687b      	ldr	r3, [r7, #4]
     cba:	429a      	cmp	r2, r3
     cbc:	d101      	bne.n	cc2 <ta_header_get_session+0x22>
/home/st/桌面/OP-TEE/optee_os/lib/libutee/arch/arm/user_ta_entry.c:90
     cbe:	68fb      	ldr	r3, [r7, #12]
     cc0:	e007      	b.n	cd2 <ta_header_get_session+0x32>
/home/st/桌面/OP-TEE/optee_os/lib/libutee/arch/arm/user_ta_entry.c:88 (discriminator 2)
     cc2:	68fb      	ldr	r3, [r7, #12]
     cc4:	689b      	ldr	r3, [r3, #8]
     cc6:	60fb      	str	r3, [r7, #12]
/home/st/桌面/OP-TEE/optee_os/lib/libutee/arch/arm/user_ta_entry.c:88 (discriminator 1)
     cc8:	68fb      	ldr	r3, [r7, #12]
     cca:	2b00      	cmp	r3, #0
     ccc:	d1f2      	bne.n	cb4 <ta_header_get_session+0x14>
/home/st/桌面/OP-TEE/optee_os/lib/libutee/arch/arm/user_ta_entry.c:92
     cce:	f04f 0300 	mov.w	r3, #0
/home/st/桌面/OP-TEE/optee_os/lib/libutee/arch/arm/user_ta_entry.c:93
     cd2:	4618      	mov	r0, r3
     cd4:	f107 0714 	add.w	r7, r7, #20
     cd8:	46bd      	mov	sp, r7
     cda:	f85d 7b04 	ldr.w	r7, [sp], #4
     cde:	4770      	bx	lr
     ce0:	0000e3c4 	.word	0x0000e3c4

00000ce4 <ta_header_add_session>:
ta_header_add_session():
/home/st/桌面/OP-TEE/optee_os/lib/libutee/arch/arm/user_ta_entry.c:96
     ce4:	f84d 4d0c 	str.w	r4, [sp, #-12]!
     ce8:	e9cd 7e01 	strd	r7, lr, [sp, #4]
     cec:	b085      	sub	sp, #20
     cee:	af00      	add	r7, sp, #0
     cf0:	6078      	str	r0, [r7, #4]
     cf2:	4c3b      	ldr	r4, [pc, #236]	; (de0 <ta_header_add_session+0xfc>)
     cf4:	447c      	add	r4, pc
/home/st/桌面/OP-TEE/optee_os/lib/libutee/arch/arm/user_ta_entry.c:97
     cf6:	6878      	ldr	r0, [r7, #4]
     cf8:	f7ff ffd2 	bl	ca0 <ta_header_get_session>
     cfc:	60f8      	str	r0, [r7, #12]
/home/st/桌面/OP-TEE/optee_os/lib/libutee/arch/arm/user_ta_entry.c:99
     cfe:	68fb      	ldr	r3, [r7, #12]
     d00:	2b00      	cmp	r3, #0
     d02:	d002      	beq.n	d0a <ta_header_add_session+0x26>
/home/st/桌面/OP-TEE/optee_os/lib/libutee/arch/arm/user_ta_entry.c:100
     d04:	f04f 0300 	mov.w	r3, #0
     d08:	e060      	b.n	dcc <ta_header_add_session+0xe8>
/home/st/桌面/OP-TEE/optee_os/lib/libutee/arch/arm/user_ta_entry.c:102
     d0a:	4b36      	ldr	r3, [pc, #216]	; (de4 <ta_header_add_session+0x100>)
     d0c:	447b      	add	r3, pc
     d0e:	681b      	ldr	r3, [r3, #0]
     d10:	f103 0301 	add.w	r3, r3, #1
     d14:	4a34      	ldr	r2, [pc, #208]	; (de8 <ta_header_add_session+0x104>)
     d16:	447a      	add	r2, pc
     d18:	6013      	str	r3, [r2, #0]
/home/st/桌面/OP-TEE/optee_os/lib/libutee/arch/arm/user_ta_entry.c:104
     d1a:	4b34      	ldr	r3, [pc, #208]	; (dec <ta_header_add_session+0x108>)
     d1c:	447b      	add	r3, pc
     d1e:	681b      	ldr	r3, [r3, #0]
     d20:	2b01      	cmp	r3, #1
     d22:	d127      	bne.n	d74 <ta_header_add_session+0x90>
/home/st/桌面/OP-TEE/optee_os/lib/libutee/arch/arm/user_ta_entry.c:107
     d24:	4b32      	ldr	r3, [pc, #200]	; (df0 <ta_header_add_session+0x10c>)
     d26:	447b      	add	r3, pc
     d28:	781b      	ldrb	r3, [r3, #0]
     d2a:	f083 0301 	eor.w	r3, r3, #1
     d2e:	b2db      	uxtb	r3, r3
     d30:	2b00      	cmp	r3, #0
     d32:	d017      	beq.n	d64 <ta_header_add_session+0x80>
/home/st/桌面/OP-TEE/optee_os/lib/libutee/arch/arm/user_ta_entry.c:108
     d34:	f006 f8aa 	bl	6e8c <tahead_get_trace_level>
     d38:	4603      	mov	r3, r0
     d3a:	4618      	mov	r0, r3
     d3c:	f004 f9e8 	bl	5110 <trace_set_level>
/home/st/桌面/OP-TEE/optee_os/lib/libutee/arch/arm/user_ta_entry.c:109
     d40:	f7ff ff72 	bl	c28 <__utee_gprof_init>
/home/st/桌面/OP-TEE/optee_os/lib/libutee/arch/arm/user_ta_entry.c:110
     d44:	4b2b      	ldr	r3, [pc, #172]	; (df4 <ta_header_add_session+0x110>)
     d46:	58e3      	ldr	r3, [r4, r3]
     d48:	681b      	ldr	r3, [r3, #0]
     d4a:	4619      	mov	r1, r3
     d4c:	4b2a      	ldr	r3, [pc, #168]	; (df8 <ta_header_add_session+0x114>)
     d4e:	58e3      	ldr	r3, [r4, r3]
     d50:	4618      	mov	r0, r3
     d52:	f003 f8b5 	bl	3ec0 <malloc_add_pool>
/home/st/桌面/OP-TEE/optee_os/lib/libutee/arch/arm/user_ta_entry.c:111
     d56:	f001 f8ab 	bl	1eb0 <_TEE_MathAPI_Init>
/home/st/桌面/OP-TEE/optee_os/lib/libutee/arch/arm/user_ta_entry.c:112
     d5a:	4b28      	ldr	r3, [pc, #160]	; (dfc <ta_header_add_session+0x118>)
     d5c:	447b      	add	r3, pc
     d5e:	f04f 0201 	mov.w	r2, #1
     d62:	701a      	strb	r2, [r3, #0]
/home/st/桌面/OP-TEE/optee_os/lib/libutee/arch/arm/user_ta_entry.c:115
     d64:	f7ff fb58 	bl	418 <TA_CreateEntryPoint>
     d68:	60b8      	str	r0, [r7, #8]
/home/st/桌面/OP-TEE/optee_os/lib/libutee/arch/arm/user_ta_entry.c:116
     d6a:	68bb      	ldr	r3, [r7, #8]
     d6c:	2b00      	cmp	r3, #0
     d6e:	d001      	beq.n	d74 <ta_header_add_session+0x90>
/home/st/桌面/OP-TEE/optee_os/lib/libutee/arch/arm/user_ta_entry.c:117
     d70:	68bb      	ldr	r3, [r7, #8]
     d72:	e02b      	b.n	dcc <ta_header_add_session+0xe8>
/home/st/桌面/OP-TEE/optee_os/lib/libutee/arch/arm/user_ta_entry.c:120
     d74:	f04f 4100 	mov.w	r1, #2147483648	; 0x80000000
     d78:	f04f 0010 	mov.w	r0, #16
     d7c:	f7ff fef0 	bl	b60 <TEE_Malloc>
     d80:	60f8      	str	r0, [r7, #12]
/home/st/桌面/OP-TEE/optee_os/lib/libutee/arch/arm/user_ta_entry.c:122
     d82:	68fb      	ldr	r3, [r7, #12]
     d84:	2b00      	cmp	r3, #0
     d86:	d104      	bne.n	d92 <ta_header_add_session+0xae>
/home/st/桌面/OP-TEE/optee_os/lib/libutee/arch/arm/user_ta_entry.c:123
     d88:	f04f 030c 	mov.w	r3, #12
     d8c:	f6cf 73ff 	movt	r3, #65535	; 0xffff
     d90:	e01c      	b.n	dcc <ta_header_add_session+0xe8>
/home/st/桌面/OP-TEE/optee_os/lib/libutee/arch/arm/user_ta_entry.c:124
     d92:	68fb      	ldr	r3, [r7, #12]
     d94:	687a      	ldr	r2, [r7, #4]
     d96:	601a      	str	r2, [r3, #0]
/home/st/桌面/OP-TEE/optee_os/lib/libutee/arch/arm/user_ta_entry.c:125
     d98:	68fb      	ldr	r3, [r7, #12]
     d9a:	f04f 0200 	mov.w	r2, #0
     d9e:	605a      	str	r2, [r3, #4]
/home/st/桌面/OP-TEE/optee_os/lib/libutee/arch/arm/user_ta_entry.c:126
     da0:	68fb      	ldr	r3, [r7, #12]
     da2:	f04f 0200 	mov.w	r2, #0
     da6:	609a      	str	r2, [r3, #8]
     da8:	4b15      	ldr	r3, [pc, #84]	; (e00 <ta_header_add_session+0x11c>)
     daa:	447b      	add	r3, pc
     dac:	685a      	ldr	r2, [r3, #4]
     dae:	68fb      	ldr	r3, [r7, #12]
     db0:	60da      	str	r2, [r3, #12]
     db2:	4b14      	ldr	r3, [pc, #80]	; (e04 <ta_header_add_session+0x120>)
     db4:	447b      	add	r3, pc
     db6:	685b      	ldr	r3, [r3, #4]
     db8:	68fa      	ldr	r2, [r7, #12]
     dba:	601a      	str	r2, [r3, #0]
     dbc:	68fb      	ldr	r3, [r7, #12]
     dbe:	f103 0308 	add.w	r3, r3, #8
     dc2:	4a11      	ldr	r2, [pc, #68]	; (e08 <ta_header_add_session+0x124>)
     dc4:	447a      	add	r2, pc
     dc6:	6053      	str	r3, [r2, #4]
/home/st/桌面/OP-TEE/optee_os/lib/libutee/arch/arm/user_ta_entry.c:128
     dc8:	f04f 0300 	mov.w	r3, #0
/home/st/桌面/OP-TEE/optee_os/lib/libutee/arch/arm/user_ta_entry.c:129
     dcc:	4618      	mov	r0, r3
     dce:	f107 0714 	add.w	r7, r7, #20
     dd2:	46bd      	mov	sp, r7
     dd4:	e9dd 4700 	ldrd	r4, r7, [sp]
     dd8:	b002      	add	sp, #8
     dda:	f85d fb04 	ldr.w	pc, [sp], #4
     dde:	bf00      	nop
     de0:	0000d93c 	.word	0x0000d93c
     de4:	000163b4 	.word	0x000163b4
     de8:	000163aa 	.word	0x000163aa
     dec:	000163a4 	.word	0x000163a4
     df0:	0001639e 	.word	0x0001639e
     df4:	0000000c 	.word	0x0000000c
     df8:	00000020 	.word	0x00000020
     dfc:	00016368 	.word	0x00016368
     e00:	0000e2c6 	.word	0x0000e2c6
     e04:	0000e2bc 	.word	0x0000e2bc
     e08:	0000e2ac 	.word	0x0000e2ac

00000e0c <ta_header_remove_session>:
ta_header_remove_session():
/home/st/桌面/OP-TEE/optee_os/lib/libutee/arch/arm/user_ta_entry.c:132
     e0c:	e96d 7e02 	strd	r7, lr, [sp, #-8]!
     e10:	b084      	sub	sp, #16
     e12:	af00      	add	r7, sp, #0
     e14:	6078      	str	r0, [r7, #4]
/home/st/桌面/OP-TEE/optee_os/lib/libutee/arch/arm/user_ta_entry.c:135
     e16:	4b1f      	ldr	r3, [pc, #124]	; (e94 <ta_header_remove_session+0x88>)
     e18:	447b      	add	r3, pc
     e1a:	681b      	ldr	r3, [r3, #0]
     e1c:	60fb      	str	r3, [r7, #12]
     e1e:	e030      	b.n	e82 <ta_header_remove_session+0x76>
/home/st/桌面/OP-TEE/optee_os/lib/libutee/arch/arm/user_ta_entry.c:136
     e20:	68fb      	ldr	r3, [r7, #12]
     e22:	681a      	ldr	r2, [r3, #0]
     e24:	687b      	ldr	r3, [r7, #4]
     e26:	429a      	cmp	r2, r3
     e28:	d128      	bne.n	e7c <ta_header_remove_session+0x70>
/home/st/桌面/OP-TEE/optee_os/lib/libutee/arch/arm/user_ta_entry.c:137
     e2a:	68fb      	ldr	r3, [r7, #12]
     e2c:	689b      	ldr	r3, [r3, #8]
     e2e:	2b00      	cmp	r3, #0
     e30:	d005      	beq.n	e3e <ta_header_remove_session+0x32>
/home/st/桌面/OP-TEE/optee_os/lib/libutee/arch/arm/user_ta_entry.c:137 (discriminator 1)
     e32:	68fb      	ldr	r3, [r7, #12]
     e34:	689b      	ldr	r3, [r3, #8]
     e36:	68fa      	ldr	r2, [r7, #12]
     e38:	68d2      	ldr	r2, [r2, #12]
     e3a:	60da      	str	r2, [r3, #12]
     e3c:	e004      	b.n	e48 <ta_header_remove_session+0x3c>
/home/st/桌面/OP-TEE/optee_os/lib/libutee/arch/arm/user_ta_entry.c:137 (discriminator 2)
     e3e:	68fb      	ldr	r3, [r7, #12]
     e40:	68db      	ldr	r3, [r3, #12]
     e42:	4a15      	ldr	r2, [pc, #84]	; (e98 <ta_header_remove_session+0x8c>)
     e44:	447a      	add	r2, pc
     e46:	6053      	str	r3, [r2, #4]
/home/st/桌面/OP-TEE/optee_os/lib/libutee/arch/arm/user_ta_entry.c:137 (discriminator 4)
     e48:	68fb      	ldr	r3, [r7, #12]
     e4a:	68db      	ldr	r3, [r3, #12]
     e4c:	68fa      	ldr	r2, [r7, #12]
     e4e:	6892      	ldr	r2, [r2, #8]
     e50:	601a      	str	r2, [r3, #0]
/home/st/桌面/OP-TEE/optee_os/lib/libutee/arch/arm/user_ta_entry.c:138 (discriminator 4)
     e52:	68f8      	ldr	r0, [r7, #12]
     e54:	f7ff fea4 	bl	ba0 <TEE_Free>
/home/st/桌面/OP-TEE/optee_os/lib/libutee/arch/arm/user_ta_entry.c:140 (discriminator 4)
     e58:	4b10      	ldr	r3, [pc, #64]	; (e9c <ta_header_remove_session+0x90>)
     e5a:	447b      	add	r3, pc
     e5c:	681b      	ldr	r3, [r3, #0]
     e5e:	f103 33ff 	add.w	r3, r3, #4294967295	; 0xffffffff
     e62:	4a0f      	ldr	r2, [pc, #60]	; (ea0 <ta_header_remove_session+0x94>)
     e64:	447a      	add	r2, pc
     e66:	6013      	str	r3, [r2, #0]
/home/st/桌面/OP-TEE/optee_os/lib/libutee/arch/arm/user_ta_entry.c:141 (discriminator 4)
     e68:	4b0e      	ldr	r3, [pc, #56]	; (ea4 <ta_header_remove_session+0x98>)
     e6a:	447b      	add	r3, pc
     e6c:	681b      	ldr	r3, [r3, #0]
     e6e:	2b00      	cmp	r3, #0
     e70:	d10b      	bne.n	e8a <ta_header_remove_session+0x7e>
/home/st/桌面/OP-TEE/optee_os/lib/libutee/arch/arm/user_ta_entry.c:142
     e72:	f7ff fee1 	bl	c38 <__utee_gprof_fini>
/home/st/桌面/OP-TEE/optee_os/lib/libutee/arch/arm/user_ta_entry.c:143
     e76:	f7ff fad9 	bl	42c <TA_DestroyEntryPoint>
/home/st/桌面/OP-TEE/optee_os/lib/libutee/arch/arm/user_ta_entry.c:146
     e7a:	e006      	b.n	e8a <ta_header_remove_session+0x7e>
/home/st/桌面/OP-TEE/optee_os/lib/libutee/arch/arm/user_ta_entry.c:135 (discriminator 2)
     e7c:	68fb      	ldr	r3, [r7, #12]
     e7e:	689b      	ldr	r3, [r3, #8]
     e80:	60fb      	str	r3, [r7, #12]
/home/st/桌面/OP-TEE/optee_os/lib/libutee/arch/arm/user_ta_entry.c:135 (discriminator 1)
     e82:	68fb      	ldr	r3, [r7, #12]
     e84:	2b00      	cmp	r3, #0
     e86:	d1cb      	bne.n	e20 <ta_header_remove_session+0x14>
     e88:	e000      	b.n	e8c <ta_header_remove_session+0x80>
/home/st/桌面/OP-TEE/optee_os/lib/libutee/arch/arm/user_ta_entry.c:146
     e8a:	bf00      	nop
/home/st/桌面/OP-TEE/optee_os/lib/libutee/arch/arm/user_ta_entry.c:149
     e8c:	f107 0710 	add.w	r7, r7, #16
     e90:	46bd      	mov	sp, r7
     e92:	bd80      	pop	{r7, pc}
     e94:	0000e258 	.word	0x0000e258
     e98:	0000e22c 	.word	0x0000e22c
     e9c:	00016266 	.word	0x00016266
     ea0:	0001625c 	.word	0x0001625c
     ea4:	00016256 	.word	0x00016256

00000ea8 <entry_open_session>:
entry_open_session():
/home/st/桌面/OP-TEE/optee_os/lib/libutee/arch/arm/user_ta_entry.c:153
     ea8:	e96d 7e02 	strd	r7, lr, [sp, #-8]!
     eac:	b08e      	sub	sp, #56	; 0x38
     eae:	af00      	add	r7, sp, #0
     eb0:	6078      	str	r0, [r7, #4]
     eb2:	6039      	str	r1, [r7, #0]
/home/st/桌面/OP-TEE/optee_os/lib/libutee/arch/arm/user_ta_entry.c:159
     eb4:	6878      	ldr	r0, [r7, #4]
     eb6:	f7ff ff15 	bl	ce4 <ta_header_add_session>
     eba:	6378      	str	r0, [r7, #52]	; 0x34
/home/st/桌面/OP-TEE/optee_os/lib/libutee/arch/arm/user_ta_entry.c:160
     ebc:	6b7b      	ldr	r3, [r7, #52]	; 0x34
     ebe:	2b00      	cmp	r3, #0
     ec0:	d001      	beq.n	ec6 <entry_open_session+0x1e>
/home/st/桌面/OP-TEE/optee_os/lib/libutee/arch/arm/user_ta_entry.c:161
     ec2:	6b7b      	ldr	r3, [r7, #52]	; 0x34
     ec4:	e032      	b.n	f2c <entry_open_session+0x84>
/home/st/桌面/OP-TEE/optee_os/lib/libutee/arch/arm/user_ta_entry.c:163
     ec6:	6878      	ldr	r0, [r7, #4]
     ec8:	f7ff feea 	bl	ca0 <ta_header_get_session>
     ecc:	6338      	str	r0, [r7, #48]	; 0x30
/home/st/桌面/OP-TEE/optee_os/lib/libutee/arch/arm/user_ta_entry.c:164
     ece:	6b3b      	ldr	r3, [r7, #48]	; 0x30
     ed0:	2b00      	cmp	r3, #0
     ed2:	d104      	bne.n	ede <entry_open_session+0x36>
/home/st/桌面/OP-TEE/optee_os/lib/libutee/arch/arm/user_ta_entry.c:165
     ed4:	f04f 0307 	mov.w	r3, #7
     ed8:	f6cf 73ff 	movt	r3, #65535	; 0xffff
     edc:	e026      	b.n	f2c <entry_open_session+0x84>
/home/st/桌面/OP-TEE/optee_os/lib/libutee/arch/arm/user_ta_entry.c:167
     ede:	f107 012c 	add.w	r1, r7, #44	; 0x2c
     ee2:	f107 030c 	add.w	r3, r7, #12
     ee6:	683a      	ldr	r2, [r7, #0]
     ee8:	4618      	mov	r0, r3
     eea:	f7ff fbb4 	bl	656 <__utee_to_param>
/home/st/桌面/OP-TEE/optee_os/lib/libutee/arch/arm/user_ta_entry.c:168
     eee:	6afb      	ldr	r3, [r7, #44]	; 0x2c
     ef0:	f107 020c 	add.w	r2, r7, #12
     ef4:	4611      	mov	r1, r2
     ef6:	4618      	mov	r0, r3
     ef8:	f7ff fea6 	bl	c48 <ta_header_save_params>
/home/st/桌面/OP-TEE/optee_os/lib/libutee/arch/arm/user_ta_entry.c:170
     efc:	6af8      	ldr	r0, [r7, #44]	; 0x2c
     efe:	6b3b      	ldr	r3, [r7, #48]	; 0x30
     f00:	f103 0204 	add.w	r2, r3, #4
     f04:	f107 030c 	add.w	r3, r7, #12
     f08:	4619      	mov	r1, r3
     f0a:	f7ff fa97 	bl	43c <TA_OpenSessionEntryPoint>
     f0e:	6378      	str	r0, [r7, #52]	; 0x34
/home/st/桌面/OP-TEE/optee_os/lib/libutee/arch/arm/user_ta_entry.c:173
     f10:	6afb      	ldr	r3, [r7, #44]	; 0x2c
     f12:	f107 020c 	add.w	r2, r7, #12
     f16:	4619      	mov	r1, r3
     f18:	6838      	ldr	r0, [r7, #0]
     f1a:	f7ff fae9 	bl	4f0 <__utee_from_param>
/home/st/桌面/OP-TEE/optee_os/lib/libutee/arch/arm/user_ta_entry.c:175
     f1e:	6b7b      	ldr	r3, [r7, #52]	; 0x34
     f20:	2b00      	cmp	r3, #0
     f22:	d002      	beq.n	f2a <entry_open_session+0x82>
/home/st/桌面/OP-TEE/optee_os/lib/libutee/arch/arm/user_ta_entry.c:176
     f24:	6878      	ldr	r0, [r7, #4]
     f26:	f7ff ff71 	bl	e0c <ta_header_remove_session>
/home/st/桌面/OP-TEE/optee_os/lib/libutee/arch/arm/user_ta_entry.c:177
     f2a:	6b7b      	ldr	r3, [r7, #52]	; 0x34
/home/st/桌面/OP-TEE/optee_os/lib/libutee/arch/arm/user_ta_entry.c:178 (discriminator 1)
     f2c:	4618      	mov	r0, r3
     f2e:	f107 0738 	add.w	r7, r7, #56	; 0x38
     f32:	46bd      	mov	sp, r7
     f34:	bd80      	pop	{r7, pc}

00000f36 <entry_close_session>:
entry_close_session():
/home/st/桌面/OP-TEE/optee_os/lib/libutee/arch/arm/user_ta_entry.c:181
     f36:	e96d 7e02 	strd	r7, lr, [sp, #-8]!
     f3a:	b084      	sub	sp, #16
     f3c:	af00      	add	r7, sp, #0
     f3e:	6078      	str	r0, [r7, #4]
/home/st/桌面/OP-TEE/optee_os/lib/libutee/arch/arm/user_ta_entry.c:182
     f40:	6878      	ldr	r0, [r7, #4]
     f42:	f7ff fead 	bl	ca0 <ta_header_get_session>
     f46:	60f8      	str	r0, [r7, #12]
/home/st/桌面/OP-TEE/optee_os/lib/libutee/arch/arm/user_ta_entry.c:184
     f48:	68fb      	ldr	r3, [r7, #12]
     f4a:	2b00      	cmp	r3, #0
     f4c:	d104      	bne.n	f58 <entry_close_session+0x22>
/home/st/桌面/OP-TEE/optee_os/lib/libutee/arch/arm/user_ta_entry.c:185
     f4e:	f04f 0307 	mov.w	r3, #7
     f52:	f6cf 73ff 	movt	r3, #65535	; 0xffff
     f56:	e009      	b.n	f6c <entry_close_session+0x36>
/home/st/桌面/OP-TEE/optee_os/lib/libutee/arch/arm/user_ta_entry.c:187
     f58:	68fb      	ldr	r3, [r7, #12]
     f5a:	685b      	ldr	r3, [r3, #4]
     f5c:	4618      	mov	r0, r3
     f5e:	f7ff fa7d 	bl	45c <TA_CloseSessionEntryPoint>
/home/st/桌面/OP-TEE/optee_os/lib/libutee/arch/arm/user_ta_entry.c:189
     f62:	6878      	ldr	r0, [r7, #4]
     f64:	f7ff ff52 	bl	e0c <ta_header_remove_session>
/home/st/桌面/OP-TEE/optee_os/lib/libutee/arch/arm/user_ta_entry.c:190
     f68:	f04f 0300 	mov.w	r3, #0
/home/st/桌面/OP-TEE/optee_os/lib/libutee/arch/arm/user_ta_entry.c:191
     f6c:	4618      	mov	r0, r3
     f6e:	f107 0710 	add.w	r7, r7, #16
     f72:	46bd      	mov	sp, r7
     f74:	bd80      	pop	{r7, pc}

00000f76 <entry_invoke_command>:
entry_invoke_command():
/home/st/桌面/OP-TEE/optee_os/lib/libutee/arch/arm/user_ta_entry.c:195
     f76:	e96d 7e02 	strd	r7, lr, [sp, #-8]!
     f7a:	b090      	sub	sp, #64	; 0x40
     f7c:	af00      	add	r7, sp, #0
     f7e:	60f8      	str	r0, [r7, #12]
     f80:	60b9      	str	r1, [r7, #8]
     f82:	607a      	str	r2, [r7, #4]
/home/st/桌面/OP-TEE/optee_os/lib/libutee/arch/arm/user_ta_entry.c:199
     f84:	68f8      	ldr	r0, [r7, #12]
     f86:	f7ff fe8b 	bl	ca0 <ta_header_get_session>
     f8a:	63f8      	str	r0, [r7, #60]	; 0x3c
/home/st/桌面/OP-TEE/optee_os/lib/libutee/arch/arm/user_ta_entry.c:201
     f8c:	6bfb      	ldr	r3, [r7, #60]	; 0x3c
     f8e:	2b00      	cmp	r3, #0
     f90:	d104      	bne.n	f9c <entry_invoke_command+0x26>
/home/st/桌面/OP-TEE/optee_os/lib/libutee/arch/arm/user_ta_entry.c:202
     f92:	f04f 0307 	mov.w	r3, #7
     f96:	f6cf 73ff 	movt	r3, #65535	; 0xffff
     f9a:	e01f      	b.n	fdc <entry_invoke_command+0x66>
/home/st/桌面/OP-TEE/optee_os/lib/libutee/arch/arm/user_ta_entry.c:204
     f9c:	f107 0134 	add.w	r1, r7, #52	; 0x34
     fa0:	f107 0314 	add.w	r3, r7, #20
     fa4:	68ba      	ldr	r2, [r7, #8]
     fa6:	4618      	mov	r0, r3
     fa8:	f7ff fb55 	bl	656 <__utee_to_param>
/home/st/桌面/OP-TEE/optee_os/lib/libutee/arch/arm/user_ta_entry.c:205
     fac:	6b7b      	ldr	r3, [r7, #52]	; 0x34
     fae:	f107 0214 	add.w	r2, r7, #20
     fb2:	4611      	mov	r1, r2
     fb4:	4618      	mov	r0, r3
     fb6:	f7ff fe47 	bl	c48 <ta_header_save_params>
/home/st/桌面/OP-TEE/optee_os/lib/libutee/arch/arm/user_ta_entry.c:207
     fba:	6bfb      	ldr	r3, [r7, #60]	; 0x3c
     fbc:	6858      	ldr	r0, [r3, #4]
     fbe:	6b7a      	ldr	r2, [r7, #52]	; 0x34
     fc0:	f107 0314 	add.w	r3, r7, #20
     fc4:	6879      	ldr	r1, [r7, #4]
     fc6:	f7ff fa55 	bl	474 <TA_InvokeCommandEntryPoint>
     fca:	63b8      	str	r0, [r7, #56]	; 0x38
/home/st/桌面/OP-TEE/optee_os/lib/libutee/arch/arm/user_ta_entry.c:210
     fcc:	6b7b      	ldr	r3, [r7, #52]	; 0x34
     fce:	f107 0214 	add.w	r2, r7, #20
     fd2:	4619      	mov	r1, r3
     fd4:	68b8      	ldr	r0, [r7, #8]
     fd6:	f7ff fa8b 	bl	4f0 <__utee_from_param>
/home/st/桌面/OP-TEE/optee_os/lib/libutee/arch/arm/user_ta_entry.c:211
     fda:	6bbb      	ldr	r3, [r7, #56]	; 0x38
/home/st/桌面/OP-TEE/optee_os/lib/libutee/arch/arm/user_ta_entry.c:212 (discriminator 1)
     fdc:	4618      	mov	r0, r3
     fde:	f107 0740 	add.w	r7, r7, #64	; 0x40
     fe2:	46bd      	mov	sp, r7
     fe4:	bd80      	pop	{r7, pc}

00000fe6 <__utee_entry>:
__utee_entry():
/home/st/桌面/OP-TEE/optee_os/lib/libutee/arch/arm/user_ta_entry.c:216
     fe6:	e96d 7e02 	strd	r7, lr, [sp, #-8]!
     fea:	b086      	sub	sp, #24
     fec:	af00      	add	r7, sp, #0
     fee:	60f8      	str	r0, [r7, #12]
     ff0:	60b9      	str	r1, [r7, #8]
     ff2:	607a      	str	r2, [r7, #4]
     ff4:	603b      	str	r3, [r7, #0]
/home/st/桌面/OP-TEE/optee_os/lib/libutee/arch/arm/user_ta_entry.c:227
     ff6:	68fb      	ldr	r3, [r7, #12]
     ff8:	2b01      	cmp	r3, #1
     ffa:	d00a      	beq.n	1012 <__utee_entry+0x2c>
     ffc:	2b01      	cmp	r3, #1
     ffe:	d302      	bcc.n	1006 <__utee_entry+0x20>
    1000:	2b02      	cmp	r3, #2
    1002:	d00b      	beq.n	101c <__utee_entry+0x36>
    1004:	e011      	b.n	102a <__utee_entry+0x44>
/home/st/桌面/OP-TEE/optee_os/lib/libutee/arch/arm/user_ta_entry.c:229
    1006:	6879      	ldr	r1, [r7, #4]
    1008:	68b8      	ldr	r0, [r7, #8]
    100a:	f7ff ff4d 	bl	ea8 <entry_open_session>
    100e:	6178      	str	r0, [r7, #20]
/home/st/桌面/OP-TEE/optee_os/lib/libutee/arch/arm/user_ta_entry.c:230
    1010:	e013      	b.n	103a <__utee_entry+0x54>
/home/st/桌面/OP-TEE/optee_os/lib/libutee/arch/arm/user_ta_entry.c:232
    1012:	68b8      	ldr	r0, [r7, #8]
    1014:	f7ff ff8f 	bl	f36 <entry_close_session>
    1018:	6178      	str	r0, [r7, #20]
/home/st/桌面/OP-TEE/optee_os/lib/libutee/arch/arm/user_ta_entry.c:233
    101a:	e00e      	b.n	103a <__utee_entry+0x54>
/home/st/桌面/OP-TEE/optee_os/lib/libutee/arch/arm/user_ta_entry.c:235
    101c:	683a      	ldr	r2, [r7, #0]
    101e:	6879      	ldr	r1, [r7, #4]
    1020:	68b8      	ldr	r0, [r7, #8]
    1022:	f7ff ffa8 	bl	f76 <entry_invoke_command>
    1026:	6178      	str	r0, [r7, #20]
/home/st/桌面/OP-TEE/optee_os/lib/libutee/arch/arm/user_ta_entry.c:236
    1028:	e007      	b.n	103a <__utee_entry+0x54>
/home/st/桌面/OP-TEE/optee_os/lib/libutee/arch/arm/user_ta_entry.c:238
    102a:	f04f 33ff 	mov.w	r3, #4294967295	; 0xffffffff
    102e:	617b      	str	r3, [r7, #20]
/home/st/桌面/OP-TEE/optee_os/lib/libutee/arch/arm/user_ta_entry.c:239
    1030:	f04f 0000 	mov.w	r0, #0
    1034:	f006 ff60 	bl	7ef8 <TEE_Panic>
/home/st/桌面/OP-TEE/optee_os/lib/libutee/arch/arm/user_ta_entry.c:240
    1038:	bf00      	nop
/home/st/桌面/OP-TEE/optee_os/lib/libutee/arch/arm/user_ta_entry.c:242
    103a:	f04f 0100 	mov.w	r1, #0
    103e:	f04f 0000 	mov.w	r0, #0
    1042:	f7ff fe01 	bl	c48 <ta_header_save_params>
/home/st/桌面/OP-TEE/optee_os/lib/libutee/arch/arm/user_ta_entry.c:243
    1046:	6978      	ldr	r0, [r7, #20]
    1048:	f000 e80a 	blx	1060 <utee_return>

0000104c <utee_panic>:
utee_panic():
/home/st/桌面/OP-TEE/optee_os/lib/libutee/arch/arm/utee_syscalls_a32.S:69
    104c:	e92d4fff 	push	{r0, r1, r2, r3, r4, r5, r6, r7, r8, r9, sl, fp, lr}
/home/st/桌面/OP-TEE/optee_os/lib/libutee/arch/arm/utee_syscalls_a32.S:71
    1050:	e1a0e00f 	mov	lr, pc
/home/st/桌面/OP-TEE/optee_os/lib/libutee/arch/arm/utee_syscalls_a32.S:72
    1054:	e52de004 	push	{lr}		; (str lr, [sp, #-4]!)
/home/st/桌面/OP-TEE/optee_os/lib/libutee/arch/arm/utee_syscalls_a32.S:74
    1058:	e1a0100d 	mov	r1, sp
/home/st/桌面/OP-TEE/optee_os/lib/libutee/arch/arm/utee_syscalls_a32.S:75
    105c:	eb000009 	bl	1088 <__utee_panic>

00001060 <utee_return>:
utee_return():
/home/st/桌面/OP-TEE/optee_os/lib/libutee/arch/arm/utee_syscalls_asm.S:30
    1060:	e92d40e0 	push	{r5, r6, r7, lr}
    1064:	e3a07000 	mov	r7, #0
    1068:	e3a06000 	mov	r6, #0
    106c:	ef000000 	svc	0x00000000
    1070:	e8bd80e0 	pop	{r5, r6, r7, pc}

00001074 <utee_log>:
utee_log():
/home/st/桌面/OP-TEE/optee_os/lib/libutee/arch/arm/utee_syscalls_asm.S:32
    1074:	e92d40e0 	push	{r5, r6, r7, lr}
    1078:	e3a07001 	mov	r7, #1
    107c:	e3a06000 	mov	r6, #0
    1080:	ef000000 	svc	0x00000000
    1084:	e8bd80e0 	pop	{r5, r6, r7, pc}

00001088 <__utee_panic>:
__utee_panic():
/home/st/桌面/OP-TEE/optee_os/lib/libutee/arch/arm/utee_syscalls_asm.S:34
    1088:	e92d40e0 	push	{r5, r6, r7, lr}
    108c:	e3a07002 	mov	r7, #2
    1090:	e3a06000 	mov	r6, #0
    1094:	ef000000 	svc	0x00000000
    1098:	e8bd80e0 	pop	{r5, r6, r7, pc}

0000109c <utee_get_property>:
utee_get_property():
/home/st/桌面/OP-TEE/optee_os/lib/libutee/arch/arm/utee_syscalls_asm.S:36
    109c:	e92d40e0 	push	{r5, r6, r7, lr}
    10a0:	e3a07003 	mov	r7, #3
    10a4:	e3a06003 	mov	r6, #3
    10a8:	e28d5010 	add	r5, sp, #16
    10ac:	ef000000 	svc	0x00000000
    10b0:	e8bd80e0 	pop	{r5, r6, r7, pc}

000010b4 <utee_get_property_name_to_index>:
utee_get_property_name_to_index():
/home/st/桌面/OP-TEE/optee_os/lib/libutee/arch/arm/utee_syscalls_asm.S:38
    10b4:	e92d40e0 	push	{r5, r6, r7, lr}
    10b8:	e3a07004 	mov	r7, #4
    10bc:	e3a06000 	mov	r6, #0
    10c0:	ef000000 	svc	0x00000000
    10c4:	e8bd80e0 	pop	{r5, r6, r7, pc}

000010c8 <utee_open_ta_session>:
utee_open_ta_session():
/home/st/桌面/OP-TEE/optee_os/lib/libutee/arch/arm/utee_syscalls_asm.S:41
    10c8:	e92d40e0 	push	{r5, r6, r7, lr}
    10cc:	e3a07005 	mov	r7, #5
    10d0:	e3a06001 	mov	r6, #1
    10d4:	e28d5010 	add	r5, sp, #16
    10d8:	ef000000 	svc	0x00000000
    10dc:	e8bd80e0 	pop	{r5, r6, r7, pc}

000010e0 <utee_close_ta_session>:
utee_close_ta_session():
/home/st/桌面/OP-TEE/optee_os/lib/libutee/arch/arm/utee_syscalls_asm.S:43
    10e0:	e92d40e0 	push	{r5, r6, r7, lr}
    10e4:	e3a07006 	mov	r7, #6
    10e8:	e3a06000 	mov	r6, #0
    10ec:	ef000000 	svc	0x00000000
    10f0:	e8bd80e0 	pop	{r5, r6, r7, pc}

000010f4 <utee_invoke_ta_command>:
utee_invoke_ta_command():
/home/st/桌面/OP-TEE/optee_os/lib/libutee/arch/arm/utee_syscalls_asm.S:45
    10f4:	e92d40e0 	push	{r5, r6, r7, lr}
    10f8:	e3a07007 	mov	r7, #7
    10fc:	e3a06001 	mov	r6, #1
    1100:	e28d5010 	add	r5, sp, #16
    1104:	ef000000 	svc	0x00000000
    1108:	e8bd80e0 	pop	{r5, r6, r7, pc}

0000110c <utee_get_cancellation_flag>:
utee_get_cancellation_flag():
/home/st/桌面/OP-TEE/optee_os/lib/libutee/arch/arm/utee_syscalls_asm.S:47
    110c:	e92d40e0 	push	{r5, r6, r7, lr}
    1110:	e3a07009 	mov	r7, #9
    1114:	e3a06000 	mov	r6, #0
    1118:	ef000000 	svc	0x00000000
    111c:	e8bd80e0 	pop	{r5, r6, r7, pc}

00001120 <utee_check_access_rights>:
utee_check_access_rights():
/home/st/桌面/OP-TEE/optee_os/lib/libutee/arch/arm/utee_syscalls_asm.S:50
    1120:	e92d40e0 	push	{r5, r6, r7, lr}
    1124:	e3a07008 	mov	r7, #8
    1128:	e3a06000 	mov	r6, #0
    112c:	ef000000 	svc	0x00000000
    1130:	e8bd80e0 	pop	{r5, r6, r7, pc}

00001134 <utee_unmask_cancellation>:
utee_unmask_cancellation():
/home/st/桌面/OP-TEE/optee_os/lib/libutee/arch/arm/utee_syscalls_asm.S:52
    1134:	e92d40e0 	push	{r5, r6, r7, lr}
    1138:	e3a0700a 	mov	r7, #10
    113c:	e3a06000 	mov	r6, #0
    1140:	ef000000 	svc	0x00000000
    1144:	e8bd80e0 	pop	{r5, r6, r7, pc}

00001148 <utee_mask_cancellation>:
utee_mask_cancellation():
/home/st/桌面/OP-TEE/optee_os/lib/libutee/arch/arm/utee_syscalls_asm.S:54
    1148:	e92d40e0 	push	{r5, r6, r7, lr}
    114c:	e3a0700b 	mov	r7, #11
    1150:	e3a06000 	mov	r6, #0
    1154:	ef000000 	svc	0x00000000
    1158:	e8bd80e0 	pop	{r5, r6, r7, pc}

0000115c <utee_wait>:
utee_wait():
/home/st/桌面/OP-TEE/optee_os/lib/libutee/arch/arm/utee_syscalls_asm.S:56
    115c:	e92d40e0 	push	{r5, r6, r7, lr}
    1160:	e3a0700c 	mov	r7, #12
    1164:	e3a06000 	mov	r6, #0
    1168:	ef000000 	svc	0x00000000
    116c:	e8bd80e0 	pop	{r5, r6, r7, pc}

00001170 <utee_get_time>:
utee_get_time():
/home/st/桌面/OP-TEE/optee_os/lib/libutee/arch/arm/utee_syscalls_asm.S:58
    1170:	e92d40e0 	push	{r5, r6, r7, lr}
    1174:	e3a0700d 	mov	r7, #13
    1178:	e3a06000 	mov	r6, #0
    117c:	ef000000 	svc	0x00000000
    1180:	e8bd80e0 	pop	{r5, r6, r7, pc}

00001184 <utee_set_ta_time>:
utee_set_ta_time():
/home/st/桌面/OP-TEE/optee_os/lib/libutee/arch/arm/utee_syscalls_asm.S:60
    1184:	e92d40e0 	push	{r5, r6, r7, lr}
    1188:	e3a0700e 	mov	r7, #14
    118c:	e3a06000 	mov	r6, #0
    1190:	ef000000 	svc	0x00000000
    1194:	e8bd80e0 	pop	{r5, r6, r7, pc}

00001198 <utee_cryp_state_alloc>:
utee_cryp_state_alloc():
/home/st/桌面/OP-TEE/optee_os/lib/libutee/arch/arm/utee_syscalls_asm.S:62
    1198:	e92d40e0 	push	{r5, r6, r7, lr}
    119c:	e3a0700f 	mov	r7, #15
    11a0:	e3a06001 	mov	r6, #1
    11a4:	e28d5010 	add	r5, sp, #16
    11a8:	ef000000 	svc	0x00000000
    11ac:	e8bd80e0 	pop	{r5, r6, r7, pc}

000011b0 <utee_cryp_state_copy>:
utee_cryp_state_copy():
/home/st/桌面/OP-TEE/optee_os/lib/libutee/arch/arm/utee_syscalls_asm.S:64
    11b0:	e92d40e0 	push	{r5, r6, r7, lr}
    11b4:	e3a07010 	mov	r7, #16
    11b8:	e3a06000 	mov	r6, #0
    11bc:	ef000000 	svc	0x00000000
    11c0:	e8bd80e0 	pop	{r5, r6, r7, pc}

000011c4 <utee_cryp_state_free>:
utee_cryp_state_free():
/home/st/桌面/OP-TEE/optee_os/lib/libutee/arch/arm/utee_syscalls_asm.S:66
    11c4:	e92d40e0 	push	{r5, r6, r7, lr}
    11c8:	e3a07011 	mov	r7, #17
    11cc:	e3a06000 	mov	r6, #0
    11d0:	ef000000 	svc	0x00000000
    11d4:	e8bd80e0 	pop	{r5, r6, r7, pc}

000011d8 <utee_hash_init>:
utee_hash_init():
/home/st/桌面/OP-TEE/optee_os/lib/libutee/arch/arm/utee_syscalls_asm.S:68
    11d8:	e92d40e0 	push	{r5, r6, r7, lr}
    11dc:	e3a07012 	mov	r7, #18
    11e0:	e3a06000 	mov	r6, #0
    11e4:	ef000000 	svc	0x00000000
    11e8:	e8bd80e0 	pop	{r5, r6, r7, pc}

000011ec <utee_hash_update>:
utee_hash_update():
/home/st/桌面/OP-TEE/optee_os/lib/libutee/arch/arm/utee_syscalls_asm.S:70
    11ec:	e92d40e0 	push	{r5, r6, r7, lr}
    11f0:	e3a07013 	mov	r7, #19
    11f4:	e3a06000 	mov	r6, #0
    11f8:	ef000000 	svc	0x00000000
    11fc:	e8bd80e0 	pop	{r5, r6, r7, pc}

00001200 <utee_hash_final>:
utee_hash_final():
/home/st/桌面/OP-TEE/optee_os/lib/libutee/arch/arm/utee_syscalls_asm.S:72
    1200:	e92d40e0 	push	{r5, r6, r7, lr}
    1204:	e3a07014 	mov	r7, #20
    1208:	e3a06001 	mov	r6, #1
    120c:	e28d5010 	add	r5, sp, #16
    1210:	ef000000 	svc	0x00000000
    1214:	e8bd80e0 	pop	{r5, r6, r7, pc}

00001218 <utee_cipher_init>:
utee_cipher_init():
/home/st/桌面/OP-TEE/optee_os/lib/libutee/arch/arm/utee_syscalls_asm.S:74
    1218:	e92d40e0 	push	{r5, r6, r7, lr}
    121c:	e3a07015 	mov	r7, #21
    1220:	e3a06000 	mov	r6, #0
    1224:	ef000000 	svc	0x00000000
    1228:	e8bd80e0 	pop	{r5, r6, r7, pc}

0000122c <utee_cipher_update>:
utee_cipher_update():
/home/st/桌面/OP-TEE/optee_os/lib/libutee/arch/arm/utee_syscalls_asm.S:76
    122c:	e92d40e0 	push	{r5, r6, r7, lr}
    1230:	e3a07016 	mov	r7, #22
    1234:	e3a06001 	mov	r6, #1
    1238:	e28d5010 	add	r5, sp, #16
    123c:	ef000000 	svc	0x00000000
    1240:	e8bd80e0 	pop	{r5, r6, r7, pc}

00001244 <utee_cipher_final>:
utee_cipher_final():
/home/st/桌面/OP-TEE/optee_os/lib/libutee/arch/arm/utee_syscalls_asm.S:78
    1244:	e92d40e0 	push	{r5, r6, r7, lr}
    1248:	e3a07017 	mov	r7, #23
    124c:	e3a06001 	mov	r6, #1
    1250:	e28d5010 	add	r5, sp, #16
    1254:	ef000000 	svc	0x00000000
    1258:	e8bd80e0 	pop	{r5, r6, r7, pc}

0000125c <utee_cryp_obj_get_info>:
utee_cryp_obj_get_info():
/home/st/桌面/OP-TEE/optee_os/lib/libutee/arch/arm/utee_syscalls_asm.S:80
    125c:	e92d40e0 	push	{r5, r6, r7, lr}
    1260:	e3a07018 	mov	r7, #24
    1264:	e3a06000 	mov	r6, #0
    1268:	ef000000 	svc	0x00000000
    126c:	e8bd80e0 	pop	{r5, r6, r7, pc}

00001270 <utee_cryp_obj_restrict_usage>:
utee_cryp_obj_restrict_usage():
/home/st/桌面/OP-TEE/optee_os/lib/libutee/arch/arm/utee_syscalls_asm.S:82
    1270:	e92d40e0 	push	{r5, r6, r7, lr}
    1274:	e3a07019 	mov	r7, #25
    1278:	e3a06000 	mov	r6, #0
    127c:	ef000000 	svc	0x00000000
    1280:	e8bd80e0 	pop	{r5, r6, r7, pc}

00001284 <utee_cryp_obj_get_attr>:
utee_cryp_obj_get_attr():
/home/st/桌面/OP-TEE/optee_os/lib/libutee/arch/arm/utee_syscalls_asm.S:85
    1284:	e92d40e0 	push	{r5, r6, r7, lr}
    1288:	e3a0701a 	mov	r7, #26
    128c:	e3a06000 	mov	r6, #0
    1290:	ef000000 	svc	0x00000000
    1294:	e8bd80e0 	pop	{r5, r6, r7, pc}

00001298 <utee_cryp_obj_alloc>:
utee_cryp_obj_alloc():
/home/st/桌面/OP-TEE/optee_os/lib/libutee/arch/arm/utee_syscalls_asm.S:87
    1298:	e92d40e0 	push	{r5, r6, r7, lr}
    129c:	e3a0701b 	mov	r7, #27
    12a0:	e3a06000 	mov	r6, #0
    12a4:	ef000000 	svc	0x00000000
    12a8:	e8bd80e0 	pop	{r5, r6, r7, pc}

000012ac <utee_cryp_obj_close>:
utee_cryp_obj_close():
/home/st/桌面/OP-TEE/optee_os/lib/libutee/arch/arm/utee_syscalls_asm.S:89
    12ac:	e92d40e0 	push	{r5, r6, r7, lr}
    12b0:	e3a0701c 	mov	r7, #28
    12b4:	e3a06000 	mov	r6, #0
    12b8:	ef000000 	svc	0x00000000
    12bc:	e8bd80e0 	pop	{r5, r6, r7, pc}

000012c0 <utee_cryp_obj_reset>:
utee_cryp_obj_reset():
/home/st/桌面/OP-TEE/optee_os/lib/libutee/arch/arm/utee_syscalls_asm.S:91
    12c0:	e92d40e0 	push	{r5, r6, r7, lr}
    12c4:	e3a0701d 	mov	r7, #29
    12c8:	e3a06000 	mov	r6, #0
    12cc:	ef000000 	svc	0x00000000
    12d0:	e8bd80e0 	pop	{r5, r6, r7, pc}

000012d4 <utee_cryp_obj_populate>:
utee_cryp_obj_populate():
/home/st/桌面/OP-TEE/optee_os/lib/libutee/arch/arm/utee_syscalls_asm.S:93
    12d4:	e92d40e0 	push	{r5, r6, r7, lr}
    12d8:	e3a0701e 	mov	r7, #30
    12dc:	e3a06000 	mov	r6, #0
    12e0:	ef000000 	svc	0x00000000
    12e4:	e8bd80e0 	pop	{r5, r6, r7, pc}

000012e8 <utee_cryp_obj_copy>:
utee_cryp_obj_copy():
/home/st/桌面/OP-TEE/optee_os/lib/libutee/arch/arm/utee_syscalls_asm.S:95
    12e8:	e92d40e0 	push	{r5, r6, r7, lr}
    12ec:	e3a0701f 	mov	r7, #31
    12f0:	e3a06000 	mov	r6, #0
    12f4:	ef000000 	svc	0x00000000
    12f8:	e8bd80e0 	pop	{r5, r6, r7, pc}

000012fc <utee_cryp_derive_key>:
utee_cryp_derive_key():
/home/st/桌面/OP-TEE/optee_os/lib/libutee/arch/arm/utee_syscalls_asm.S:97
    12fc:	e92d40e0 	push	{r5, r6, r7, lr}
    1300:	e3a07020 	mov	r7, #32
    1304:	e3a06000 	mov	r6, #0
    1308:	ef000000 	svc	0x00000000
    130c:	e8bd80e0 	pop	{r5, r6, r7, pc}

00001310 <utee_cryp_random_number_generate>:
utee_cryp_random_number_generate():
/home/st/桌面/OP-TEE/optee_os/lib/libutee/arch/arm/utee_syscalls_asm.S:99
    1310:	e92d40e0 	push	{r5, r6, r7, lr}
    1314:	e3a07021 	mov	r7, #33	; 0x21
    1318:	e3a06000 	mov	r6, #0
    131c:	ef000000 	svc	0x00000000
    1320:	e8bd80e0 	pop	{r5, r6, r7, pc}

00001324 <utee_authenc_init>:
utee_authenc_init():
/home/st/桌面/OP-TEE/optee_os/lib/libutee/arch/arm/utee_syscalls_asm.S:102
    1324:	e92d40e0 	push	{r5, r6, r7, lr}
    1328:	e3a07022 	mov	r7, #34	; 0x22
    132c:	e3a06002 	mov	r6, #2
    1330:	e28d5010 	add	r5, sp, #16
    1334:	ef000000 	svc	0x00000000
    1338:	e8bd80e0 	pop	{r5, r6, r7, pc}

0000133c <utee_authenc_update_aad>:
utee_authenc_update_aad():
/home/st/桌面/OP-TEE/optee_os/lib/libutee/arch/arm/utee_syscalls_asm.S:104
    133c:	e92d40e0 	push	{r5, r6, r7, lr}
    1340:	e3a07023 	mov	r7, #35	; 0x23
    1344:	e3a06000 	mov	r6, #0
    1348:	ef000000 	svc	0x00000000
    134c:	e8bd80e0 	pop	{r5, r6, r7, pc}

00001350 <utee_authenc_update_payload>:
utee_authenc_update_payload():
/home/st/桌面/OP-TEE/optee_os/lib/libutee/arch/arm/utee_syscalls_asm.S:106
    1350:	e92d40e0 	push	{r5, r6, r7, lr}
    1354:	e3a07024 	mov	r7, #36	; 0x24
    1358:	e3a06001 	mov	r6, #1
    135c:	e28d5010 	add	r5, sp, #16
    1360:	ef000000 	svc	0x00000000
    1364:	e8bd80e0 	pop	{r5, r6, r7, pc}

00001368 <utee_authenc_enc_final>:
utee_authenc_enc_final():
/home/st/桌面/OP-TEE/optee_os/lib/libutee/arch/arm/utee_syscalls_asm.S:109
    1368:	e92d40e0 	push	{r5, r6, r7, lr}
    136c:	e3a07025 	mov	r7, #37	; 0x25
    1370:	e3a06003 	mov	r6, #3
    1374:	e28d5010 	add	r5, sp, #16
    1378:	ef000000 	svc	0x00000000
    137c:	e8bd80e0 	pop	{r5, r6, r7, pc}

00001380 <utee_authenc_dec_final>:
utee_authenc_dec_final():
/home/st/桌面/OP-TEE/optee_os/lib/libutee/arch/arm/utee_syscalls_asm.S:111
    1380:	e92d40e0 	push	{r5, r6, r7, lr}
    1384:	e3a07026 	mov	r7, #38	; 0x26
    1388:	e3a06003 	mov	r6, #3
    138c:	e28d5010 	add	r5, sp, #16
    1390:	ef000000 	svc	0x00000000
    1394:	e8bd80e0 	pop	{r5, r6, r7, pc}

00001398 <utee_asymm_operate>:
utee_asymm_operate():
/home/st/桌面/OP-TEE/optee_os/lib/libutee/arch/arm/utee_syscalls_asm.S:113
    1398:	e92d40e0 	push	{r5, r6, r7, lr}
    139c:	e3a07027 	mov	r7, #39	; 0x27
    13a0:	e3a06003 	mov	r6, #3
    13a4:	e28d5010 	add	r5, sp, #16
    13a8:	ef000000 	svc	0x00000000
    13ac:	e8bd80e0 	pop	{r5, r6, r7, pc}

000013b0 <utee_asymm_verify>:
utee_asymm_verify():
/home/st/桌面/OP-TEE/optee_os/lib/libutee/arch/arm/utee_syscalls_asm.S:115
    13b0:	e92d40e0 	push	{r5, r6, r7, lr}
    13b4:	e3a07028 	mov	r7, #40	; 0x28
    13b8:	e3a06003 	mov	r6, #3
    13bc:	e28d5010 	add	r5, sp, #16
    13c0:	ef000000 	svc	0x00000000
    13c4:	e8bd80e0 	pop	{r5, r6, r7, pc}

000013c8 <utee_storage_obj_open>:
utee_storage_obj_open():
/home/st/桌面/OP-TEE/optee_os/lib/libutee/arch/arm/utee_syscalls_asm.S:117
    13c8:	e92d40e0 	push	{r5, r6, r7, lr}
    13cc:	e3a07029 	mov	r7, #41	; 0x29
    13d0:	e3a06001 	mov	r6, #1
    13d4:	e28d5010 	add	r5, sp, #16
    13d8:	ef000000 	svc	0x00000000
    13dc:	e8bd80e0 	pop	{r5, r6, r7, pc}

000013e0 <utee_storage_obj_create>:
utee_storage_obj_create():
/home/st/桌面/OP-TEE/optee_os/lib/libutee/arch/arm/utee_syscalls_asm.S:119
    13e0:	e92d40e0 	push	{r5, r6, r7, lr}
    13e4:	e3a0702a 	mov	r7, #42	; 0x2a
    13e8:	e3a06004 	mov	r6, #4
    13ec:	e28d5010 	add	r5, sp, #16
    13f0:	ef000000 	svc	0x00000000
    13f4:	e8bd80e0 	pop	{r5, r6, r7, pc}

000013f8 <utee_storage_obj_del>:
utee_storage_obj_del():
/home/st/桌面/OP-TEE/optee_os/lib/libutee/arch/arm/utee_syscalls_asm.S:121
    13f8:	e92d40e0 	push	{r5, r6, r7, lr}
    13fc:	e3a0702b 	mov	r7, #43	; 0x2b
    1400:	e3a06000 	mov	r6, #0
    1404:	ef000000 	svc	0x00000000
    1408:	e8bd80e0 	pop	{r5, r6, r7, pc}

0000140c <utee_storage_obj_rename>:
utee_storage_obj_rename():
/home/st/桌面/OP-TEE/optee_os/lib/libutee/arch/arm/utee_syscalls_asm.S:123
    140c:	e92d40e0 	push	{r5, r6, r7, lr}
    1410:	e3a0702c 	mov	r7, #44	; 0x2c
    1414:	e3a06000 	mov	r6, #0
    1418:	ef000000 	svc	0x00000000
    141c:	e8bd80e0 	pop	{r5, r6, r7, pc}

00001420 <utee_storage_alloc_enum>:
utee_storage_alloc_enum():
/home/st/桌面/OP-TEE/optee_os/lib/libutee/arch/arm/utee_syscalls_asm.S:125
    1420:	e92d40e0 	push	{r5, r6, r7, lr}
    1424:	e3a0702d 	mov	r7, #45	; 0x2d
    1428:	e3a06000 	mov	r6, #0
    142c:	ef000000 	svc	0x00000000
    1430:	e8bd80e0 	pop	{r5, r6, r7, pc}

00001434 <utee_storage_free_enum>:
utee_storage_free_enum():
/home/st/桌面/OP-TEE/optee_os/lib/libutee/arch/arm/utee_syscalls_asm.S:127
    1434:	e92d40e0 	push	{r5, r6, r7, lr}
    1438:	e3a0702e 	mov	r7, #46	; 0x2e
    143c:	e3a06000 	mov	r6, #0
    1440:	ef000000 	svc	0x00000000
    1444:	e8bd80e0 	pop	{r5, r6, r7, pc}

00001448 <utee_storage_reset_enum>:
utee_storage_reset_enum():
/home/st/桌面/OP-TEE/optee_os/lib/libutee/arch/arm/utee_syscalls_asm.S:129
    1448:	e92d40e0 	push	{r5, r6, r7, lr}
    144c:	e3a0702f 	mov	r7, #47	; 0x2f
    1450:	e3a06000 	mov	r6, #0
    1454:	ef000000 	svc	0x00000000
    1458:	e8bd80e0 	pop	{r5, r6, r7, pc}

0000145c <utee_storage_start_enum>:
utee_storage_start_enum():
/home/st/桌面/OP-TEE/optee_os/lib/libutee/arch/arm/utee_syscalls_asm.S:131
    145c:	e92d40e0 	push	{r5, r6, r7, lr}
    1460:	e3a07030 	mov	r7, #48	; 0x30
    1464:	e3a06000 	mov	r6, #0
    1468:	ef000000 	svc	0x00000000
    146c:	e8bd80e0 	pop	{r5, r6, r7, pc}

00001470 <utee_storage_next_enum>:
utee_storage_next_enum():
/home/st/桌面/OP-TEE/optee_os/lib/libutee/arch/arm/utee_syscalls_asm.S:133
    1470:	e92d40e0 	push	{r5, r6, r7, lr}
    1474:	e3a07031 	mov	r7, #49	; 0x31
    1478:	e3a06000 	mov	r6, #0
    147c:	ef000000 	svc	0x00000000
    1480:	e8bd80e0 	pop	{r5, r6, r7, pc}

00001484 <utee_storage_obj_read>:
utee_storage_obj_read():
/home/st/桌面/OP-TEE/optee_os/lib/libutee/arch/arm/utee_syscalls_asm.S:135
    1484:	e92d40e0 	push	{r5, r6, r7, lr}
    1488:	e3a07032 	mov	r7, #50	; 0x32
    148c:	e3a06000 	mov	r6, #0
    1490:	ef000000 	svc	0x00000000
    1494:	e8bd80e0 	pop	{r5, r6, r7, pc}

00001498 <utee_storage_obj_write>:
utee_storage_obj_write():
/home/st/桌面/OP-TEE/optee_os/lib/libutee/arch/arm/utee_syscalls_asm.S:137
    1498:	e92d40e0 	push	{r5, r6, r7, lr}
    149c:	e3a07033 	mov	r7, #51	; 0x33
    14a0:	e3a06000 	mov	r6, #0
    14a4:	ef000000 	svc	0x00000000
    14a8:	e8bd80e0 	pop	{r5, r6, r7, pc}

000014ac <utee_storage_obj_trunc>:
utee_storage_obj_trunc():
/home/st/桌面/OP-TEE/optee_os/lib/libutee/arch/arm/utee_syscalls_asm.S:139
    14ac:	e92d40e0 	push	{r5, r6, r7, lr}
    14b0:	e3a07034 	mov	r7, #52	; 0x34
    14b4:	e3a06000 	mov	r6, #0
    14b8:	ef000000 	svc	0x00000000
    14bc:	e8bd80e0 	pop	{r5, r6, r7, pc}

000014c0 <utee_storage_obj_seek>:
utee_storage_obj_seek():
/home/st/桌面/OP-TEE/optee_os/lib/libutee/arch/arm/utee_syscalls_asm.S:141
    14c0:	e92d40e0 	push	{r5, r6, r7, lr}
    14c4:	e3a07035 	mov	r7, #53	; 0x35
    14c8:	e3a06000 	mov	r6, #0
    14cc:	ef000000 	svc	0x00000000
    14d0:	e8bd80e0 	pop	{r5, r6, r7, pc}

000014d4 <utee_cryp_obj_generate_key>:
utee_cryp_obj_generate_key():
/home/st/桌面/OP-TEE/optee_os/lib/libutee/arch/arm/utee_syscalls_asm.S:143
    14d4:	e92d40e0 	push	{r5, r6, r7, lr}
    14d8:	e3a07036 	mov	r7, #54	; 0x36
    14dc:	e3a06000 	mov	r6, #0
    14e0:	ef000000 	svc	0x00000000
    14e4:	e8bd80e0 	pop	{r5, r6, r7, pc}

000014e8 <utee_se_service_open>:
utee_se_service_open():
/home/st/桌面/OP-TEE/optee_os/lib/libutee/arch/arm/utee_syscalls_asm.S:146
    14e8:	e92d40e0 	push	{r5, r6, r7, lr}
    14ec:	e3a07037 	mov	r7, #55	; 0x37
    14f0:	e3a06000 	mov	r6, #0
    14f4:	ef000000 	svc	0x00000000
    14f8:	e8bd80e0 	pop	{r5, r6, r7, pc}

000014fc <utee_se_service_close>:
utee_se_service_close():
/home/st/桌面/OP-TEE/optee_os/lib/libutee/arch/arm/utee_syscalls_asm.S:148
    14fc:	e92d40e0 	push	{r5, r6, r7, lr}
    1500:	e3a07038 	mov	r7, #56	; 0x38
    1504:	e3a06000 	mov	r6, #0
    1508:	ef000000 	svc	0x00000000
    150c:	e8bd80e0 	pop	{r5, r6, r7, pc}

00001510 <utee_se_service_get_readers>:
utee_se_service_get_readers():
/home/st/桌面/OP-TEE/optee_os/lib/libutee/arch/arm/utee_syscalls_asm.S:150
    1510:	e92d40e0 	push	{r5, r6, r7, lr}
    1514:	e3a07039 	mov	r7, #57	; 0x39
    1518:	e3a06000 	mov	r6, #0
    151c:	ef000000 	svc	0x00000000
    1520:	e8bd80e0 	pop	{r5, r6, r7, pc}

00001524 <utee_se_reader_get_prop>:
utee_se_reader_get_prop():
/home/st/桌面/OP-TEE/optee_os/lib/libutee/arch/arm/utee_syscalls_asm.S:153
    1524:	e92d40e0 	push	{r5, r6, r7, lr}
    1528:	e3a0703a 	mov	r7, #58	; 0x3a
    152c:	e3a06000 	mov	r6, #0
    1530:	ef000000 	svc	0x00000000
    1534:	e8bd80e0 	pop	{r5, r6, r7, pc}

00001538 <utee_se_reader_get_name>:
utee_se_reader_get_name():
/home/st/桌面/OP-TEE/optee_os/lib/libutee/arch/arm/utee_syscalls_asm.S:156
    1538:	e92d40e0 	push	{r5, r6, r7, lr}
    153c:	e3a0703b 	mov	r7, #59	; 0x3b
    1540:	e3a06000 	mov	r6, #0
    1544:	ef000000 	svc	0x00000000
    1548:	e8bd80e0 	pop	{r5, r6, r7, pc}

0000154c <utee_se_reader_open_session>:
utee_se_reader_open_session():
/home/st/桌面/OP-TEE/optee_os/lib/libutee/arch/arm/utee_syscalls_asm.S:159
    154c:	e92d40e0 	push	{r5, r6, r7, lr}
    1550:	e3a0703c 	mov	r7, #60	; 0x3c
    1554:	e3a06000 	mov	r6, #0
    1558:	ef000000 	svc	0x00000000
    155c:	e8bd80e0 	pop	{r5, r6, r7, pc}

00001560 <utee_se_reader_close_sessions>:
utee_se_reader_close_sessions():
/home/st/桌面/OP-TEE/optee_os/lib/libutee/arch/arm/utee_syscalls_asm.S:162
    1560:	e92d40e0 	push	{r5, r6, r7, lr}
    1564:	e3a0703d 	mov	r7, #61	; 0x3d
    1568:	e3a06000 	mov	r6, #0
    156c:	ef000000 	svc	0x00000000
    1570:	e8bd80e0 	pop	{r5, r6, r7, pc}

00001574 <utee_se_session_is_closed>:
utee_se_session_is_closed():
/home/st/桌面/OP-TEE/optee_os/lib/libutee/arch/arm/utee_syscalls_asm.S:165
    1574:	e92d40e0 	push	{r5, r6, r7, lr}
    1578:	e3a0703e 	mov	r7, #62	; 0x3e
    157c:	e3a06000 	mov	r6, #0
    1580:	ef000000 	svc	0x00000000
    1584:	e8bd80e0 	pop	{r5, r6, r7, pc}

00001588 <utee_se_session_get_atr>:
utee_se_session_get_atr():
/home/st/桌面/OP-TEE/optee_os/lib/libutee/arch/arm/utee_syscalls_asm.S:168
    1588:	e92d40e0 	push	{r5, r6, r7, lr}
    158c:	e3a0703f 	mov	r7, #63	; 0x3f
    1590:	e3a06000 	mov	r6, #0
    1594:	ef000000 	svc	0x00000000
    1598:	e8bd80e0 	pop	{r5, r6, r7, pc}

0000159c <utee_se_session_open_channel>:
utee_se_session_open_channel():
/home/st/桌面/OP-TEE/optee_os/lib/libutee/arch/arm/utee_syscalls_asm.S:171
    159c:	e92d40e0 	push	{r5, r6, r7, lr}
    15a0:	e3a07040 	mov	r7, #64	; 0x40
    15a4:	e3a06001 	mov	r6, #1
    15a8:	e28d5010 	add	r5, sp, #16
    15ac:	ef000000 	svc	0x00000000
    15b0:	e8bd80e0 	pop	{r5, r6, r7, pc}

000015b4 <utee_se_session_close>:
utee_se_session_close():
/home/st/桌面/OP-TEE/optee_os/lib/libutee/arch/arm/utee_syscalls_asm.S:174
    15b4:	e92d40e0 	push	{r5, r6, r7, lr}
    15b8:	e3a07041 	mov	r7, #65	; 0x41
    15bc:	e3a06000 	mov	r6, #0
    15c0:	ef000000 	svc	0x00000000
    15c4:	e8bd80e0 	pop	{r5, r6, r7, pc}

000015c8 <utee_se_channel_select_next>:
utee_se_channel_select_next():
/home/st/桌面/OP-TEE/optee_os/lib/libutee/arch/arm/utee_syscalls_asm.S:177
    15c8:	e92d40e0 	push	{r5, r6, r7, lr}
    15cc:	e3a07042 	mov	r7, #66	; 0x42
    15d0:	e3a06000 	mov	r6, #0
    15d4:	ef000000 	svc	0x00000000
    15d8:	e8bd80e0 	pop	{r5, r6, r7, pc}

000015dc <utee_se_channel_get_select_resp>:
utee_se_channel_get_select_resp():
/home/st/桌面/OP-TEE/optee_os/lib/libutee/arch/arm/utee_syscalls_asm.S:180
    15dc:	e92d40e0 	push	{r5, r6, r7, lr}
    15e0:	e3a07043 	mov	r7, #67	; 0x43
    15e4:	e3a06000 	mov	r6, #0
    15e8:	ef000000 	svc	0x00000000
    15ec:	e8bd80e0 	pop	{r5, r6, r7, pc}

000015f0 <utee_se_channel_transmit>:
utee_se_channel_transmit():
/home/st/桌面/OP-TEE/optee_os/lib/libutee/arch/arm/utee_syscalls_asm.S:183
    15f0:	e92d40e0 	push	{r5, r6, r7, lr}
    15f4:	e3a07044 	mov	r7, #68	; 0x44
    15f8:	e3a06001 	mov	r6, #1
    15fc:	e28d5010 	add	r5, sp, #16
    1600:	ef000000 	svc	0x00000000
    1604:	e8bd80e0 	pop	{r5, r6, r7, pc}

00001608 <utee_se_channel_close>:
utee_se_channel_close():
/home/st/桌面/OP-TEE/optee_os/lib/libutee/arch/arm/utee_syscalls_asm.S:186
    1608:	e92d40e0 	push	{r5, r6, r7, lr}
    160c:	e3a07045 	mov	r7, #69	; 0x45
    1610:	e3a06000 	mov	r6, #0
    1614:	ef000000 	svc	0x00000000
    1618:	e8bd80e0 	pop	{r5, r6, r7, pc}

0000161c <utee_cache_operation>:
utee_cache_operation():
/home/st/桌面/OP-TEE/optee_os/lib/libutee/arch/arm/utee_syscalls_asm.S:189
    161c:	e92d40e0 	push	{r5, r6, r7, lr}
    1620:	e3a07046 	mov	r7, #70	; 0x46
    1624:	e3a06000 	mov	r6, #0
    1628:	ef000000 	svc	0x00000000
    162c:	e8bd80e0 	pop	{r5, r6, r7, pc}

00001630 <utee_testDriver_write>:
utee_testDriver_write():
/home/st/桌面/OP-TEE/optee_os/lib/libutee/arch/arm/utee_syscalls_asm.S:191
    1630:	e92d40e0 	push	{r5, r6, r7, lr}
    1634:	e3a07047 	mov	r7, #71	; 0x47
    1638:	e3a06000 	mov	r6, #0
    163c:	ef000000 	svc	0x00000000
    1640:	e8bd80e0 	pop	{r5, r6, r7, pc}

00001644 <utee_testDriver_read>:
utee_testDriver_read():
/home/st/桌面/OP-TEE/optee_os/lib/libutee/arch/arm/utee_syscalls_asm.S:192
    1644:	e92d40e0 	push	{r5, r6, r7, lr}
    1648:	e3a07048 	mov	r7, #72	; 0x48
    164c:	e3a06000 	mov	r6, #0
    1650:	ef000000 	svc	0x00000000
    1654:	e8bd80e0 	pop	{r5, r6, r7, pc}

00001658 <utee_testDriver_dump>:
utee_testDriver_dump():
/home/st/桌面/OP-TEE/optee_os/lib/libutee/arch/arm/utee_syscalls_asm.S:193
    1658:	e92d40e0 	push	{r5, r6, r7, lr}
    165c:	e3a07049 	mov	r7, #73	; 0x49
    1660:	e3a06000 	mov	r6, #0
    1664:	ef000000 	svc	0x00000000
    1668:	e8bd80e0 	pop	{r5, r6, r7, pc}

0000166c <__utee_mcount>:
__utee_mcount():
/home/st/桌面/OP-TEE/optee_os/lib/libutee/arch/arm/gprof/gprof_a32.S:71
    166c:	e52de004 	push	{lr}		; (str lr, [sp, #-4]!)
/home/st/桌面/OP-TEE/optee_os/lib/libutee/arch/arm/gprof/gprof_a32.S:72
    1670:	e8bd5000 	pop	{ip, lr}
/home/st/桌面/OP-TEE/optee_os/lib/libutee/arch/arm/gprof/gprof_a32.S:73
    1674:	e12fff1c 	bx	ip

00001678 <buf_addr>:
buf_addr():
/home/st/桌面/OP-TEE/optee_os/lib/libutee/tee_user_mem.c:130
    1678:	f84d 7d04 	str.w	r7, [sp, #-4]!
    167c:	b083      	sub	sp, #12
    167e:	af00      	add	r7, sp, #0
    1680:	6078      	str	r0, [r7, #4]
/home/st/桌面/OP-TEE/optee_os/lib/libutee/tee_user_mem.c:131
    1682:	687b      	ldr	r3, [r7, #4]
    1684:	f103 0310 	add.w	r3, r3, #16
/home/st/桌面/OP-TEE/optee_os/lib/libutee/tee_user_mem.c:132
    1688:	4618      	mov	r0, r3
    168a:	f107 070c 	add.w	r7, r7, #12
    168e:	46bd      	mov	sp, r7
    1690:	f85d 7b04 	ldr.w	r7, [sp], #4
    1694:	4770      	bx	lr

00001696 <buf_size>:
buf_size():
/home/st/桌面/OP-TEE/optee_os/lib/libutee/tee_user_mem.c:135
    1696:	f84d 7d04 	str.w	r7, [sp, #-4]!
    169a:	b083      	sub	sp, #12
    169c:	af00      	add	r7, sp, #0
    169e:	6078      	str	r0, [r7, #4]
/home/st/桌面/OP-TEE/optee_os/lib/libutee/tee_user_mem.c:136
    16a0:	687b      	ldr	r3, [r7, #4]
    16a2:	689b      	ldr	r3, [r3, #8]
    16a4:	f04f 0201 	mov.w	r2, #1
    16a8:	eba3 0302 	sub.w	r3, r3, r2
    16ac:	f1a3 0310 	sub.w	r3, r3, #16
/home/st/桌面/OP-TEE/optee_os/lib/libutee/tee_user_mem.c:137
    16b0:	4618      	mov	r0, r3
    16b2:	f107 070c 	add.w	r7, r7, #12
    16b6:	46bd      	mov	sp, r7
    16b8:	f85d 7b04 	ldr.w	r7, [sp], #4
    16bc:	4770      	bx	lr

000016be <elem_addr>:
elem_addr():
/home/st/桌面/OP-TEE/optee_os/lib/libutee/tee_user_mem.c:140
    16be:	f84d 7d04 	str.w	r7, [sp, #-4]!
    16c2:	b083      	sub	sp, #12
    16c4:	af00      	add	r7, sp, #0
    16c6:	6078      	str	r0, [r7, #4]
/home/st/桌面/OP-TEE/optee_os/lib/libutee/tee_user_mem.c:141
    16c8:	687b      	ldr	r3, [r7, #4]
    16ca:	f1a3 0310 	sub.w	r3, r3, #16
/home/st/桌面/OP-TEE/optee_os/lib/libutee/tee_user_mem.c:142
    16ce:	4618      	mov	r0, r3
    16d0:	f107 070c 	add.w	r7, r7, #12
    16d4:	46bd      	mov	sp, r7
    16d6:	f85d 7b04 	ldr.w	r7, [sp], #4
    16da:	4770      	bx	lr

000016dc <is_buffer_valid>:
is_buffer_valid():
/home/st/桌面/OP-TEE/optee_os/lib/libutee/tee_user_mem.c:148
    16dc:	e96d 7e02 	strd	r7, lr, [sp, #-8]!
    16e0:	b084      	sub	sp, #16
    16e2:	af00      	add	r7, sp, #0
    16e4:	6078      	str	r0, [r7, #4]
/home/st/桌面/OP-TEE/optee_os/lib/libutee/tee_user_mem.c:151
    16e6:	4b0e      	ldr	r3, [pc, #56]	; (1720 <is_buffer_valid+0x44>)
    16e8:	447b      	add	r3, pc
    16ea:	681b      	ldr	r3, [r3, #0]
    16ec:	60fb      	str	r3, [r7, #12]
    16ee:	e00c      	b.n	170a <is_buffer_valid+0x2e>
/home/st/桌面/OP-TEE/optee_os/lib/libutee/tee_user_mem.c:152
    16f0:	68f8      	ldr	r0, [r7, #12]
    16f2:	f7ff ffc1 	bl	1678 <buf_addr>
    16f6:	4602      	mov	r2, r0
    16f8:	687b      	ldr	r3, [r7, #4]
    16fa:	429a      	cmp	r2, r3
    16fc:	d102      	bne.n	1704 <is_buffer_valid+0x28>
/home/st/桌面/OP-TEE/optee_os/lib/libutee/tee_user_mem.c:153
    16fe:	f04f 0301 	mov.w	r3, #1
    1702:	e007      	b.n	1714 <is_buffer_valid+0x38>
/home/st/桌面/OP-TEE/optee_os/lib/libutee/tee_user_mem.c:151 (discriminator 2)
    1704:	68fb      	ldr	r3, [r7, #12]
    1706:	681b      	ldr	r3, [r3, #0]
    1708:	60fb      	str	r3, [r7, #12]
/home/st/桌面/OP-TEE/optee_os/lib/libutee/tee_user_mem.c:151 (discriminator 1)
    170a:	68fb      	ldr	r3, [r7, #12]
    170c:	2b00      	cmp	r3, #0
    170e:	d1ef      	bne.n	16f0 <is_buffer_valid+0x14>
/home/st/桌面/OP-TEE/optee_os/lib/libutee/tee_user_mem.c:155
    1710:	f04f 0300 	mov.w	r3, #0
/home/st/桌面/OP-TEE/optee_os/lib/libutee/tee_user_mem.c:156
    1714:	4618      	mov	r0, r3
    1716:	f107 0710 	add.w	r7, r7, #16
    171a:	46bd      	mov	sp, r7
    171c:	bd80      	pop	{r7, pc}
    171e:	bf00      	nop
    1720:	0000d994 	.word	0x0000d994

00001724 <print_buf>:
print_buf():
/home/st/桌面/OP-TEE/optee_os/lib/libutee/tee_user_mem.c:165
    1724:	f84d 4d0c 	str.w	r4, [sp, #-12]!
    1728:	e9cd 7e01 	strd	r7, lr, [sp, #4]
    172c:	b08d      	sub	sp, #52	; 0x34
    172e:	af08      	add	r7, sp, #32
    1730:	60f8      	str	r0, [r7, #12]
    1732:	60b9      	str	r1, [r7, #8]
    1734:	607a      	str	r2, [r7, #4]
    1736:	603b      	str	r3, [r7, #0]
/home/st/桌面/OP-TEE/optee_os/lib/libutee/tee_user_mem.c:166
    1738:	6a38      	ldr	r0, [r7, #32]
    173a:	f7ff ff9d 	bl	1678 <buf_addr>
    173e:	4604      	mov	r4, r0
    1740:	6a38      	ldr	r0, [r7, #32]
    1742:	f7ff ffa8 	bl	1696 <buf_size>
    1746:	4603      	mov	r3, r0
    1748:	9306      	str	r3, [sp, #24]
    174a:	9405      	str	r4, [sp, #20]
    174c:	6a3b      	ldr	r3, [r7, #32]
    174e:	9304      	str	r3, [sp, #16]
    1750:	683b      	ldr	r3, [r7, #0]
    1752:	9303      	str	r3, [sp, #12]
    1754:	687b      	ldr	r3, [r7, #4]
    1756:	9302      	str	r3, [sp, #8]
    1758:	68bb      	ldr	r3, [r7, #8]
    175a:	9301      	str	r3, [sp, #4]
    175c:	4b0a      	ldr	r3, [pc, #40]	; (1788 <print_buf+0x64>)
    175e:	447b      	add	r3, pc
    1760:	9300      	str	r3, [sp, #0]
    1762:	f04f 0301 	mov.w	r3, #1
    1766:	68fa      	ldr	r2, [r7, #12]
    1768:	f04f 0100 	mov.w	r1, #0
    176c:	f04f 0000 	mov.w	r0, #0
    1770:	f003 fd32 	bl	51d8 <trace_printf>
/home/st/桌面/OP-TEE/optee_os/lib/libutee/tee_user_mem.c:169
    1774:	bf00      	nop
    1776:	f107 0714 	add.w	r7, r7, #20
    177a:	46bd      	mov	sp, r7
    177c:	e9dd 4700 	ldrd	r4, r7, [sp]
    1780:	b002      	add	sp, #8
    1782:	f85d fb04 	ldr.w	pc, [sp], #4
    1786:	bf00      	nop
    1788:	0000a3ce 	.word	0x0000a3ce

0000178c <heap_inc>:
heap_inc():
/home/st/桌面/OP-TEE/optee_os/lib/libutee/tee_user_mem.c:195
    178c:	f84d 7d04 	str.w	r7, [sp, #-4]!
    1790:	b083      	sub	sp, #12
    1792:	af00      	add	r7, sp, #0
    1794:	6078      	str	r0, [r7, #4]
/home/st/桌面/OP-TEE/optee_os/lib/libutee/tee_user_mem.c:197
    1796:	4b0f      	ldr	r3, [pc, #60]	; (17d4 <heap_inc+0x48>)
    1798:	447b      	add	r3, pc
    179a:	681a      	ldr	r2, [r3, #0]
    179c:	687b      	ldr	r3, [r7, #4]
    179e:	4413      	add	r3, r2
    17a0:	4a0d      	ldr	r2, [pc, #52]	; (17d8 <heap_inc+0x4c>)
    17a2:	447a      	add	r2, pc
    17a4:	6013      	str	r3, [r2, #0]
/home/st/桌面/OP-TEE/optee_os/lib/libutee/tee_user_mem.c:199
    17a6:	4b0d      	ldr	r3, [pc, #52]	; (17dc <heap_inc+0x50>)
    17a8:	447b      	add	r3, pc
    17aa:	681b      	ldr	r3, [r3, #0]
    17ac:	f103 0301 	add.w	r3, r3, #1
    17b0:	4a0b      	ldr	r2, [pc, #44]	; (17e0 <heap_inc+0x54>)
    17b2:	447a      	add	r2, pc
    17b4:	6013      	str	r3, [r2, #0]
/home/st/桌面/OP-TEE/optee_os/lib/libutee/tee_user_mem.c:200
    17b6:	4b0b      	ldr	r3, [pc, #44]	; (17e4 <heap_inc+0x58>)
    17b8:	447b      	add	r3, pc
    17ba:	685a      	ldr	r2, [r3, #4]
    17bc:	687b      	ldr	r3, [r7, #4]
    17be:	4413      	add	r3, r2
    17c0:	4a09      	ldr	r2, [pc, #36]	; (17e8 <heap_inc+0x5c>)
    17c2:	447a      	add	r2, pc
    17c4:	6053      	str	r3, [r2, #4]
/home/st/桌面/OP-TEE/optee_os/lib/libutee/tee_user_mem.c:202
    17c6:	bf00      	nop
    17c8:	f107 070c 	add.w	r7, r7, #12
    17cc:	46bd      	mov	sp, r7
    17ce:	f85d 7b04 	ldr.w	r7, [sp], #4
    17d2:	4770      	bx	lr
    17d4:	00015930 	.word	0x00015930
    17d8:	00015926 	.word	0x00015926
    17dc:	00015924 	.word	0x00015924
    17e0:	0001591a 	.word	0x0001591a
    17e4:	00015914 	.word	0x00015914
    17e8:	0001590a 	.word	0x0001590a

000017ec <heap_dec>:
heap_dec():
/home/st/桌面/OP-TEE/optee_os/lib/libutee/tee_user_mem.c:205
    17ec:	f84d 7d04 	str.w	r7, [sp, #-4]!
    17f0:	b083      	sub	sp, #12
    17f2:	af00      	add	r7, sp, #0
    17f4:	6078      	str	r0, [r7, #4]
/home/st/桌面/OP-TEE/optee_os/lib/libutee/tee_user_mem.c:207
    17f6:	4b10      	ldr	r3, [pc, #64]	; (1838 <heap_dec+0x4c>)
    17f8:	447b      	add	r3, pc
    17fa:	681a      	ldr	r2, [r3, #0]
    17fc:	687b      	ldr	r3, [r7, #4]
    17fe:	eba2 0303 	sub.w	r3, r2, r3
    1802:	4a0e      	ldr	r2, [pc, #56]	; (183c <heap_dec+0x50>)
    1804:	447a      	add	r2, pc
    1806:	6013      	str	r3, [r2, #0]
/home/st/桌面/OP-TEE/optee_os/lib/libutee/tee_user_mem.c:209
    1808:	4b0d      	ldr	r3, [pc, #52]	; (1840 <heap_dec+0x54>)
    180a:	447b      	add	r3, pc
    180c:	681b      	ldr	r3, [r3, #0]
    180e:	f103 33ff 	add.w	r3, r3, #4294967295	; 0xffffffff
    1812:	4a0c      	ldr	r2, [pc, #48]	; (1844 <heap_dec+0x58>)
    1814:	447a      	add	r2, pc
    1816:	6013      	str	r3, [r2, #0]
/home/st/桌面/OP-TEE/optee_os/lib/libutee/tee_user_mem.c:210
    1818:	4b0b      	ldr	r3, [pc, #44]	; (1848 <heap_dec+0x5c>)
    181a:	447b      	add	r3, pc
    181c:	685a      	ldr	r2, [r3, #4]
    181e:	687b      	ldr	r3, [r7, #4]
    1820:	eba2 0303 	sub.w	r3, r2, r3
    1824:	4a09      	ldr	r2, [pc, #36]	; (184c <heap_dec+0x60>)
    1826:	447a      	add	r2, pc
    1828:	6053      	str	r3, [r2, #4]
/home/st/桌面/OP-TEE/optee_os/lib/libutee/tee_user_mem.c:212
    182a:	bf00      	nop
    182c:	f107 070c 	add.w	r7, r7, #12
    1830:	46bd      	mov	sp, r7
    1832:	f85d 7b04 	ldr.w	r7, [sp], #4
    1836:	4770      	bx	lr
    1838:	000158d0 	.word	0x000158d0
    183c:	000158c4 	.word	0x000158c4
    1840:	000158c2 	.word	0x000158c2
    1844:	000158b8 	.word	0x000158b8
    1848:	000158b2 	.word	0x000158b2
    184c:	000158a6 	.word	0x000158a6

00001850 <check_elem_end>:
check_elem_end():
/home/st/桌面/OP-TEE/optee_os/lib/libutee/tee_user_mem.c:218
    1850:	e96d 7e02 	strd	r7, lr, [sp, #-8]!
    1854:	b086      	sub	sp, #24
    1856:	af02      	add	r7, sp, #8
    1858:	6078      	str	r0, [r7, #4]
/home/st/桌面/OP-TEE/optee_os/lib/libutee/tee_user_mem.c:219
    185a:	687b      	ldr	r3, [r7, #4]
    185c:	60fb      	str	r3, [r7, #12]
/home/st/桌面/OP-TEE/optee_os/lib/libutee/tee_user_mem.c:226
    185e:	687b      	ldr	r3, [r7, #4]
    1860:	689b      	ldr	r3, [r3, #8]
    1862:	f04f 0201 	mov.w	r2, #1
    1866:	eba3 0302 	sub.w	r3, r3, r2
    186a:	68fa      	ldr	r2, [r7, #12]
    186c:	4413      	add	r3, r2
    186e:	781b      	ldrb	r3, [r3, #0]
    1870:	461a      	mov	r2, r3
/home/st/桌面/OP-TEE/optee_os/lib/libutee/tee_user_mem.c:227
    1872:	68fb      	ldr	r3, [r7, #12]
    1874:	b2db      	uxtb	r3, r3
    1876:	f083 03c5 	eor.w	r3, r3, #197	; 0xc5
/home/st/桌面/OP-TEE/optee_os/lib/libutee/tee_user_mem.c:226
    187a:	429a      	cmp	r2, r3
    187c:	d00e      	beq.n	189c <check_elem_end+0x4c>
/home/st/桌面/OP-TEE/optee_os/lib/libutee/tee_user_mem.c:228
    187e:	687b      	ldr	r3, [r7, #4]
    1880:	9300      	str	r3, [sp, #0]
    1882:	4b0a      	ldr	r3, [pc, #40]	; (18ac <check_elem_end+0x5c>)
    1884:	447b      	add	r3, pc
    1886:	f04f 02e4 	mov.w	r2, #228	; 0xe4
    188a:	4909      	ldr	r1, [pc, #36]	; (18b0 <check_elem_end+0x60>)
    188c:	4479      	add	r1, pc
    188e:	f04f 0001 	mov.w	r0, #1
    1892:	f7ff ff47 	bl	1724 <print_buf>
/home/st/桌面/OP-TEE/optee_os/lib/libutee/tee_user_mem.c:229
    1896:	f04f 0300 	mov.w	r3, #0
    189a:	e001      	b.n	18a0 <check_elem_end+0x50>
/home/st/桌面/OP-TEE/optee_os/lib/libutee/tee_user_mem.c:232
    189c:	f04f 0301 	mov.w	r3, #1
/home/st/桌面/OP-TEE/optee_os/lib/libutee/tee_user_mem.c:233
    18a0:	4618      	mov	r0, r3
    18a2:	f107 0710 	add.w	r7, r7, #16
    18a6:	46bd      	mov	sp, r7
    18a8:	bd80      	pop	{r7, pc}
    18aa:	bf00      	nop
    18ac:	0000a2cc 	.word	0x0000a2cc
    18b0:	0000a39c 	.word	0x0000a39c

000018b4 <check_elem>:
check_elem():
/home/st/桌面/OP-TEE/optee_os/lib/libutee/tee_user_mem.c:236
    18b4:	e96d 7e02 	strd	r7, lr, [sp, #-8]!
    18b8:	b086      	sub	sp, #24
    18ba:	af02      	add	r7, sp, #8
    18bc:	6078      	str	r0, [r7, #4]
/home/st/桌面/OP-TEE/optee_os/lib/libutee/tee_user_mem.c:240
    18be:	687b      	ldr	r3, [r7, #4]
    18c0:	2b00      	cmp	r3, #0
    18c2:	d102      	bne.n	18ca <check_elem+0x16>
/home/st/桌面/OP-TEE/optee_os/lib/libutee/tee_user_mem.c:241
    18c4:	f04f 0300 	mov.w	r3, #0
    18c8:	e051      	b.n	196e <check_elem+0xba>
/home/st/桌面/OP-TEE/optee_os/lib/libutee/tee_user_mem.c:243
    18ca:	687b      	ldr	r3, [r7, #4]
    18cc:	f003 0303 	and.w	r3, r3, #3
    18d0:	2b00      	cmp	r3, #0
    18d2:	d010      	beq.n	18f6 <check_elem+0x42>
/home/st/桌面/OP-TEE/optee_os/lib/libutee/tee_user_mem.c:244
    18d4:	4b28      	ldr	r3, [pc, #160]	; (1978 <check_elem+0xc4>)
    18d6:	447b      	add	r3, pc
    18d8:	9300      	str	r3, [sp, #0]
    18da:	f04f 0301 	mov.w	r3, #1
    18de:	f04f 0201 	mov.w	r2, #1
    18e2:	f04f 01f4 	mov.w	r1, #244	; 0xf4
    18e6:	4825      	ldr	r0, [pc, #148]	; (197c <check_elem+0xc8>)
    18e8:	4478      	add	r0, pc
    18ea:	f003 fc75 	bl	51d8 <trace_printf>
/home/st/桌面/OP-TEE/optee_os/lib/libutee/tee_user_mem.c:245
    18ee:	f04f 0000 	mov.w	r0, #0
    18f2:	f006 fb01 	bl	7ef8 <TEE_Panic>
/home/st/桌面/OP-TEE/optee_os/lib/libutee/tee_user_mem.c:248
    18f6:	687b      	ldr	r3, [r7, #4]
    18f8:	681b      	ldr	r3, [r3, #0]
    18fa:	60fb      	str	r3, [r7, #12]
/home/st/桌面/OP-TEE/optee_os/lib/libutee/tee_user_mem.c:249
    18fc:	68fb      	ldr	r3, [r7, #12]
    18fe:	2b00      	cmp	r3, #0
    1900:	d015      	beq.n	192e <check_elem+0x7a>
/home/st/桌面/OP-TEE/optee_os/lib/libutee/tee_user_mem.c:249 (discriminator 1)
    1902:	68fb      	ldr	r3, [r7, #12]
    1904:	685b      	ldr	r3, [r3, #4]
    1906:	685b      	ldr	r3, [r3, #4]
    1908:	681a      	ldr	r2, [r3, #0]
    190a:	687b      	ldr	r3, [r7, #4]
    190c:	429a      	cmp	r2, r3
    190e:	d00e      	beq.n	192e <check_elem+0x7a>
/home/st/桌面/OP-TEE/optee_os/lib/libutee/tee_user_mem.c:250
    1910:	68fb      	ldr	r3, [r7, #12]
    1912:	9300      	str	r3, [sp, #0]
    1914:	4b1a      	ldr	r3, [pc, #104]	; (1980 <check_elem+0xcc>)
    1916:	447b      	add	r3, pc
    1918:	f04f 02fa 	mov.w	r2, #250	; 0xfa
    191c:	4919      	ldr	r1, [pc, #100]	; (1984 <check_elem+0xd0>)
    191e:	4479      	add	r1, pc
    1920:	f04f 0001 	mov.w	r0, #1
    1924:	f7ff fefe 	bl	1724 <print_buf>
/home/st/桌面/OP-TEE/optee_os/lib/libutee/tee_user_mem.c:251
    1928:	f04f 0300 	mov.w	r3, #0
    192c:	e01f      	b.n	196e <check_elem+0xba>
/home/st/桌面/OP-TEE/optee_os/lib/libutee/tee_user_mem.c:254
    192e:	687b      	ldr	r3, [r7, #4]
    1930:	685b      	ldr	r3, [r3, #4]
    1932:	685b      	ldr	r3, [r3, #4]
    1934:	681b      	ldr	r3, [r3, #0]
    1936:	60fb      	str	r3, [r7, #12]
/home/st/桌面/OP-TEE/optee_os/lib/libutee/tee_user_mem.c:255
    1938:	68fb      	ldr	r3, [r7, #12]
    193a:	2b00      	cmp	r3, #0
    193c:	d013      	beq.n	1966 <check_elem+0xb2>
/home/st/桌面/OP-TEE/optee_os/lib/libutee/tee_user_mem.c:255 (discriminator 1)
    193e:	68fb      	ldr	r3, [r7, #12]
    1940:	681a      	ldr	r2, [r3, #0]
    1942:	687b      	ldr	r3, [r7, #4]
    1944:	429a      	cmp	r2, r3
    1946:	d00e      	beq.n	1966 <check_elem+0xb2>
/home/st/桌面/OP-TEE/optee_os/lib/libutee/tee_user_mem.c:256
    1948:	68fb      	ldr	r3, [r7, #12]
    194a:	9300      	str	r3, [sp, #0]
    194c:	4b0e      	ldr	r3, [pc, #56]	; (1988 <check_elem+0xd4>)
    194e:	447b      	add	r3, pc
    1950:	f44f 7280 	mov.w	r2, #256	; 0x100
    1954:	490d      	ldr	r1, [pc, #52]	; (198c <check_elem+0xd8>)
    1956:	4479      	add	r1, pc
    1958:	f04f 0001 	mov.w	r0, #1
    195c:	f7ff fee2 	bl	1724 <print_buf>
/home/st/桌面/OP-TEE/optee_os/lib/libutee/tee_user_mem.c:257
    1960:	f04f 0300 	mov.w	r3, #0
    1964:	e003      	b.n	196e <check_elem+0xba>
/home/st/桌面/OP-TEE/optee_os/lib/libutee/tee_user_mem.c:260
    1966:	6878      	ldr	r0, [r7, #4]
    1968:	f7ff ff72 	bl	1850 <check_elem_end>
    196c:	4603      	mov	r3, r0
/home/st/桌面/OP-TEE/optee_os/lib/libutee/tee_user_mem.c:261
    196e:	4618      	mov	r0, r3
    1970:	f107 0710 	add.w	r7, r7, #16
    1974:	46bd      	mov	sp, r7
    1976:	bd80      	pop	{r7, pc}
    1978:	0000a286 	.word	0x0000a286
    197c:	0000a350 	.word	0x0000a350
    1980:	0000a25e 	.word	0x0000a25e
    1984:	0000a31a 	.word	0x0000a31a
    1988:	0000a226 	.word	0x0000a226
    198c:	0000a2e2 	.word	0x0000a2e2

00001990 <is_mem_coherent>:
is_mem_coherent():
/home/st/桌面/OP-TEE/optee_os/lib/libutee/tee_user_mem.c:265
    1990:	e96d 7e02 	strd	r7, lr, [sp, #-8]!
    1994:	b082      	sub	sp, #8
    1996:	af00      	add	r7, sp, #0
/home/st/桌面/OP-TEE/optee_os/lib/libutee/tee_user_mem.c:268
    1998:	4b11      	ldr	r3, [pc, #68]	; (19e0 <is_mem_coherent+0x50>)
    199a:	447b      	add	r3, pc
    199c:	681b      	ldr	r3, [r3, #0]
    199e:	607b      	str	r3, [r7, #4]
    19a0:	e014      	b.n	19cc <is_mem_coherent+0x3c>
/home/st/桌面/OP-TEE/optee_os/lib/libutee/tee_user_mem.c:269
    19a2:	6878      	ldr	r0, [r7, #4]
    19a4:	f7ff ff86 	bl	18b4 <check_elem>
    19a8:	4603      	mov	r3, r0
    19aa:	2b00      	cmp	r3, #0
    19ac:	d10b      	bne.n	19c6 <is_mem_coherent+0x36>
/home/st/桌面/OP-TEE/optee_os/lib/libutee/tee_user_mem.c:270 (discriminator 1)
    19ae:	4b0d      	ldr	r3, [pc, #52]	; (19e4 <is_mem_coherent+0x54>)
    19b0:	447b      	add	r3, pc
    19b2:	f44f 7287 	mov.w	r2, #270	; 0x10e
    19b6:	490c      	ldr	r1, [pc, #48]	; (19e8 <is_mem_coherent+0x58>)
    19b8:	4479      	add	r1, pc
    19ba:	480c      	ldr	r0, [pc, #48]	; (19ec <is_mem_coherent+0x5c>)
    19bc:	4478      	add	r0, pc
    19be:	f000 fa35 	bl	1e2c <_assert_log>
    19c2:	f000 fa57 	bl	1e74 <_assert_break>
/home/st/桌面/OP-TEE/optee_os/lib/libutee/tee_user_mem.c:268 (discriminator 2)
    19c6:	687b      	ldr	r3, [r7, #4]
    19c8:	681b      	ldr	r3, [r3, #0]
    19ca:	607b      	str	r3, [r7, #4]
/home/st/桌面/OP-TEE/optee_os/lib/libutee/tee_user_mem.c:268 (discriminator 1)
    19cc:	687b      	ldr	r3, [r7, #4]
    19ce:	2b00      	cmp	r3, #0
    19d0:	d1e7      	bne.n	19a2 <is_mem_coherent+0x12>
/home/st/桌面/OP-TEE/optee_os/lib/libutee/tee_user_mem.c:274
    19d2:	f04f 0301 	mov.w	r3, #1
/home/st/桌面/OP-TEE/optee_os/lib/libutee/tee_user_mem.c:275
    19d6:	4618      	mov	r0, r3
    19d8:	f107 0708 	add.w	r7, r7, #8
    19dc:	46bd      	mov	sp, r7
    19de:	bd80      	pop	{r7, pc}
    19e0:	0000d6e2 	.word	0x0000d6e2
    19e4:	0000a294 	.word	0x0000a294
    19e8:	0000a1c8 	.word	0x0000a1c8
    19ec:	0000a1e0 	.word	0x0000a1e0

000019f0 <tee_user_mem_alloc>:
tee_user_mem_alloc():
/home/st/桌面/OP-TEE/optee_os/lib/libutee/tee_user_mem.c:297
    19f0:	e96d 7e02 	strd	r7, lr, [sp, #-8]!
    19f4:	b088      	sub	sp, #32
    19f6:	af02      	add	r7, sp, #8
    19f8:	6078      	str	r0, [r7, #4]
    19fa:	6039      	str	r1, [r7, #0]
/home/st/桌面/OP-TEE/optee_os/lib/libutee/tee_user_mem.c:299
    19fc:	f04f 0300 	mov.w	r3, #0
    1a00:	617b      	str	r3, [r7, #20]
/home/st/桌面/OP-TEE/optee_os/lib/libutee/tee_user_mem.c:301
    1a02:	f04f 0201 	mov.w	r2, #1
    1a06:	687b      	ldr	r3, [r7, #4]
    1a08:	4413      	add	r3, r2
/home/st/桌面/OP-TEE/optee_os/lib/libutee/tee_user_mem.c:300
    1a0a:	f103 0310 	add.w	r3, r3, #16
    1a0e:	613b      	str	r3, [r7, #16]
/home/st/桌面/OP-TEE/optee_os/lib/libutee/tee_user_mem.c:306
    1a10:	687b      	ldr	r3, [r7, #4]
    1a12:	2b00      	cmp	r3, #0
    1a14:	da02      	bge.n	1a1c <tee_user_mem_alloc+0x2c>
/home/st/桌面/OP-TEE/optee_os/lib/libutee/tee_user_mem.c:308
    1a16:	f04f 0300 	mov.w	r3, #0
    1a1a:	e077      	b.n	1b0c <tee_user_mem_alloc+0x11c>
/home/st/桌面/OP-TEE/optee_os/lib/libutee/tee_user_mem.c:311
    1a1c:	687b      	ldr	r3, [r7, #4]
    1a1e:	2b00      	cmp	r3, #0
    1a20:	d103      	bne.n	1a2a <tee_user_mem_alloc+0x3a>
/home/st/桌面/OP-TEE/optee_os/lib/libutee/tee_user_mem.c:313
    1a22:	4b3d      	ldr	r3, [pc, #244]	; (1b18 <tee_user_mem_alloc+0x128>)
    1a24:	447b      	add	r3, pc
    1a26:	681b      	ldr	r3, [r3, #0]
    1a28:	e070      	b.n	1b0c <tee_user_mem_alloc+0x11c>
/home/st/桌面/OP-TEE/optee_os/lib/libutee/tee_user_mem.c:317
    1a2a:	683b      	ldr	r3, [r7, #0]
    1a2c:	2b00      	cmp	r3, #0
    1a2e:	d014      	beq.n	1a5a <tee_user_mem_alloc+0x6a>
    1a30:	f1b3 4f00 	cmp.w	r3, #2147483648	; 0x80000000
    1a34:	d011      	beq.n	1a5a <tee_user_mem_alloc+0x6a>
/home/st/桌面/OP-TEE/optee_os/lib/libutee/tee_user_mem.c:322
    1a36:	683b      	ldr	r3, [r7, #0]
    1a38:	9301      	str	r3, [sp, #4]
    1a3a:	4b38      	ldr	r3, [pc, #224]	; (1b1c <tee_user_mem_alloc+0x12c>)
    1a3c:	447b      	add	r3, pc
    1a3e:	9300      	str	r3, [sp, #0]
    1a40:	f04f 0301 	mov.w	r3, #1
    1a44:	f04f 0201 	mov.w	r2, #1
    1a48:	f44f 71a1 	mov.w	r1, #322	; 0x142
    1a4c:	4834      	ldr	r0, [pc, #208]	; (1b20 <tee_user_mem_alloc+0x130>)
    1a4e:	4478      	add	r0, pc
    1a50:	f003 fbc2 	bl	51d8 <trace_printf>
/home/st/桌面/OP-TEE/optee_os/lib/libutee/tee_user_mem.c:324
    1a54:	f04f 0300 	mov.w	r3, #0
    1a58:	e058      	b.n	1b0c <tee_user_mem_alloc+0x11c>
/home/st/桌面/OP-TEE/optee_os/lib/libutee/tee_user_mem.c:320
    1a5a:	bf00      	nop
/home/st/桌面/OP-TEE/optee_os/lib/libutee/tee_user_mem.c:327
    1a5c:	6938      	ldr	r0, [r7, #16]
    1a5e:	f006 fa62 	bl	7f26 <utee_malloc>
    1a62:	60f8      	str	r0, [r7, #12]
/home/st/桌面/OP-TEE/optee_os/lib/libutee/tee_user_mem.c:328
    1a64:	68fb      	ldr	r3, [r7, #12]
    1a66:	2b00      	cmp	r3, #0
    1a68:	d04f      	beq.n	1b0a <tee_user_mem_alloc+0x11a>
/home/st/桌面/OP-TEE/optee_os/lib/libutee/tee_user_mem.c:329
    1a6a:	68fb      	ldr	r3, [r7, #12]
    1a6c:	60bb      	str	r3, [r7, #8]
/home/st/桌面/OP-TEE/optee_os/lib/libutee/tee_user_mem.c:330
    1a6e:	68bb      	ldr	r3, [r7, #8]
    1a70:	693a      	ldr	r2, [r7, #16]
    1a72:	609a      	str	r2, [r3, #8]
/home/st/桌面/OP-TEE/optee_os/lib/libutee/tee_user_mem.c:331
    1a74:	68bb      	ldr	r3, [r7, #8]
    1a76:	683a      	ldr	r2, [r7, #0]
    1a78:	60da      	str	r2, [r3, #12]
/home/st/桌面/OP-TEE/optee_os/lib/libutee/tee_user_mem.c:332
    1a7a:	6938      	ldr	r0, [r7, #16]
    1a7c:	f7ff fe86 	bl	178c <heap_inc>
/home/st/桌面/OP-TEE/optee_os/lib/libutee/tee_user_mem.c:335
    1a80:	68bb      	ldr	r3, [r7, #8]
    1a82:	f04f 0200 	mov.w	r2, #0
    1a86:	601a      	str	r2, [r3, #0]
    1a88:	4b26      	ldr	r3, [pc, #152]	; (1b24 <tee_user_mem_alloc+0x134>)
    1a8a:	447b      	add	r3, pc
    1a8c:	685a      	ldr	r2, [r3, #4]
    1a8e:	68bb      	ldr	r3, [r7, #8]
    1a90:	605a      	str	r2, [r3, #4]
    1a92:	4b25      	ldr	r3, [pc, #148]	; (1b28 <tee_user_mem_alloc+0x138>)
    1a94:	447b      	add	r3, pc
    1a96:	685b      	ldr	r3, [r3, #4]
    1a98:	68ba      	ldr	r2, [r7, #8]
    1a9a:	601a      	str	r2, [r3, #0]
    1a9c:	68bb      	ldr	r3, [r7, #8]
    1a9e:	4a23      	ldr	r2, [pc, #140]	; (1b2c <tee_user_mem_alloc+0x13c>)
    1aa0:	447a      	add	r2, pc
    1aa2:	6053      	str	r3, [r2, #4]
/home/st/桌面/OP-TEE/optee_os/lib/libutee/tee_user_mem.c:339
    1aa4:	f04f 0201 	mov.w	r2, #1
    1aa8:	693b      	ldr	r3, [r7, #16]
    1aaa:	eba3 0302 	sub.w	r3, r3, r2
    1aae:	68fa      	ldr	r2, [r7, #12]
    1ab0:	441a      	add	r2, r3
/home/st/桌面/OP-TEE/optee_os/lib/libutee/tee_user_mem.c:340
    1ab2:	68fb      	ldr	r3, [r7, #12]
    1ab4:	b2db      	uxtb	r3, r3
    1ab6:	f083 033a 	eor.w	r3, r3, #58	; 0x3a
    1aba:	ea6f 0303 	mvn.w	r3, r3
    1abe:	b2db      	uxtb	r3, r3
/home/st/桌面/OP-TEE/optee_os/lib/libutee/tee_user_mem.c:339
    1ac0:	7013      	strb	r3, [r2, #0]
/home/st/桌面/OP-TEE/optee_os/lib/libutee/tee_user_mem.c:343
    1ac2:	68bb      	ldr	r3, [r7, #8]
    1ac4:	9300      	str	r3, [sp, #0]
    1ac6:	4b1a      	ldr	r3, [pc, #104]	; (1b30 <tee_user_mem_alloc+0x140>)
    1ac8:	447b      	add	r3, pc
    1aca:	f240 1257 	movw	r2, #343	; 0x157
    1ace:	4919      	ldr	r1, [pc, #100]	; (1b34 <tee_user_mem_alloc+0x144>)
    1ad0:	4479      	add	r1, pc
    1ad2:	f04f 0004 	mov.w	r0, #4
    1ad6:	f7ff fe25 	bl	1724 <print_buf>
/home/st/桌面/OP-TEE/optee_os/lib/libutee/tee_user_mem.c:345
    1ada:	68b8      	ldr	r0, [r7, #8]
    1adc:	f7ff fdcc 	bl	1678 <buf_addr>
    1ae0:	6178      	str	r0, [r7, #20]
/home/st/桌面/OP-TEE/optee_os/lib/libutee/tee_user_mem.c:347
    1ae2:	683b      	ldr	r3, [r7, #0]
    1ae4:	2b00      	cmp	r3, #0
    1ae6:	d106      	bne.n	1af6 <tee_user_mem_alloc+0x106>
/home/st/桌面/OP-TEE/optee_os/lib/libutee/tee_user_mem.c:348
    1ae8:	687a      	ldr	r2, [r7, #4]
    1aea:	f04f 0100 	mov.w	r1, #0
    1aee:	6978      	ldr	r0, [r7, #20]
    1af0:	f006 fc0d 	bl	830e <memset>
    1af4:	e009      	b.n	1b0a <tee_user_mem_alloc+0x11a>
/home/st/桌面/OP-TEE/optee_os/lib/libutee/tee_user_mem.c:350
    1af6:	683b      	ldr	r3, [r7, #0]
    1af8:	f1b3 4f00 	cmp.w	r3, #2147483648	; 0x80000000
    1afc:	d105      	bne.n	1b0a <tee_user_mem_alloc+0x11a>
/home/st/桌面/OP-TEE/optee_os/lib/libutee/tee_user_mem.c:352
    1afe:	687a      	ldr	r2, [r7, #4]
    1b00:	f04f 01bb 	mov.w	r1, #187	; 0xbb
    1b04:	6978      	ldr	r0, [r7, #20]
    1b06:	f006 fc02 	bl	830e <memset>
/home/st/桌面/OP-TEE/optee_os/lib/libutee/tee_user_mem.c:357
    1b0a:	697b      	ldr	r3, [r7, #20]
/home/st/桌面/OP-TEE/optee_os/lib/libutee/tee_user_mem.c:358
    1b0c:	4618      	mov	r0, r3
    1b0e:	f107 0718 	add.w	r7, r7, #24
    1b12:	46bd      	mov	sp, r7
    1b14:	bd80      	pop	{r7, pc}
    1b16:	bf00      	nop
    1b18:	0000d654 	.word	0x0000d654
    1b1c:	0000a164 	.word	0x0000a164
    1b20:	0000a206 	.word	0x0000a206
    1b24:	0000d5f2 	.word	0x0000d5f2
    1b28:	0000d5e8 	.word	0x0000d5e8
    1b2c:	0000d5dc 	.word	0x0000d5dc
    1b30:	0000a0f4 	.word	0x0000a0f4
    1b34:	0000a184 	.word	0x0000a184

00001b38 <tee_user_mem_realloc>:
tee_user_mem_realloc():
/home/st/桌面/OP-TEE/optee_os/lib/libutee/tee_user_mem.c:367
    1b38:	e96d 7e02 	strd	r7, lr, [sp, #-8]!
    1b3c:	b088      	sub	sp, #32
    1b3e:	af00      	add	r7, sp, #0
    1b40:	6078      	str	r0, [r7, #4]
    1b42:	6039      	str	r1, [r7, #0]
/home/st/桌面/OP-TEE/optee_os/lib/libutee/tee_user_mem.c:374
    1b44:	683b      	ldr	r3, [r7, #0]
    1b46:	2b00      	cmp	r3, #0
    1b48:	da02      	bge.n	1b50 <tee_user_mem_realloc+0x18>
/home/st/桌面/OP-TEE/optee_os/lib/libutee/tee_user_mem.c:376
    1b4a:	f04f 0300 	mov.w	r3, #0
    1b4e:	e041      	b.n	1bd4 <tee_user_mem_realloc+0x9c>
/home/st/桌面/OP-TEE/optee_os/lib/libutee/tee_user_mem.c:384
    1b50:	687b      	ldr	r3, [r7, #4]
    1b52:	2b00      	cmp	r3, #0
    1b54:	d00b      	beq.n	1b6e <tee_user_mem_realloc+0x36>
/home/st/桌面/OP-TEE/optee_os/lib/libutee/tee_user_mem.c:384 (discriminator 1)
    1b56:	4b22      	ldr	r3, [pc, #136]	; (1be0 <tee_user_mem_realloc+0xa8>)
    1b58:	447b      	add	r3, pc
    1b5a:	681b      	ldr	r3, [r3, #0]
    1b5c:	687a      	ldr	r2, [r7, #4]
    1b5e:	429a      	cmp	r2, r3
    1b60:	d005      	beq.n	1b6e <tee_user_mem_realloc+0x36>
/home/st/桌面/OP-TEE/optee_os/lib/libutee/tee_user_mem.c:384 (discriminator 2)
    1b62:	6878      	ldr	r0, [r7, #4]
    1b64:	f7ff fdba 	bl	16dc <is_buffer_valid>
    1b68:	4603      	mov	r3, r0
    1b6a:	2b00      	cmp	r3, #0
    1b6c:	d108      	bne.n	1b80 <tee_user_mem_realloc+0x48>
/home/st/桌面/OP-TEE/optee_os/lib/libutee/tee_user_mem.c:385
    1b6e:	f04f 0300 	mov.w	r3, #0
    1b72:	4619      	mov	r1, r3
    1b74:	6838      	ldr	r0, [r7, #0]
    1b76:	f7ff ff3b 	bl	19f0 <tee_user_mem_alloc>
    1b7a:	6178      	str	r0, [r7, #20]
/home/st/桌面/OP-TEE/optee_os/lib/libutee/tee_user_mem.c:387
    1b7c:	697b      	ldr	r3, [r7, #20]
    1b7e:	e029      	b.n	1bd4 <tee_user_mem_realloc+0x9c>
/home/st/桌面/OP-TEE/optee_os/lib/libutee/tee_user_mem.c:394
    1b80:	6878      	ldr	r0, [r7, #4]
    1b82:	f7ff fd9c 	bl	16be <elem_addr>
    1b86:	61f8      	str	r0, [r7, #28]
/home/st/桌面/OP-TEE/optee_os/lib/libutee/tee_user_mem.c:395
    1b88:	69f8      	ldr	r0, [r7, #28]
    1b8a:	f7ff fd84 	bl	1696 <buf_size>
    1b8e:	61b8      	str	r0, [r7, #24]
/home/st/桌面/OP-TEE/optee_os/lib/libutee/tee_user_mem.c:396
    1b90:	683a      	ldr	r2, [r7, #0]
    1b92:	69bb      	ldr	r3, [r7, #24]
    1b94:	429a      	cmp	r2, r3
    1b96:	d101      	bne.n	1b9c <tee_user_mem_realloc+0x64>
/home/st/桌面/OP-TEE/optee_os/lib/libutee/tee_user_mem.c:398
    1b98:	687b      	ldr	r3, [r7, #4]
    1b9a:	e01b      	b.n	1bd4 <tee_user_mem_realloc+0x9c>
/home/st/桌面/OP-TEE/optee_os/lib/libutee/tee_user_mem.c:406
    1b9c:	69fb      	ldr	r3, [r7, #28]
    1b9e:	68db      	ldr	r3, [r3, #12]
    1ba0:	4619      	mov	r1, r3
    1ba2:	6838      	ldr	r0, [r7, #0]
    1ba4:	f7ff ff24 	bl	19f0 <tee_user_mem_alloc>
    1ba8:	6178      	str	r0, [r7, #20]
/home/st/桌面/OP-TEE/optee_os/lib/libutee/tee_user_mem.c:407
    1baa:	697b      	ldr	r3, [r7, #20]
    1bac:	2b00      	cmp	r3, #0
    1bae:	d010      	beq.n	1bd2 <tee_user_mem_realloc+0x9a>
/home/st/桌面/OP-TEE/optee_os/lib/libutee/tee_user_mem.c:408
    1bb0:	683b      	ldr	r3, [r7, #0]
    1bb2:	613b      	str	r3, [r7, #16]
    1bb4:	69bb      	ldr	r3, [r7, #24]
    1bb6:	60fb      	str	r3, [r7, #12]
    1bb8:	68fa      	ldr	r2, [r7, #12]
    1bba:	693b      	ldr	r3, [r7, #16]
    1bbc:	4293      	cmp	r3, r2
    1bbe:	bf28      	it	cs
    1bc0:	4613      	movcs	r3, r2
    1bc2:	461a      	mov	r2, r3
    1bc4:	6879      	ldr	r1, [r7, #4]
    1bc6:	6978      	ldr	r0, [r7, #20]
    1bc8:	f006 fa89 	bl	80de <memcpy>
/home/st/桌面/OP-TEE/optee_os/lib/libutee/tee_user_mem.c:411
    1bcc:	6878      	ldr	r0, [r7, #4]
    1bce:	f000 f809 	bl	1be4 <tee_user_mem_free>
/home/st/桌面/OP-TEE/optee_os/lib/libutee/tee_user_mem.c:415
    1bd2:	697b      	ldr	r3, [r7, #20]
/home/st/桌面/OP-TEE/optee_os/lib/libutee/tee_user_mem.c:416
    1bd4:	4618      	mov	r0, r3
    1bd6:	f107 0720 	add.w	r7, r7, #32
    1bda:	46bd      	mov	sp, r7
    1bdc:	bd80      	pop	{r7, pc}
    1bde:	bf00      	nop
    1be0:	0000d520 	.word	0x0000d520

00001be4 <tee_user_mem_free>:
tee_user_mem_free():
/home/st/桌面/OP-TEE/optee_os/lib/libutee/tee_user_mem.c:423
    1be4:	e96d 7e02 	strd	r7, lr, [sp, #-8]!
    1be8:	b086      	sub	sp, #24
    1bea:	af02      	add	r7, sp, #8
    1bec:	6078      	str	r0, [r7, #4]
/home/st/桌面/OP-TEE/optee_os/lib/libutee/tee_user_mem.c:430
    1bee:	687b      	ldr	r3, [r7, #4]
    1bf0:	2b00      	cmp	r3, #0
    1bf2:	d069      	beq.n	1cc8 <tee_user_mem_free+0xe4>
/home/st/桌面/OP-TEE/optee_os/lib/libutee/tee_user_mem.c:430 (discriminator 1)
    1bf4:	4b37      	ldr	r3, [pc, #220]	; (1cd4 <tee_user_mem_free+0xf0>)
    1bf6:	447b      	add	r3, pc
    1bf8:	681b      	ldr	r3, [r3, #0]
    1bfa:	687a      	ldr	r2, [r7, #4]
    1bfc:	429a      	cmp	r2, r3
    1bfe:	d063      	beq.n	1cc8 <tee_user_mem_free+0xe4>
/home/st/桌面/OP-TEE/optee_os/lib/libutee/tee_user_mem.c:434
    1c00:	6878      	ldr	r0, [r7, #4]
    1c02:	f7ff fd6b 	bl	16dc <is_buffer_valid>
    1c06:	4603      	mov	r3, r0
    1c08:	2b00      	cmp	r3, #0
    1c0a:	d10f      	bne.n	1c2c <tee_user_mem_free+0x48>
/home/st/桌面/OP-TEE/optee_os/lib/libutee/tee_user_mem.c:435
    1c0c:	687b      	ldr	r3, [r7, #4]
    1c0e:	9301      	str	r3, [sp, #4]
    1c10:	4b31      	ldr	r3, [pc, #196]	; (1cd8 <tee_user_mem_free+0xf4>)
    1c12:	447b      	add	r3, pc
    1c14:	9300      	str	r3, [sp, #0]
    1c16:	f04f 0301 	mov.w	r3, #1
    1c1a:	f04f 0201 	mov.w	r2, #1
    1c1e:	f240 11b3 	movw	r1, #435	; 0x1b3
    1c22:	482e      	ldr	r0, [pc, #184]	; (1cdc <tee_user_mem_free+0xf8>)
    1c24:	4478      	add	r0, pc
    1c26:	f003 fad7 	bl	51d8 <trace_printf>
/home/st/桌面/OP-TEE/optee_os/lib/libutee/tee_user_mem.c:436
    1c2a:	e04e      	b.n	1cca <tee_user_mem_free+0xe6>
/home/st/桌面/OP-TEE/optee_os/lib/libutee/tee_user_mem.c:439
    1c2c:	6878      	ldr	r0, [r7, #4]
    1c2e:	f7ff fd46 	bl	16be <elem_addr>
    1c32:	60f8      	str	r0, [r7, #12]
/home/st/桌面/OP-TEE/optee_os/lib/libutee/tee_user_mem.c:440
    1c34:	68fb      	ldr	r3, [r7, #12]
    1c36:	60bb      	str	r3, [r7, #8]
/home/st/桌面/OP-TEE/optee_os/lib/libutee/tee_user_mem.c:442
    1c38:	68bb      	ldr	r3, [r7, #8]
    1c3a:	9300      	str	r3, [sp, #0]
    1c3c:	4b28      	ldr	r3, [pc, #160]	; (1ce0 <tee_user_mem_free+0xfc>)
    1c3e:	447b      	add	r3, pc
    1c40:	f44f 72dd 	mov.w	r2, #442	; 0x1ba
    1c44:	4927      	ldr	r1, [pc, #156]	; (1ce4 <tee_user_mem_free+0x100>)
    1c46:	4479      	add	r1, pc
    1c48:	f04f 0004 	mov.w	r0, #4
    1c4c:	f7ff fd6a 	bl	1724 <print_buf>
/home/st/桌面/OP-TEE/optee_os/lib/libutee/tee_user_mem.c:445
    1c50:	68b8      	ldr	r0, [r7, #8]
    1c52:	f7ff fe2f 	bl	18b4 <check_elem>
    1c56:	4603      	mov	r3, r0
    1c58:	2b00      	cmp	r3, #0
    1c5a:	d110      	bne.n	1c7e <tee_user_mem_free+0x9a>
/home/st/桌面/OP-TEE/optee_os/lib/libutee/tee_user_mem.c:446
    1c5c:	4b22      	ldr	r3, [pc, #136]	; (1ce8 <tee_user_mem_free+0x104>)
    1c5e:	447b      	add	r3, pc
    1c60:	9300      	str	r3, [sp, #0]
    1c62:	f04f 0301 	mov.w	r3, #1
    1c66:	f04f 0201 	mov.w	r2, #1
    1c6a:	f44f 71df 	mov.w	r1, #446	; 0x1be
    1c6e:	481f      	ldr	r0, [pc, #124]	; (1cec <tee_user_mem_free+0x108>)
    1c70:	4478      	add	r0, pc
    1c72:	f003 fab1 	bl	51d8 <trace_printf>
/home/st/桌面/OP-TEE/optee_os/lib/libutee/tee_user_mem.c:447
    1c76:	f04f 0000 	mov.w	r0, #0
    1c7a:	f006 f93d 	bl	7ef8 <TEE_Panic>
/home/st/桌面/OP-TEE/optee_os/lib/libutee/tee_user_mem.c:451
    1c7e:	68bb      	ldr	r3, [r7, #8]
    1c80:	681b      	ldr	r3, [r3, #0]
    1c82:	2b00      	cmp	r3, #0
    1c84:	d005      	beq.n	1c92 <tee_user_mem_free+0xae>
/home/st/桌面/OP-TEE/optee_os/lib/libutee/tee_user_mem.c:451 (discriminator 1)
    1c86:	68bb      	ldr	r3, [r7, #8]
    1c88:	681b      	ldr	r3, [r3, #0]
    1c8a:	68ba      	ldr	r2, [r7, #8]
    1c8c:	6852      	ldr	r2, [r2, #4]
    1c8e:	605a      	str	r2, [r3, #4]
    1c90:	e004      	b.n	1c9c <tee_user_mem_free+0xb8>
/home/st/桌面/OP-TEE/optee_os/lib/libutee/tee_user_mem.c:451 (discriminator 2)
    1c92:	68bb      	ldr	r3, [r7, #8]
    1c94:	685b      	ldr	r3, [r3, #4]
    1c96:	4a16      	ldr	r2, [pc, #88]	; (1cf0 <tee_user_mem_free+0x10c>)
    1c98:	447a      	add	r2, pc
    1c9a:	6053      	str	r3, [r2, #4]
/home/st/桌面/OP-TEE/optee_os/lib/libutee/tee_user_mem.c:451 (discriminator 4)
    1c9c:	68bb      	ldr	r3, [r7, #8]
    1c9e:	685b      	ldr	r3, [r3, #4]
    1ca0:	68ba      	ldr	r2, [r7, #8]
    1ca2:	6812      	ldr	r2, [r2, #0]
    1ca4:	601a      	str	r2, [r3, #0]
/home/st/桌面/OP-TEE/optee_os/lib/libutee/tee_user_mem.c:453 (discriminator 4)
    1ca6:	68bb      	ldr	r3, [r7, #8]
    1ca8:	689b      	ldr	r3, [r3, #8]
    1caa:	4618      	mov	r0, r3
    1cac:	f7ff fd9e 	bl	17ec <heap_dec>
/home/st/桌面/OP-TEE/optee_os/lib/libutee/tee_user_mem.c:462 (discriminator 4)
    1cb0:	68bb      	ldr	r3, [r7, #8]
    1cb2:	689b      	ldr	r3, [r3, #8]
    1cb4:	461a      	mov	r2, r3
    1cb6:	f04f 01aa 	mov.w	r1, #170	; 0xaa
    1cba:	68f8      	ldr	r0, [r7, #12]
    1cbc:	f006 fb27 	bl	830e <memset>
/home/st/桌面/OP-TEE/optee_os/lib/libutee/tee_user_mem.c:465 (discriminator 4)
    1cc0:	68f8      	ldr	r0, [r7, #12]
    1cc2:	f006 f95e 	bl	7f82 <utee_free>
    1cc6:	e000      	b.n	1cca <tee_user_mem_free+0xe6>
/home/st/桌面/OP-TEE/optee_os/lib/libutee/tee_user_mem.c:431
    1cc8:	bf00      	nop
/home/st/桌面/OP-TEE/optee_os/lib/libutee/tee_user_mem.c:468
    1cca:	f107 0710 	add.w	r7, r7, #16
    1cce:	46bd      	mov	sp, r7
    1cd0:	bd80      	pop	{r7, pc}
    1cd2:	bf00      	nop
    1cd4:	0000d482 	.word	0x0000d482
    1cd8:	00009fb6 	.word	0x00009fb6
    1cdc:	0000a044 	.word	0x0000a044
    1ce0:	00009fa6 	.word	0x00009fa6
    1ce4:	0000a022 	.word	0x0000a022
    1ce8:	00009f8e 	.word	0x00009f8e
    1cec:	00009ff8 	.word	0x00009ff8
    1cf0:	0000d3e4 	.word	0x0000d3e4

00001cf4 <tee_user_mem_mark_heap>:
tee_user_mem_mark_heap():
/home/st/桌面/OP-TEE/optee_os/lib/libutee/tee_user_mem.c:475
    1cf4:	f84d 7d04 	str.w	r7, [sp, #-4]!
    1cf8:	af00      	add	r7, sp, #0
/home/st/桌面/OP-TEE/optee_os/lib/libutee/tee_user_mem.c:478
    1cfa:	4b05      	ldr	r3, [pc, #20]	; (1d10 <tee_user_mem_mark_heap+0x1c>)
    1cfc:	447b      	add	r3, pc
    1cfe:	461a      	mov	r2, r3
    1d00:	f04f 0300 	mov.w	r3, #0
    1d04:	6013      	str	r3, [r2, #0]
/home/st/桌面/OP-TEE/optee_os/lib/libutee/tee_user_mem.c:480
    1d06:	bf00      	nop
    1d08:	46bd      	mov	sp, r7
    1d0a:	f85d 7b04 	ldr.w	r7, [sp], #4
    1d0e:	4770      	bx	lr
    1d10:	000153cc 	.word	0x000153cc

00001d14 <tee_user_mem_check_heap>:
tee_user_mem_check_heap():
/home/st/桌面/OP-TEE/optee_os/lib/libutee/tee_user_mem.c:488
    1d14:	e96d 7e02 	strd	r7, lr, [sp, #-8]!
    1d18:	b084      	sub	sp, #16
    1d1a:	af02      	add	r7, sp, #8
/home/st/桌面/OP-TEE/optee_os/lib/libutee/tee_user_mem.c:489
    1d1c:	f04f 0300 	mov.w	r3, #0
    1d20:	607b      	str	r3, [r7, #4]
/home/st/桌面/OP-TEE/optee_os/lib/libutee/tee_user_mem.c:492
    1d22:	4b14      	ldr	r3, [pc, #80]	; (1d74 <tee_user_mem_check_heap+0x60>)
    1d24:	447b      	add	r3, pc
    1d26:	681b      	ldr	r3, [r3, #0]
    1d28:	2b00      	cmp	r3, #0
    1d2a:	d014      	beq.n	1d56 <tee_user_mem_check_heap+0x42>
/home/st/桌面/OP-TEE/optee_os/lib/libutee/tee_user_mem.c:493
    1d2c:	4b12      	ldr	r3, [pc, #72]	; (1d78 <tee_user_mem_check_heap+0x64>)
    1d2e:	447b      	add	r3, pc
    1d30:	681b      	ldr	r3, [r3, #0]
    1d32:	9301      	str	r3, [sp, #4]
    1d34:	4b11      	ldr	r3, [pc, #68]	; (1d7c <tee_user_mem_check_heap+0x68>)
    1d36:	447b      	add	r3, pc
    1d38:	9300      	str	r3, [sp, #0]
    1d3a:	f04f 0301 	mov.w	r3, #1
    1d3e:	f04f 0201 	mov.w	r2, #1
    1d42:	f240 11ed 	movw	r1, #493	; 0x1ed
    1d46:	480e      	ldr	r0, [pc, #56]	; (1d80 <tee_user_mem_check_heap+0x6c>)
    1d48:	4478      	add	r0, pc
    1d4a:	f003 fa45 	bl	51d8 <trace_printf>
/home/st/桌面/OP-TEE/optee_os/lib/libutee/tee_user_mem.c:495
    1d4e:	4b0d      	ldr	r3, [pc, #52]	; (1d84 <tee_user_mem_check_heap+0x70>)
    1d50:	447b      	add	r3, pc
    1d52:	681b      	ldr	r3, [r3, #0]
    1d54:	e009      	b.n	1d6a <tee_user_mem_check_heap+0x56>
/home/st/桌面/OP-TEE/optee_os/lib/libutee/tee_user_mem.c:498
    1d56:	f7ff fe1b 	bl	1990 <is_mem_coherent>
    1d5a:	4603      	mov	r3, r0
    1d5c:	2b00      	cmp	r3, #0
    1d5e:	bf0c      	ite	eq
    1d60:	2301      	moveq	r3, #1
    1d62:	2300      	movne	r3, #0
    1d64:	b2db      	uxtb	r3, r3
    1d66:	607b      	str	r3, [r7, #4]
/home/st/桌面/OP-TEE/optee_os/lib/libutee/tee_user_mem.c:501
    1d68:	687b      	ldr	r3, [r7, #4]
/home/st/桌面/OP-TEE/optee_os/lib/libutee/tee_user_mem.c:502
    1d6a:	4618      	mov	r0, r3
    1d6c:	f107 0708 	add.w	r7, r7, #8
    1d70:	46bd      	mov	sp, r7
    1d72:	bd80      	pop	{r7, pc}
    1d74:	000153a4 	.word	0x000153a4
    1d78:	0001539a 	.word	0x0001539a
    1d7c:	00009ece 	.word	0x00009ece
    1d80:	00009f34 	.word	0x00009f34
    1d84:	00015378 	.word	0x00015378

00001d88 <tee_user_mem_status>:
tee_user_mem_status():
/home/st/桌面/OP-TEE/optee_os/lib/libutee/tee_user_mem.c:508
    1d88:	e96d 7e02 	strd	r7, lr, [sp, #-8]!
    1d8c:	b086      	sub	sp, #24
    1d8e:	af02      	add	r7, sp, #8
    1d90:	6078      	str	r0, [r7, #4]
/home/st/桌面/OP-TEE/optee_os/lib/libutee/tee_user_mem.c:510
    1d92:	687b      	ldr	r3, [r7, #4]
    1d94:	2b00      	cmp	r3, #0
    1d96:	d007      	beq.n	1da8 <tee_user_mem_status+0x20>
/home/st/桌面/OP-TEE/optee_os/lib/libutee/tee_user_mem.c:511
    1d98:	f04f 0208 	mov.w	r2, #8
    1d9c:	4b10      	ldr	r3, [pc, #64]	; (1de0 <tee_user_mem_status+0x58>)
    1d9e:	447b      	add	r3, pc
    1da0:	4619      	mov	r1, r3
    1da2:	6878      	ldr	r0, [r7, #4]
    1da4:	f006 f99b 	bl	80de <memcpy>
/home/st/桌面/OP-TEE/optee_os/lib/libutee/tee_user_mem.c:518
    1da8:	4b0e      	ldr	r3, [pc, #56]	; (1de4 <tee_user_mem_status+0x5c>)
    1daa:	447b      	add	r3, pc
    1dac:	681b      	ldr	r3, [r3, #0]
    1dae:	60fb      	str	r3, [r7, #12]
    1db0:	e00e      	b.n	1dd0 <tee_user_mem_status+0x48>
/home/st/桌面/OP-TEE/optee_os/lib/libutee/tee_user_mem.c:519 (discriminator 3)
    1db2:	68fb      	ldr	r3, [r7, #12]
    1db4:	9300      	str	r3, [sp, #0]
    1db6:	4b0c      	ldr	r3, [pc, #48]	; (1de8 <tee_user_mem_status+0x60>)
    1db8:	447b      	add	r3, pc
    1dba:	f240 2207 	movw	r2, #519	; 0x207
    1dbe:	490b      	ldr	r1, [pc, #44]	; (1dec <tee_user_mem_status+0x64>)
    1dc0:	4479      	add	r1, pc
    1dc2:	f04f 0001 	mov.w	r0, #1
    1dc6:	f7ff fcad 	bl	1724 <print_buf>
/home/st/桌面/OP-TEE/optee_os/lib/libutee/tee_user_mem.c:518 (discriminator 3)
    1dca:	68fb      	ldr	r3, [r7, #12]
    1dcc:	681b      	ldr	r3, [r3, #0]
    1dce:	60fb      	str	r3, [r7, #12]
/home/st/桌面/OP-TEE/optee_os/lib/libutee/tee_user_mem.c:518 (discriminator 1)
    1dd0:	68fb      	ldr	r3, [r7, #12]
    1dd2:	2b00      	cmp	r3, #0
    1dd4:	d1ed      	bne.n	1db2 <tee_user_mem_status+0x2a>
/home/st/桌面/OP-TEE/optee_os/lib/libutee/tee_user_mem.c:521
    1dd6:	bf00      	nop
    1dd8:	f107 0710 	add.w	r7, r7, #16
    1ddc:	46bd      	mov	sp, r7
    1dde:	bd80      	pop	{r7, pc}
    1de0:	0001532e 	.word	0x0001532e
    1de4:	0000d2d2 	.word	0x0000d2d2
    1de8:	00009e6c 	.word	0x00009e6c
    1dec:	00009ed4 	.word	0x00009ed4

00001df0 <tee_user_mem_garbage>:
tee_user_mem_garbage():
/home/st/桌面/OP-TEE/optee_os/lib/libutee/tee_user_mem.c:537
    1df0:	e96d 7e02 	strd	r7, lr, [sp, #-8]!
    1df4:	af00      	add	r7, sp, #0
/home/st/桌面/OP-TEE/optee_os/lib/libutee/tee_user_mem.c:539
    1df6:	f04f 0000 	mov.w	r0, #0
    1dfa:	f7ff ffc5 	bl	1d88 <tee_user_mem_status>
/home/st/桌面/OP-TEE/optee_os/lib/libutee/tee_user_mem.c:542
    1dfe:	e009      	b.n	1e14 <tee_user_mem_garbage+0x24>
/home/st/桌面/OP-TEE/optee_os/lib/libutee/tee_user_mem.c:543
    1e00:	4b08      	ldr	r3, [pc, #32]	; (1e24 <tee_user_mem_garbage+0x34>)
    1e02:	447b      	add	r3, pc
    1e04:	681b      	ldr	r3, [r3, #0]
    1e06:	4618      	mov	r0, r3
    1e08:	f7ff fc36 	bl	1678 <buf_addr>
    1e0c:	4603      	mov	r3, r0
    1e0e:	4618      	mov	r0, r3
    1e10:	f7ff fee8 	bl	1be4 <tee_user_mem_free>
/home/st/桌面/OP-TEE/optee_os/lib/libutee/tee_user_mem.c:542
    1e14:	4b04      	ldr	r3, [pc, #16]	; (1e28 <tee_user_mem_garbage+0x38>)
    1e16:	447b      	add	r3, pc
    1e18:	681b      	ldr	r3, [r3, #0]
    1e1a:	2b00      	cmp	r3, #0
    1e1c:	d1f0      	bne.n	1e00 <tee_user_mem_garbage+0x10>
/home/st/桌面/OP-TEE/optee_os/lib/libutee/tee_user_mem.c:544
    1e1e:	bf00      	nop
    1e20:	46bd      	mov	sp, r7
    1e22:	bd80      	pop	{r7, pc}
    1e24:	0000d27a 	.word	0x0000d27a
    1e28:	0000d266 	.word	0x0000d266

00001e2c <_assert_log>:
_assert_log():
/home/st/桌面/OP-TEE/optee_os/lib/libutee/assert.c:39
    1e2c:	e96d 7e02 	strd	r7, lr, [sp, #-8]!
    1e30:	b08a      	sub	sp, #40	; 0x28
    1e32:	af06      	add	r7, sp, #24
    1e34:	60f8      	str	r0, [r7, #12]
    1e36:	60b9      	str	r1, [r7, #8]
    1e38:	607a      	str	r2, [r7, #4]
    1e3a:	603b      	str	r3, [r7, #0]
/home/st/桌面/OP-TEE/optee_os/lib/libutee/assert.c:40
    1e3c:	683b      	ldr	r3, [r7, #0]
    1e3e:	9304      	str	r3, [sp, #16]
    1e40:	687b      	ldr	r3, [r7, #4]
    1e42:	9303      	str	r3, [sp, #12]
    1e44:	68bb      	ldr	r3, [r7, #8]
    1e46:	9302      	str	r3, [sp, #8]
    1e48:	68fb      	ldr	r3, [r7, #12]
    1e4a:	9301      	str	r3, [sp, #4]
    1e4c:	4b08      	ldr	r3, [pc, #32]	; (1e70 <_assert_log+0x44>)
    1e4e:	447b      	add	r3, pc
    1e50:	9300      	str	r3, [sp, #0]
    1e52:	f04f 0301 	mov.w	r3, #1
    1e56:	f04f 0201 	mov.w	r2, #1
    1e5a:	f04f 0100 	mov.w	r1, #0
    1e5e:	f04f 0000 	mov.w	r0, #0
    1e62:	f003 f9b9 	bl	51d8 <trace_printf>
/home/st/桌面/OP-TEE/optee_os/lib/libutee/assert.c:42
    1e66:	bf00      	nop
    1e68:	f107 0710 	add.w	r7, r7, #16
    1e6c:	46bd      	mov	sp, r7
    1e6e:	bd80      	pop	{r7, pc}
    1e70:	00009e5a 	.word	0x00009e5a

00001e74 <_assert_break>:
_assert_break():
/home/st/桌面/OP-TEE/optee_os/lib/libutee/assert.c:45
    1e74:	e96d 7e02 	strd	r7, lr, [sp, #-8]!
    1e78:	af00      	add	r7, sp, #0
/home/st/桌面/OP-TEE/optee_os/lib/libutee/assert.c:46
    1e7a:	f04f 0000 	mov.w	r0, #0
    1e7e:	f6cf 70ff 	movt	r0, #65535	; 0xffff
    1e82:	f7ff e8e4 	blx	104c <utee_panic>
/home/st/桌面/OP-TEE/optee_os/lib/libutee/assert.c:48 (discriminator 1)
    1e86:	e7fe      	b.n	1e86 <_assert_break+0x12>

00001e88 <TEE_BigInt_Panic>:
TEE_BigInt_Panic():
/home/st/桌面/OP-TEE/optee_os/lib/libutee/tee_api_arith.c:63
    1e88:	e96d 7e02 	strd	r7, lr, [sp, #-8]!
    1e8c:	b082      	sub	sp, #8
    1e8e:	af00      	add	r7, sp, #0
    1e90:	6078      	str	r0, [r7, #4]
/home/st/桌面/OP-TEE/optee_os/lib/libutee/tee_api_arith.c:64
    1e92:	6879      	ldr	r1, [r7, #4]
    1e94:	4b05      	ldr	r3, [pc, #20]	; (1eac <TEE_BigInt_Panic+0x24>)
    1e96:	447b      	add	r3, pc
    1e98:	4618      	mov	r0, r3
    1e9a:	f000 fd03 	bl	28a4 <printf>
/home/st/桌面/OP-TEE/optee_os/lib/libutee/tee_api_arith.c:65
    1e9e:	f246 1027 	movw	r0, #24871	; 0x6127
    1ea2:	f2c0 00b1 	movt	r0, #177	; 0xb1
    1ea6:	f006 f827 	bl	7ef8 <TEE_Panic>
/home/st/桌面/OP-TEE/optee_os/lib/libutee/tee_api_arith.c:66 (discriminator 1)
    1eaa:	e7fe      	b.n	1eaa <TEE_BigInt_Panic+0x22>
    1eac:	00009e3a 	.word	0x00009e3a

00001eb0 <_TEE_MathAPI_Init>:
_TEE_MathAPI_Init():
/home/st/桌面/OP-TEE/optee_os/lib/libutee/tee_api_arith.c:78
    1eb0:	e96d 3404 	strd	r3, r4, [sp, #-16]!
    1eb4:	e9cd 7e02 	strd	r7, lr, [sp, #8]
    1eb8:	af00      	add	r7, sp, #0
    1eba:	4c0b      	ldr	r4, [pc, #44]	; (1ee8 <_TEE_MathAPI_Init+0x38>)
    1ebc:	447c      	add	r4, pc
/home/st/桌面/OP-TEE/optee_os/lib/libutee/tee_api_arith.c:79
    1ebe:	4b0b      	ldr	r3, [pc, #44]	; (1eec <_TEE_MathAPI_Init+0x3c>)
    1ec0:	447b      	add	r3, pc
    1ec2:	681b      	ldr	r3, [r3, #0]
    1ec4:	f44f 6200 	mov.w	r2, #2048	; 0x800
    1ec8:	f44f 51d8 	mov.w	r1, #6912	; 0x1b00
    1ecc:	4618      	mov	r0, r3
    1ece:	f007 feee 	bl	9cae <mpa_init_scratch_mem>
/home/st/桌面/OP-TEE/optee_os/lib/libutee/tee_api_arith.c:81
    1ed2:	4b07      	ldr	r3, [pc, #28]	; (1ef0 <_TEE_MathAPI_Init+0x40>)
    1ed4:	58e3      	ldr	r3, [r4, r3]
    1ed6:	4618      	mov	r0, r3
    1ed8:	f004 f8e4 	bl	60a4 <mpa_set_random_generator>
/home/st/桌面/OP-TEE/optee_os/lib/libutee/tee_api_arith.c:82
    1edc:	bf00      	nop
    1ede:	46bd      	mov	sp, r7
    1ee0:	e9dd 3400 	ldrd	r3, r4, [sp]
    1ee4:	b002      	add	sp, #8
    1ee6:	bd80      	pop	{r7, pc}
    1ee8:	0000c774 	.word	0x0000c774
    1eec:	0000d1c4 	.word	0x0000d1c4
    1ef0:	00000014 	.word	0x00000014

00001ef4 <TEE_BigIntInit>:
TEE_BigIntInit():
/home/st/桌面/OP-TEE/optee_os/lib/libutee/tee_api_arith.c:88
    1ef4:	e96d 7e02 	strd	r7, lr, [sp, #-8]!
    1ef8:	b082      	sub	sp, #8
    1efa:	af00      	add	r7, sp, #0
    1efc:	6078      	str	r0, [r7, #4]
    1efe:	6039      	str	r1, [r7, #0]
/home/st/桌面/OP-TEE/optee_os/lib/libutee/tee_api_arith.c:89
    1f00:	6839      	ldr	r1, [r7, #0]
    1f02:	6878      	ldr	r0, [r7, #4]
    1f04:	f009 fb46 	bl	b594 <mpa_init_static>
/home/st/桌面/OP-TEE/optee_os/lib/libutee/tee_api_arith.c:90
    1f08:	bf00      	nop
    1f0a:	f107 0708 	add.w	r7, r7, #8
    1f0e:	46bd      	mov	sp, r7
    1f10:	bd80      	pop	{r7, pc}

00001f12 <TEE_BigIntInitFMM>:
TEE_BigIntInitFMM():
/home/st/桌面/OP-TEE/optee_os/lib/libutee/tee_api_arith.c:96
    1f12:	f84d 7d04 	str.w	r7, [sp, #-4]!
    1f16:	b085      	sub	sp, #20
    1f18:	af00      	add	r7, sp, #0
    1f1a:	6078      	str	r0, [r7, #4]
    1f1c:	6039      	str	r1, [r7, #0]
/home/st/桌面/OP-TEE/optee_os/lib/libutee/tee_api_arith.c:97
    1f1e:	687b      	ldr	r3, [r7, #4]
    1f20:	60fb      	str	r3, [r7, #12]
/home/st/桌面/OP-TEE/optee_os/lib/libutee/tee_api_arith.c:99
    1f22:	683b      	ldr	r3, [r7, #0]
    1f24:	f103 4380 	add.w	r3, r3, #1073741824	; 0x40000000
    1f28:	f1a3 0302 	sub.w	r3, r3, #2
    1f2c:	ea4f 0383 	mov.w	r3, r3, lsl #2
    1f30:	f103 0303 	add.w	r3, r3, #3
    1f34:	ea4f 0293 	mov.w	r2, r3, lsr #2
    1f38:	68fb      	ldr	r3, [r7, #12]
    1f3a:	601a      	str	r2, [r3, #0]
/home/st/桌面/OP-TEE/optee_os/lib/libutee/tee_api_arith.c:100
    1f3c:	68fb      	ldr	r3, [r7, #12]
    1f3e:	f04f 0200 	mov.w	r2, #0
    1f42:	605a      	str	r2, [r3, #4]
/home/st/桌面/OP-TEE/optee_os/lib/libutee/tee_api_arith.c:101
    1f44:	bf00      	nop
    1f46:	f107 0714 	add.w	r7, r7, #20
    1f4a:	46bd      	mov	sp, r7
    1f4c:	f85d 7b04 	ldr.w	r7, [sp], #4
    1f50:	4770      	bx	lr

00001f52 <TEE_BigIntInitFMMContext>:
TEE_BigIntInitFMMContext():
/home/st/桌面/OP-TEE/optee_os/lib/libutee/tee_api_arith.c:108
    1f52:	e96d 7e02 	strd	r7, lr, [sp, #-8]!
    1f56:	b088      	sub	sp, #32
    1f58:	af02      	add	r7, sp, #8
    1f5a:	60f8      	str	r0, [r7, #12]
    1f5c:	60b9      	str	r1, [r7, #8]
    1f5e:	607a      	str	r2, [r7, #4]
/home/st/桌面/OP-TEE/optee_os/lib/libutee/tee_api_arith.c:109
    1f60:	68fb      	ldr	r3, [r7, #12]
    1f62:	617b      	str	r3, [r7, #20]
/home/st/桌面/OP-TEE/optee_os/lib/libutee/tee_api_arith.c:110
    1f64:	687b      	ldr	r3, [r7, #4]
    1f66:	613b      	str	r3, [r7, #16]
/home/st/桌面/OP-TEE/optee_os/lib/libutee/tee_api_arith.c:112
    1f68:	68b9      	ldr	r1, [r7, #8]
    1f6a:	6978      	ldr	r0, [r7, #20]
    1f6c:	f009 fb38 	bl	b5e0 <mpa_init_static_fmm_context>
/home/st/桌面/OP-TEE/optee_os/lib/libutee/tee_api_arith.c:113
    1f70:	697b      	ldr	r3, [r7, #20]
    1f72:	6819      	ldr	r1, [r3, #0]
    1f74:	697b      	ldr	r3, [r7, #20]
    1f76:	685a      	ldr	r2, [r3, #4]
    1f78:	697b      	ldr	r3, [r7, #20]
    1f7a:	f103 0008 	add.w	r0, r3, #8
    1f7e:	4b06      	ldr	r3, [pc, #24]	; (1f98 <TEE_BigIntInitFMMContext+0x46>)
    1f80:	447b      	add	r3, pc
    1f82:	681b      	ldr	r3, [r3, #0]
    1f84:	9300      	str	r3, [sp, #0]
    1f86:	4603      	mov	r3, r0
    1f88:	6938      	ldr	r0, [r7, #16]
    1f8a:	f003 fdac 	bl	5ae6 <mpa_compute_fmm_context>
/home/st/桌面/OP-TEE/optee_os/lib/libutee/tee_api_arith.c:116
    1f8e:	bf00      	nop
    1f90:	f107 0718 	add.w	r7, r7, #24
    1f94:	46bd      	mov	sp, r7
    1f96:	bd80      	pop	{r7, pc}
    1f98:	0000d104 	.word	0x0000d104

00001f9c <TEE_BigIntFMMSizeInU32>:
TEE_BigIntFMMSizeInU32():
/home/st/桌面/OP-TEE/optee_os/lib/libutee/tee_api_arith.c:126
    1f9c:	f84d 7d04 	str.w	r7, [sp, #-4]!
    1fa0:	b083      	sub	sp, #12
    1fa2:	af00      	add	r7, sp, #0
    1fa4:	6078      	str	r0, [r7, #4]
/home/st/桌面/OP-TEE/optee_os/lib/libutee/tee_api_arith.c:127
    1fa6:	687b      	ldr	r3, [r7, #4]
    1fa8:	f103 031f 	add.w	r3, r3, #31
    1fac:	ea4f 1353 	mov.w	r3, r3, lsr #5
    1fb0:	f103 0303 	add.w	r3, r3, #3
/home/st/桌面/OP-TEE/optee_os/lib/libutee/tee_api_arith.c:128
    1fb4:	4618      	mov	r0, r3
    1fb6:	f107 070c 	add.w	r7, r7, #12
    1fba:	46bd      	mov	sp, r7
    1fbc:	f85d 7b04 	ldr.w	r7, [sp], #4
    1fc0:	4770      	bx	lr

00001fc2 <TEE_BigIntFMMContextSizeInU32>:
TEE_BigIntFMMContextSizeInU32():
/home/st/桌面/OP-TEE/optee_os/lib/libutee/tee_api_arith.c:134
    1fc2:	f84d 7d04 	str.w	r7, [sp, #-4]!
    1fc6:	b083      	sub	sp, #12
    1fc8:	af00      	add	r7, sp, #0
    1fca:	6078      	str	r0, [r7, #4]
/home/st/桌面/OP-TEE/optee_os/lib/libutee/tee_api_arith.c:135
    1fcc:	687b      	ldr	r3, [r7, #4]
    1fce:	f103 031f 	add.w	r3, r3, #31
    1fd2:	ea4f 1353 	mov.w	r3, r3, lsr #5
    1fd6:	f103 0304 	add.w	r3, r3, #4
    1fda:	ea4f 0343 	mov.w	r3, r3, lsl #1
    1fde:	f103 0303 	add.w	r3, r3, #3
/home/st/桌面/OP-TEE/optee_os/lib/libutee/tee_api_arith.c:136
    1fe2:	4618      	mov	r0, r3
    1fe4:	f107 070c 	add.w	r7, r7, #12
    1fe8:	46bd      	mov	sp, r7
    1fea:	f85d 7b04 	ldr.w	r7, [sp], #4
    1fee:	4770      	bx	lr

00001ff0 <TEE_BigIntConvertFromOctetString>:
TEE_BigIntConvertFromOctetString():
/home/st/桌面/OP-TEE/optee_os/lib/libutee/tee_api_arith.c:149
    1ff0:	e96d 7e02 	strd	r7, lr, [sp, #-8]!
    1ff4:	b088      	sub	sp, #32
    1ff6:	af00      	add	r7, sp, #0
    1ff8:	60f8      	str	r0, [r7, #12]
    1ffa:	60b9      	str	r1, [r7, #8]
    1ffc:	607a      	str	r2, [r7, #4]
    1ffe:	603b      	str	r3, [r7, #0]
/home/st/桌面/OP-TEE/optee_os/lib/libutee/tee_api_arith.c:151
    2000:	68fb      	ldr	r3, [r7, #12]
    2002:	61bb      	str	r3, [r7, #24]
/home/st/桌面/OP-TEE/optee_os/lib/libutee/tee_api_arith.c:152
    2004:	683b      	ldr	r3, [r7, #0]
    2006:	ea4f 73d3 	mov.w	r3, r3, lsr #31
    200a:	75fb      	strb	r3, [r7, #23]
/home/st/桌面/OP-TEE/optee_os/lib/libutee/tee_api_arith.c:154
    200c:	7dfb      	ldrb	r3, [r7, #23]
    200e:	687a      	ldr	r2, [r7, #4]
    2010:	68b9      	ldr	r1, [r7, #8]
    2012:	69b8      	ldr	r0, [r7, #24]
    2014:	f004 fe16 	bl	6c44 <mpa_set_oct_str>
    2018:	4603      	mov	r3, r0
    201a:	2b00      	cmp	r3, #0
    201c:	d005      	beq.n	202a <TEE_BigIntConvertFromOctetString+0x3a>
/home/st/桌面/OP-TEE/optee_os/lib/libutee/tee_api_arith.c:155
    201e:	f243 030f 	movw	r3, #12303	; 0x300f
    2022:	f6cf 73ff 	movt	r3, #65535	; 0xffff
    2026:	61fb      	str	r3, [r7, #28]
    2028:	e002      	b.n	2030 <TEE_BigIntConvertFromOctetString+0x40>
/home/st/桌面/OP-TEE/optee_os/lib/libutee/tee_api_arith.c:157
    202a:	f04f 0300 	mov.w	r3, #0
    202e:	61fb      	str	r3, [r7, #28]
/home/st/桌面/OP-TEE/optee_os/lib/libutee/tee_api_arith.c:159
    2030:	69fb      	ldr	r3, [r7, #28]
    2032:	2b00      	cmp	r3, #0
    2034:	d009      	beq.n	204a <TEE_BigIntConvertFromOctetString+0x5a>
/home/st/桌面/OP-TEE/optee_os/lib/libutee/tee_api_arith.c:159 (discriminator 1)
    2036:	69fa      	ldr	r2, [r7, #28]
    2038:	f243 030f 	movw	r3, #12303	; 0x300f
    203c:	f6cf 73ff 	movt	r3, #65535	; 0xffff
    2040:	429a      	cmp	r2, r3
    2042:	d002      	beq.n	204a <TEE_BigIntConvertFromOctetString+0x5a>
/home/st/桌面/OP-TEE/optee_os/lib/libutee/tee_api_arith.c:161
    2044:	69f8      	ldr	r0, [r7, #28]
    2046:	f005 ff57 	bl	7ef8 <TEE_Panic>
/home/st/桌面/OP-TEE/optee_os/lib/libutee/tee_api_arith.c:163
    204a:	69fb      	ldr	r3, [r7, #28]
/home/st/桌面/OP-TEE/optee_os/lib/libutee/tee_api_arith.c:164
    204c:	4618      	mov	r0, r3
    204e:	f107 0720 	add.w	r7, r7, #32
    2052:	46bd      	mov	sp, r7
    2054:	bd80      	pop	{r7, pc}

00002056 <TEE_BigIntConvertToOctetString>:
TEE_BigIntConvertToOctetString():
/home/st/桌面/OP-TEE/optee_os/lib/libutee/tee_api_arith.c:172
    2056:	e96d 7e02 	strd	r7, lr, [sp, #-8]!
    205a:	b088      	sub	sp, #32
    205c:	af00      	add	r7, sp, #0
    205e:	60f8      	str	r0, [r7, #12]
    2060:	60b9      	str	r1, [r7, #8]
    2062:	607a      	str	r2, [r7, #4]
/home/st/桌面/OP-TEE/optee_os/lib/libutee/tee_api_arith.c:173
    2064:	687b      	ldr	r3, [r7, #4]
    2066:	61bb      	str	r3, [r7, #24]
/home/st/桌面/OP-TEE/optee_os/lib/libutee/tee_api_arith.c:174
    2068:	68bb      	ldr	r3, [r7, #8]
    206a:	681b      	ldr	r3, [r3, #0]
    206c:	617b      	str	r3, [r7, #20]
/home/st/桌面/OP-TEE/optee_os/lib/libutee/tee_api_arith.c:177
    206e:	f107 0314 	add.w	r3, r7, #20
    2072:	69ba      	ldr	r2, [r7, #24]
    2074:	4619      	mov	r1, r3
    2076:	68f8      	ldr	r0, [r7, #12]
    2078:	f004 fe7c 	bl	6d74 <mpa_get_oct_str>
    207c:	4603      	mov	r3, r0
    207e:	2b00      	cmp	r3, #0
    2080:	d005      	beq.n	208e <TEE_BigIntConvertToOctetString+0x38>
/home/st/桌面/OP-TEE/optee_os/lib/libutee/tee_api_arith.c:178
    2082:	f04f 0310 	mov.w	r3, #16
    2086:	f6cf 73ff 	movt	r3, #65535	; 0xffff
    208a:	61fb      	str	r3, [r7, #28]
    208c:	e002      	b.n	2094 <TEE_BigIntConvertToOctetString+0x3e>
/home/st/桌面/OP-TEE/optee_os/lib/libutee/tee_api_arith.c:180
    208e:	f04f 0300 	mov.w	r3, #0
    2092:	61fb      	str	r3, [r7, #28]
/home/st/桌面/OP-TEE/optee_os/lib/libutee/tee_api_arith.c:182
    2094:	697a      	ldr	r2, [r7, #20]
    2096:	68bb      	ldr	r3, [r7, #8]
    2098:	601a      	str	r2, [r3, #0]
/home/st/桌面/OP-TEE/optee_os/lib/libutee/tee_api_arith.c:184
    209a:	69fb      	ldr	r3, [r7, #28]
    209c:	2b00      	cmp	r3, #0
    209e:	d009      	beq.n	20b4 <TEE_BigIntConvertToOctetString+0x5e>
/home/st/桌面/OP-TEE/optee_os/lib/libutee/tee_api_arith.c:184 (discriminator 1)
    20a0:	69fa      	ldr	r2, [r7, #28]
    20a2:	f04f 0310 	mov.w	r3, #16
    20a6:	f6cf 73ff 	movt	r3, #65535	; 0xffff
    20aa:	429a      	cmp	r2, r3
    20ac:	d002      	beq.n	20b4 <TEE_BigIntConvertToOctetString+0x5e>
/home/st/桌面/OP-TEE/optee_os/lib/libutee/tee_api_arith.c:186
    20ae:	69f8      	ldr	r0, [r7, #28]
    20b0:	f005 ff22 	bl	7ef8 <TEE_Panic>
/home/st/桌面/OP-TEE/optee_os/lib/libutee/tee_api_arith.c:188
    20b4:	69fb      	ldr	r3, [r7, #28]
/home/st/桌面/OP-TEE/optee_os/lib/libutee/tee_api_arith.c:189
    20b6:	4618      	mov	r0, r3
    20b8:	f107 0720 	add.w	r7, r7, #32
    20bc:	46bd      	mov	sp, r7
    20be:	bd80      	pop	{r7, pc}

000020c0 <TEE_BigIntConvertFromS32>:
TEE_BigIntConvertFromS32():
/home/st/桌面/OP-TEE/optee_os/lib/libutee/tee_api_arith.c:195
    20c0:	e96d 7e02 	strd	r7, lr, [sp, #-8]!
    20c4:	b084      	sub	sp, #16
    20c6:	af00      	add	r7, sp, #0
    20c8:	6078      	str	r0, [r7, #4]
    20ca:	6039      	str	r1, [r7, #0]
/home/st/桌面/OP-TEE/optee_os/lib/libutee/tee_api_arith.c:196
    20cc:	687b      	ldr	r3, [r7, #4]
    20ce:	60fb      	str	r3, [r7, #12]
/home/st/桌面/OP-TEE/optee_os/lib/libutee/tee_api_arith.c:199
    20d0:	6839      	ldr	r1, [r7, #0]
    20d2:	68f8      	ldr	r0, [r7, #12]
    20d4:	f006 fbe8 	bl	88a8 <mpa_set_S32>
/home/st/桌面/OP-TEE/optee_os/lib/libutee/tee_api_arith.c:203
    20d8:	bf00      	nop
    20da:	f107 0710 	add.w	r7, r7, #16
    20de:	46bd      	mov	sp, r7
    20e0:	bd80      	pop	{r7, pc}

000020e2 <TEE_BigIntConvertToS32>:
TEE_BigIntConvertToS32():
/home/st/桌面/OP-TEE/optee_os/lib/libutee/tee_api_arith.c:209
    20e2:	e96d 7e02 	strd	r7, lr, [sp, #-8]!
    20e6:	b084      	sub	sp, #16
    20e8:	af00      	add	r7, sp, #0
    20ea:	6078      	str	r0, [r7, #4]
    20ec:	6039      	str	r1, [r7, #0]
/home/st/桌面/OP-TEE/optee_os/lib/libutee/tee_api_arith.c:211
    20ee:	683b      	ldr	r3, [r7, #0]
    20f0:	60bb      	str	r3, [r7, #8]
/home/st/桌面/OP-TEE/optee_os/lib/libutee/tee_api_arith.c:213
    20f2:	68b9      	ldr	r1, [r7, #8]
    20f4:	6878      	ldr	r0, [r7, #4]
    20f6:	f006 fbfd 	bl	88f4 <mpa_get_S32>
    20fa:	4603      	mov	r3, r0
    20fc:	2b00      	cmp	r3, #0
    20fe:	d103      	bne.n	2108 <TEE_BigIntConvertToS32+0x26>
/home/st/桌面/OP-TEE/optee_os/lib/libutee/tee_api_arith.c:214
    2100:	f04f 0300 	mov.w	r3, #0
    2104:	60fb      	str	r3, [r7, #12]
    2106:	e004      	b.n	2112 <TEE_BigIntConvertToS32+0x30>
/home/st/桌面/OP-TEE/optee_os/lib/libutee/tee_api_arith.c:216
    2108:	f243 030f 	movw	r3, #12303	; 0x300f
    210c:	f6cf 73ff 	movt	r3, #65535	; 0xffff
    2110:	60fb      	str	r3, [r7, #12]
/home/st/桌面/OP-TEE/optee_os/lib/libutee/tee_api_arith.c:218
    2112:	68fb      	ldr	r3, [r7, #12]
    2114:	2b00      	cmp	r3, #0
    2116:	d009      	beq.n	212c <TEE_BigIntConvertToS32+0x4a>
/home/st/桌面/OP-TEE/optee_os/lib/libutee/tee_api_arith.c:218 (discriminator 1)
    2118:	68fa      	ldr	r2, [r7, #12]
    211a:	f243 030f 	movw	r3, #12303	; 0x300f
    211e:	f6cf 73ff 	movt	r3, #65535	; 0xffff
    2122:	429a      	cmp	r2, r3
    2124:	d002      	beq.n	212c <TEE_BigIntConvertToS32+0x4a>
/home/st/桌面/OP-TEE/optee_os/lib/libutee/tee_api_arith.c:220
    2126:	68f8      	ldr	r0, [r7, #12]
    2128:	f005 fee6 	bl	7ef8 <TEE_Panic>
/home/st/桌面/OP-TEE/optee_os/lib/libutee/tee_api_arith.c:222
    212c:	68fb      	ldr	r3, [r7, #12]
/home/st/桌面/OP-TEE/optee_os/lib/libutee/tee_api_arith.c:223
    212e:	4618      	mov	r0, r3
    2130:	f107 0710 	add.w	r7, r7, #16
    2134:	46bd      	mov	sp, r7
    2136:	bd80      	pop	{r7, pc}

00002138 <TEE_BigIntCmp>:
TEE_BigIntCmp():
/home/st/桌面/OP-TEE/optee_os/lib/libutee/tee_api_arith.c:233
    2138:	e96d 7e02 	strd	r7, lr, [sp, #-8]!
    213c:	b084      	sub	sp, #16
    213e:	af00      	add	r7, sp, #0
    2140:	6078      	str	r0, [r7, #4]
    2142:	6039      	str	r1, [r7, #0]
/home/st/桌面/OP-TEE/optee_os/lib/libutee/tee_api_arith.c:234
    2144:	687b      	ldr	r3, [r7, #4]
    2146:	60fb      	str	r3, [r7, #12]
/home/st/桌面/OP-TEE/optee_os/lib/libutee/tee_api_arith.c:235
    2148:	683b      	ldr	r3, [r7, #0]
    214a:	60bb      	str	r3, [r7, #8]
/home/st/桌面/OP-TEE/optee_os/lib/libutee/tee_api_arith.c:237
    214c:	68b9      	ldr	r1, [r7, #8]
    214e:	68f8      	ldr	r0, [r7, #12]
    2150:	f009 f987 	bl	b462 <mpa_cmp>
    2154:	4603      	mov	r3, r0
/home/st/桌面/OP-TEE/optee_os/lib/libutee/tee_api_arith.c:238
    2156:	4618      	mov	r0, r3
    2158:	f107 0710 	add.w	r7, r7, #16
    215c:	46bd      	mov	sp, r7
    215e:	bd80      	pop	{r7, pc}

00002160 <TEE_BigIntCmpS32>:
TEE_BigIntCmpS32():
/home/st/桌面/OP-TEE/optee_os/lib/libutee/tee_api_arith.c:244
    2160:	e96d 7e02 	strd	r7, lr, [sp, #-8]!
    2164:	b084      	sub	sp, #16
    2166:	af00      	add	r7, sp, #0
    2168:	6078      	str	r0, [r7, #4]
    216a:	6039      	str	r1, [r7, #0]
/home/st/桌面/OP-TEE/optee_os/lib/libutee/tee_api_arith.c:245
    216c:	687b      	ldr	r3, [r7, #4]
    216e:	60fb      	str	r3, [r7, #12]
/home/st/桌面/OP-TEE/optee_os/lib/libutee/tee_api_arith.c:247
    2170:	6839      	ldr	r1, [r7, #0]
    2172:	68f8      	ldr	r0, [r7, #12]
    2174:	f009 f9ba 	bl	b4ec <mpa_cmp_short>
    2178:	4603      	mov	r3, r0
/home/st/桌面/OP-TEE/optee_os/lib/libutee/tee_api_arith.c:248
    217a:	4618      	mov	r0, r3
    217c:	f107 0710 	add.w	r7, r7, #16
    2180:	46bd      	mov	sp, r7
    2182:	bd80      	pop	{r7, pc}

00002184 <TEE_BigIntShiftRight>:
TEE_BigIntShiftRight():
/home/st/桌面/OP-TEE/optee_os/lib/libutee/tee_api_arith.c:255
    2184:	e96d 7e02 	strd	r7, lr, [sp, #-8]!
    2188:	b086      	sub	sp, #24
    218a:	af00      	add	r7, sp, #0
    218c:	60f8      	str	r0, [r7, #12]
    218e:	60b9      	str	r1, [r7, #8]
    2190:	607a      	str	r2, [r7, #4]
/home/st/桌面/OP-TEE/optee_os/lib/libutee/tee_api_arith.c:256
    2192:	68fb      	ldr	r3, [r7, #12]
    2194:	617b      	str	r3, [r7, #20]
/home/st/桌面/OP-TEE/optee_os/lib/libutee/tee_api_arith.c:257
    2196:	68bb      	ldr	r3, [r7, #8]
    2198:	613b      	str	r3, [r7, #16]
/home/st/桌面/OP-TEE/optee_os/lib/libutee/tee_api_arith.c:259
    219a:	687a      	ldr	r2, [r7, #4]
    219c:	6939      	ldr	r1, [r7, #16]
    219e:	6978      	ldr	r0, [r7, #20]
    21a0:	f008 fa6f 	bl	a682 <mpa_shift_right>
/home/st/桌面/OP-TEE/optee_os/lib/libutee/tee_api_arith.c:260
    21a4:	bf00      	nop
    21a6:	f107 0718 	add.w	r7, r7, #24
    21aa:	46bd      	mov	sp, r7
    21ac:	bd80      	pop	{r7, pc}

000021ae <TEE_BigIntGetBit>:
TEE_BigIntGetBit():
/home/st/桌面/OP-TEE/optee_os/lib/libutee/tee_api_arith.c:266
    21ae:	e96d 7e02 	strd	r7, lr, [sp, #-8]!
    21b2:	b084      	sub	sp, #16
    21b4:	af00      	add	r7, sp, #0
    21b6:	6078      	str	r0, [r7, #4]
    21b8:	6039      	str	r1, [r7, #0]
/home/st/桌面/OP-TEE/optee_os/lib/libutee/tee_api_arith.c:267
    21ba:	687b      	ldr	r3, [r7, #4]
    21bc:	60fb      	str	r3, [r7, #12]
/home/st/桌面/OP-TEE/optee_os/lib/libutee/tee_api_arith.c:269
    21be:	6839      	ldr	r1, [r7, #0]
    21c0:	68f8      	ldr	r0, [r7, #12]
    21c2:	f003 fa62 	bl	568a <mpa_get_bit>
    21c6:	4603      	mov	r3, r0
    21c8:	2b00      	cmp	r3, #0
    21ca:	bf14      	ite	ne
    21cc:	2301      	movne	r3, #1
    21ce:	2300      	moveq	r3, #0
    21d0:	b2db      	uxtb	r3, r3
/home/st/桌面/OP-TEE/optee_os/lib/libutee/tee_api_arith.c:270
    21d2:	4618      	mov	r0, r3
    21d4:	f107 0710 	add.w	r7, r7, #16
    21d8:	46bd      	mov	sp, r7
    21da:	bd80      	pop	{r7, pc}

000021dc <TEE_BigIntGetBitCount>:
TEE_BigIntGetBitCount():
/home/st/桌面/OP-TEE/optee_os/lib/libutee/tee_api_arith.c:276
    21dc:	e96d 7e02 	strd	r7, lr, [sp, #-8]!
    21e0:	b084      	sub	sp, #16
    21e2:	af00      	add	r7, sp, #0
    21e4:	6078      	str	r0, [r7, #4]
/home/st/桌面/OP-TEE/optee_os/lib/libutee/tee_api_arith.c:277
    21e6:	687b      	ldr	r3, [r7, #4]
    21e8:	60fb      	str	r3, [r7, #12]
/home/st/桌面/OP-TEE/optee_os/lib/libutee/tee_api_arith.c:279
    21ea:	68f8      	ldr	r0, [r7, #12]
    21ec:	f003 fa0d 	bl	560a <mpa_highest_bit_index>
    21f0:	4603      	mov	r3, r0
    21f2:	f103 0301 	add.w	r3, r3, #1
/home/st/桌面/OP-TEE/optee_os/lib/libutee/tee_api_arith.c:280
    21f6:	4618      	mov	r0, r3
    21f8:	f107 0710 	add.w	r7, r7, #16
    21fc:	46bd      	mov	sp, r7
    21fe:	bd80      	pop	{r7, pc}

00002200 <TEE_BigIntAdd>:
TEE_BigIntAdd():
/home/st/桌面/OP-TEE/optee_os/lib/libutee/tee_api_arith.c:291
    2200:	e96d 7e02 	strd	r7, lr, [sp, #-8]!
    2204:	b088      	sub	sp, #32
    2206:	af00      	add	r7, sp, #0
    2208:	60f8      	str	r0, [r7, #12]
    220a:	60b9      	str	r1, [r7, #8]
    220c:	607a      	str	r2, [r7, #4]
/home/st/桌面/OP-TEE/optee_os/lib/libutee/tee_api_arith.c:292
    220e:	68fb      	ldr	r3, [r7, #12]
    2210:	61fb      	str	r3, [r7, #28]
/home/st/桌面/OP-TEE/optee_os/lib/libutee/tee_api_arith.c:293
    2212:	68bb      	ldr	r3, [r7, #8]
    2214:	61bb      	str	r3, [r7, #24]
/home/st/桌面/OP-TEE/optee_os/lib/libutee/tee_api_arith.c:294
    2216:	687b      	ldr	r3, [r7, #4]
    2218:	617b      	str	r3, [r7, #20]
/home/st/桌面/OP-TEE/optee_os/lib/libutee/tee_api_arith.c:296
    221a:	4b06      	ldr	r3, [pc, #24]	; (2234 <TEE_BigIntAdd+0x34>)
    221c:	447b      	add	r3, pc
    221e:	681b      	ldr	r3, [r3, #0]
    2220:	697a      	ldr	r2, [r7, #20]
    2222:	69b9      	ldr	r1, [r7, #24]
    2224:	69f8      	ldr	r0, [r7, #28]
    2226:	f008 fd26 	bl	ac76 <mpa_add>
/home/st/桌面/OP-TEE/optee_os/lib/libutee/tee_api_arith.c:297
    222a:	bf00      	nop
    222c:	f107 0720 	add.w	r7, r7, #32
    2230:	46bd      	mov	sp, r7
    2232:	bd80      	pop	{r7, pc}
    2234:	0000ce68 	.word	0x0000ce68

00002238 <TEE_BigIntSub>:
TEE_BigIntSub():
/home/st/桌面/OP-TEE/optee_os/lib/libutee/tee_api_arith.c:304
    2238:	e96d 7e02 	strd	r7, lr, [sp, #-8]!
    223c:	b088      	sub	sp, #32
    223e:	af00      	add	r7, sp, #0
    2240:	60f8      	str	r0, [r7, #12]
    2242:	60b9      	str	r1, [r7, #8]
    2244:	607a      	str	r2, [r7, #4]
/home/st/桌面/OP-TEE/optee_os/lib/libutee/tee_api_arith.c:305
    2246:	68fb      	ldr	r3, [r7, #12]
    2248:	61fb      	str	r3, [r7, #28]
/home/st/桌面/OP-TEE/optee_os/lib/libutee/tee_api_arith.c:306
    224a:	68bb      	ldr	r3, [r7, #8]
    224c:	61bb      	str	r3, [r7, #24]
/home/st/桌面/OP-TEE/optee_os/lib/libutee/tee_api_arith.c:307
    224e:	687b      	ldr	r3, [r7, #4]
    2250:	617b      	str	r3, [r7, #20]
/home/st/桌面/OP-TEE/optee_os/lib/libutee/tee_api_arith.c:309
    2252:	4b06      	ldr	r3, [pc, #24]	; (226c <TEE_BigIntSub+0x34>)
    2254:	447b      	add	r3, pc
    2256:	681b      	ldr	r3, [r3, #0]
    2258:	697a      	ldr	r2, [r7, #20]
    225a:	69b9      	ldr	r1, [r7, #24]
    225c:	69f8      	ldr	r0, [r7, #28]
    225e:	f008 fdf7 	bl	ae50 <mpa_sub>
/home/st/桌面/OP-TEE/optee_os/lib/libutee/tee_api_arith.c:310
    2262:	bf00      	nop
    2264:	f107 0720 	add.w	r7, r7, #32
    2268:	46bd      	mov	sp, r7
    226a:	bd80      	pop	{r7, pc}
    226c:	0000ce30 	.word	0x0000ce30

00002270 <TEE_BigIntNeg>:
TEE_BigIntNeg():
/home/st/桌面/OP-TEE/optee_os/lib/libutee/tee_api_arith.c:316
    2270:	e96d 7e02 	strd	r7, lr, [sp, #-8]!
    2274:	b084      	sub	sp, #16
    2276:	af00      	add	r7, sp, #0
    2278:	6078      	str	r0, [r7, #4]
    227a:	6039      	str	r1, [r7, #0]
/home/st/桌面/OP-TEE/optee_os/lib/libutee/tee_api_arith.c:317
    227c:	687b      	ldr	r3, [r7, #4]
    227e:	60fb      	str	r3, [r7, #12]
/home/st/桌面/OP-TEE/optee_os/lib/libutee/tee_api_arith.c:318
    2280:	683b      	ldr	r3, [r7, #0]
    2282:	60bb      	str	r3, [r7, #8]
/home/st/桌面/OP-TEE/optee_os/lib/libutee/tee_api_arith.c:320
    2284:	68b9      	ldr	r1, [r7, #8]
    2286:	68f8      	ldr	r0, [r7, #12]
    2288:	f008 fee3 	bl	b052 <mpa_neg>
/home/st/桌面/OP-TEE/optee_os/lib/libutee/tee_api_arith.c:321
    228c:	bf00      	nop
    228e:	f107 0710 	add.w	r7, r7, #16
    2292:	46bd      	mov	sp, r7
    2294:	bd80      	pop	{r7, pc}

00002296 <TEE_BigIntMul>:
TEE_BigIntMul():
/home/st/桌面/OP-TEE/optee_os/lib/libutee/tee_api_arith.c:328
    2296:	e96d 7e02 	strd	r7, lr, [sp, #-8]!
    229a:	b088      	sub	sp, #32
    229c:	af00      	add	r7, sp, #0
    229e:	60f8      	str	r0, [r7, #12]
    22a0:	60b9      	str	r1, [r7, #8]
    22a2:	607a      	str	r2, [r7, #4]
/home/st/桌面/OP-TEE/optee_os/lib/libutee/tee_api_arith.c:329
    22a4:	68fb      	ldr	r3, [r7, #12]
    22a6:	61fb      	str	r3, [r7, #28]
/home/st/桌面/OP-TEE/optee_os/lib/libutee/tee_api_arith.c:330
    22a8:	68bb      	ldr	r3, [r7, #8]
    22aa:	61bb      	str	r3, [r7, #24]
/home/st/桌面/OP-TEE/optee_os/lib/libutee/tee_api_arith.c:331
    22ac:	687b      	ldr	r3, [r7, #4]
    22ae:	617b      	str	r3, [r7, #20]
/home/st/桌面/OP-TEE/optee_os/lib/libutee/tee_api_arith.c:333
    22b0:	4b06      	ldr	r3, [pc, #24]	; (22cc <TEE_BigIntMul+0x36>)
    22b2:	447b      	add	r3, pc
    22b4:	681b      	ldr	r3, [r3, #0]
    22b6:	697a      	ldr	r2, [r7, #20]
    22b8:	69b9      	ldr	r1, [r7, #24]
    22ba:	69f8      	ldr	r0, [r7, #28]
    22bc:	f007 ff63 	bl	a186 <mpa_mul>
/home/st/桌面/OP-TEE/optee_os/lib/libutee/tee_api_arith.c:334
    22c0:	bf00      	nop
    22c2:	f107 0720 	add.w	r7, r7, #32
    22c6:	46bd      	mov	sp, r7
    22c8:	bd80      	pop	{r7, pc}
    22ca:	bf00      	nop
    22cc:	0000cdd2 	.word	0x0000cdd2

000022d0 <TEE_BigIntSquare>:
TEE_BigIntSquare():
/home/st/桌面/OP-TEE/optee_os/lib/libutee/tee_api_arith.c:340
    22d0:	e96d 7e02 	strd	r7, lr, [sp, #-8]!
    22d4:	b084      	sub	sp, #16
    22d6:	af00      	add	r7, sp, #0
    22d8:	6078      	str	r0, [r7, #4]
    22da:	6039      	str	r1, [r7, #0]
/home/st/桌面/OP-TEE/optee_os/lib/libutee/tee_api_arith.c:341
    22dc:	687b      	ldr	r3, [r7, #4]
    22de:	60fb      	str	r3, [r7, #12]
/home/st/桌面/OP-TEE/optee_os/lib/libutee/tee_api_arith.c:342
    22e0:	683b      	ldr	r3, [r7, #0]
    22e2:	60bb      	str	r3, [r7, #8]
/home/st/桌面/OP-TEE/optee_os/lib/libutee/tee_api_arith.c:344
    22e4:	4b06      	ldr	r3, [pc, #24]	; (2300 <TEE_BigIntSquare+0x30>)
    22e6:	447b      	add	r3, pc
    22e8:	681b      	ldr	r3, [r3, #0]
    22ea:	68ba      	ldr	r2, [r7, #8]
    22ec:	68b9      	ldr	r1, [r7, #8]
    22ee:	68f8      	ldr	r0, [r7, #12]
    22f0:	f007 ff49 	bl	a186 <mpa_mul>
/home/st/桌面/OP-TEE/optee_os/lib/libutee/tee_api_arith.c:345
    22f4:	bf00      	nop
    22f6:	f107 0710 	add.w	r7, r7, #16
    22fa:	46bd      	mov	sp, r7
    22fc:	bd80      	pop	{r7, pc}
    22fe:	bf00      	nop
    2300:	0000cd9e 	.word	0x0000cd9e

00002304 <TEE_BigIntDiv>:
TEE_BigIntDiv():
/home/st/桌面/OP-TEE/optee_os/lib/libutee/tee_api_arith.c:352
    2304:	e96d 7e02 	strd	r7, lr, [sp, #-8]!
    2308:	b08a      	sub	sp, #40	; 0x28
    230a:	af02      	add	r7, sp, #8
    230c:	60f8      	str	r0, [r7, #12]
    230e:	60b9      	str	r1, [r7, #8]
    2310:	607a      	str	r2, [r7, #4]
    2312:	603b      	str	r3, [r7, #0]
/home/st/桌面/OP-TEE/optee_os/lib/libutee/tee_api_arith.c:353
    2314:	68fb      	ldr	r3, [r7, #12]
    2316:	61fb      	str	r3, [r7, #28]
/home/st/桌面/OP-TEE/optee_os/lib/libutee/tee_api_arith.c:354
    2318:	68bb      	ldr	r3, [r7, #8]
    231a:	61bb      	str	r3, [r7, #24]
/home/st/桌面/OP-TEE/optee_os/lib/libutee/tee_api_arith.c:355
    231c:	687b      	ldr	r3, [r7, #4]
    231e:	617b      	str	r3, [r7, #20]
/home/st/桌面/OP-TEE/optee_os/lib/libutee/tee_api_arith.c:356
    2320:	683b      	ldr	r3, [r7, #0]
    2322:	613b      	str	r3, [r7, #16]
/home/st/桌面/OP-TEE/optee_os/lib/libutee/tee_api_arith.c:358
    2324:	f04f 0100 	mov.w	r1, #0
    2328:	6838      	ldr	r0, [r7, #0]
    232a:	f7ff ff19 	bl	2160 <TEE_BigIntCmpS32>
    232e:	4603      	mov	r3, r0
    2330:	2b00      	cmp	r3, #0
    2332:	d104      	bne.n	233e <TEE_BigIntDiv+0x3a>
/home/st/桌面/OP-TEE/optee_os/lib/libutee/tee_api_arith.c:359
    2334:	4b09      	ldr	r3, [pc, #36]	; (235c <TEE_BigIntDiv+0x58>)
    2336:	447b      	add	r3, pc
    2338:	4618      	mov	r0, r3
    233a:	f7ff fda5 	bl	1e88 <TEE_BigInt_Panic>
/home/st/桌面/OP-TEE/optee_os/lib/libutee/tee_api_arith.c:361
    233e:	4b08      	ldr	r3, [pc, #32]	; (2360 <TEE_BigIntDiv+0x5c>)
    2340:	447b      	add	r3, pc
    2342:	681b      	ldr	r3, [r3, #0]
    2344:	9300      	str	r3, [sp, #0]
    2346:	693b      	ldr	r3, [r7, #16]
    2348:	697a      	ldr	r2, [r7, #20]
    234a:	69b9      	ldr	r1, [r7, #24]
    234c:	69f8      	ldr	r0, [r7, #28]
    234e:	f007 f831 	bl	93b4 <mpa_div>
/home/st/桌面/OP-TEE/optee_os/lib/libutee/tee_api_arith.c:362
    2352:	bf00      	nop
    2354:	f107 0720 	add.w	r7, r7, #32
    2358:	46bd      	mov	sp, r7
    235a:	bd80      	pop	{r7, pc}
    235c:	000099a6 	.word	0x000099a6
    2360:	0000cd44 	.word	0x0000cd44

00002364 <TEE_BigIntMod>:
TEE_BigIntMod():
/home/st/桌面/OP-TEE/optee_os/lib/libutee/tee_api_arith.c:373
    2364:	e96d 7e02 	strd	r7, lr, [sp, #-8]!
    2368:	b088      	sub	sp, #32
    236a:	af00      	add	r7, sp, #0
    236c:	60f8      	str	r0, [r7, #12]
    236e:	60b9      	str	r1, [r7, #8]
    2370:	607a      	str	r2, [r7, #4]
/home/st/桌面/OP-TEE/optee_os/lib/libutee/tee_api_arith.c:374
    2372:	68fb      	ldr	r3, [r7, #12]
    2374:	61fb      	str	r3, [r7, #28]
/home/st/桌面/OP-TEE/optee_os/lib/libutee/tee_api_arith.c:375
    2376:	68bb      	ldr	r3, [r7, #8]
    2378:	61bb      	str	r3, [r7, #24]
/home/st/桌面/OP-TEE/optee_os/lib/libutee/tee_api_arith.c:376
    237a:	687b      	ldr	r3, [r7, #4]
    237c:	617b      	str	r3, [r7, #20]
/home/st/桌面/OP-TEE/optee_os/lib/libutee/tee_api_arith.c:378
    237e:	f04f 0102 	mov.w	r1, #2
    2382:	6878      	ldr	r0, [r7, #4]
    2384:	f7ff feec 	bl	2160 <TEE_BigIntCmpS32>
    2388:	4603      	mov	r3, r0
    238a:	2b00      	cmp	r3, #0
    238c:	da04      	bge.n	2398 <TEE_BigIntMod+0x34>
/home/st/桌面/OP-TEE/optee_os/lib/libutee/tee_api_arith.c:379
    238e:	4b11      	ldr	r3, [pc, #68]	; (23d4 <TEE_BigIntMod+0x70>)
    2390:	447b      	add	r3, pc
    2392:	4618      	mov	r0, r3
    2394:	f7ff fd78 	bl	1e88 <TEE_BigInt_Panic>
/home/st/桌面/OP-TEE/optee_os/lib/libutee/tee_api_arith.c:381
    2398:	4b0f      	ldr	r3, [pc, #60]	; (23d8 <TEE_BigIntMod+0x74>)
    239a:	447b      	add	r3, pc
    239c:	681b      	ldr	r3, [r3, #0]
    239e:	697a      	ldr	r2, [r7, #20]
    23a0:	69b9      	ldr	r1, [r7, #24]
    23a2:	69f8      	ldr	r0, [r7, #28]
    23a4:	f009 f96a 	bl	b67c <mpa_mod>
/home/st/桌面/OP-TEE/optee_os/lib/libutee/tee_api_arith.c:383
    23a8:	f04f 0100 	mov.w	r1, #0
    23ac:	69f8      	ldr	r0, [r7, #28]
    23ae:	f009 f89d 	bl	b4ec <mpa_cmp_short>
    23b2:	4603      	mov	r3, r0
    23b4:	2b00      	cmp	r3, #0
    23b6:	da07      	bge.n	23c8 <TEE_BigIntMod+0x64>
/home/st/桌面/OP-TEE/optee_os/lib/libutee/tee_api_arith.c:384
    23b8:	4b08      	ldr	r3, [pc, #32]	; (23dc <TEE_BigIntMod+0x78>)
    23ba:	447b      	add	r3, pc
    23bc:	681b      	ldr	r3, [r3, #0]
    23be:	697a      	ldr	r2, [r7, #20]
    23c0:	69f9      	ldr	r1, [r7, #28]
    23c2:	69f8      	ldr	r0, [r7, #28]
    23c4:	f008 fc57 	bl	ac76 <mpa_add>
/home/st/桌面/OP-TEE/optee_os/lib/libutee/tee_api_arith.c:385
    23c8:	bf00      	nop
    23ca:	f107 0720 	add.w	r7, r7, #32
    23ce:	46bd      	mov	sp, r7
    23d0:	bd80      	pop	{r7, pc}
    23d2:	bf00      	nop
    23d4:	0000995c 	.word	0x0000995c
    23d8:	0000ccea 	.word	0x0000ccea
    23dc:	0000ccca 	.word	0x0000ccca

000023e0 <TEE_BigIntAddMod>:
TEE_BigIntAddMod():
/home/st/桌面/OP-TEE/optee_os/lib/libutee/tee_api_arith.c:392
    23e0:	e96d 7e02 	strd	r7, lr, [sp, #-8]!
    23e4:	b08a      	sub	sp, #40	; 0x28
    23e6:	af02      	add	r7, sp, #8
    23e8:	60f8      	str	r0, [r7, #12]
    23ea:	60b9      	str	r1, [r7, #8]
    23ec:	607a      	str	r2, [r7, #4]
    23ee:	603b      	str	r3, [r7, #0]
/home/st/桌面/OP-TEE/optee_os/lib/libutee/tee_api_arith.c:393
    23f0:	68fb      	ldr	r3, [r7, #12]
    23f2:	61fb      	str	r3, [r7, #28]
/home/st/桌面/OP-TEE/optee_os/lib/libutee/tee_api_arith.c:394
    23f4:	68bb      	ldr	r3, [r7, #8]
    23f6:	61bb      	str	r3, [r7, #24]
/home/st/桌面/OP-TEE/optee_os/lib/libutee/tee_api_arith.c:395
    23f8:	687b      	ldr	r3, [r7, #4]
    23fa:	617b      	str	r3, [r7, #20]
/home/st/桌面/OP-TEE/optee_os/lib/libutee/tee_api_arith.c:396
    23fc:	683b      	ldr	r3, [r7, #0]
    23fe:	613b      	str	r3, [r7, #16]
/home/st/桌面/OP-TEE/optee_os/lib/libutee/tee_api_arith.c:398
    2400:	f04f 0102 	mov.w	r1, #2
    2404:	6838      	ldr	r0, [r7, #0]
    2406:	f7ff feab 	bl	2160 <TEE_BigIntCmpS32>
    240a:	4603      	mov	r3, r0
    240c:	2b00      	cmp	r3, #0
    240e:	da04      	bge.n	241a <TEE_BigIntAddMod+0x3a>
/home/st/桌面/OP-TEE/optee_os/lib/libutee/tee_api_arith.c:399
    2410:	4b11      	ldr	r3, [pc, #68]	; (2458 <TEE_BigIntAddMod+0x78>)
    2412:	447b      	add	r3, pc
    2414:	4618      	mov	r0, r3
    2416:	f7ff fd37 	bl	1e88 <TEE_BigInt_Panic>
/home/st/桌面/OP-TEE/optee_os/lib/libutee/tee_api_arith.c:401
    241a:	4b10      	ldr	r3, [pc, #64]	; (245c <TEE_BigIntAddMod+0x7c>)
    241c:	447b      	add	r3, pc
    241e:	681b      	ldr	r3, [r3, #0]
    2420:	9300      	str	r3, [sp, #0]
    2422:	693b      	ldr	r3, [r7, #16]
    2424:	697a      	ldr	r2, [r7, #20]
    2426:	69b9      	ldr	r1, [r7, #24]
    2428:	69f8      	ldr	r0, [r7, #28]
    242a:	f009 f93d 	bl	b6a8 <mpa_add_mod>
/home/st/桌面/OP-TEE/optee_os/lib/libutee/tee_api_arith.c:402
    242e:	f04f 0100 	mov.w	r1, #0
    2432:	69f8      	ldr	r0, [r7, #28]
    2434:	f009 f85a 	bl	b4ec <mpa_cmp_short>
    2438:	4603      	mov	r3, r0
    243a:	2b00      	cmp	r3, #0
    243c:	da07      	bge.n	244e <TEE_BigIntAddMod+0x6e>
/home/st/桌面/OP-TEE/optee_os/lib/libutee/tee_api_arith.c:403
    243e:	4b08      	ldr	r3, [pc, #32]	; (2460 <TEE_BigIntAddMod+0x80>)
    2440:	447b      	add	r3, pc
    2442:	681b      	ldr	r3, [r3, #0]
    2444:	693a      	ldr	r2, [r7, #16]
    2446:	69f9      	ldr	r1, [r7, #28]
    2448:	69f8      	ldr	r0, [r7, #28]
    244a:	f008 fc14 	bl	ac76 <mpa_add>
/home/st/桌面/OP-TEE/optee_os/lib/libutee/tee_api_arith.c:404
    244e:	bf00      	nop
    2450:	f107 0720 	add.w	r7, r7, #32
    2454:	46bd      	mov	sp, r7
    2456:	bd80      	pop	{r7, pc}
    2458:	000098da 	.word	0x000098da
    245c:	0000cc68 	.word	0x0000cc68
    2460:	0000cc44 	.word	0x0000cc44

00002464 <TEE_BigIntSubMod>:
TEE_BigIntSubMod():
/home/st/桌面/OP-TEE/optee_os/lib/libutee/tee_api_arith.c:411
    2464:	e96d 7e02 	strd	r7, lr, [sp, #-8]!
    2468:	b08a      	sub	sp, #40	; 0x28
    246a:	af02      	add	r7, sp, #8
    246c:	60f8      	str	r0, [r7, #12]
    246e:	60b9      	str	r1, [r7, #8]
    2470:	607a      	str	r2, [r7, #4]
    2472:	603b      	str	r3, [r7, #0]
/home/st/桌面/OP-TEE/optee_os/lib/libutee/tee_api_arith.c:412
    2474:	68fb      	ldr	r3, [r7, #12]
    2476:	61fb      	str	r3, [r7, #28]
/home/st/桌面/OP-TEE/optee_os/lib/libutee/tee_api_arith.c:413
    2478:	68bb      	ldr	r3, [r7, #8]
    247a:	61bb      	str	r3, [r7, #24]
/home/st/桌面/OP-TEE/optee_os/lib/libutee/tee_api_arith.c:414
    247c:	687b      	ldr	r3, [r7, #4]
    247e:	617b      	str	r3, [r7, #20]
/home/st/桌面/OP-TEE/optee_os/lib/libutee/tee_api_arith.c:415
    2480:	683b      	ldr	r3, [r7, #0]
    2482:	613b      	str	r3, [r7, #16]
/home/st/桌面/OP-TEE/optee_os/lib/libutee/tee_api_arith.c:417
    2484:	f04f 0102 	mov.w	r1, #2
    2488:	6838      	ldr	r0, [r7, #0]
    248a:	f7ff fe69 	bl	2160 <TEE_BigIntCmpS32>
    248e:	4603      	mov	r3, r0
    2490:	2b00      	cmp	r3, #0
    2492:	da04      	bge.n	249e <TEE_BigIntSubMod+0x3a>
/home/st/桌面/OP-TEE/optee_os/lib/libutee/tee_api_arith.c:418
    2494:	4b11      	ldr	r3, [pc, #68]	; (24dc <TEE_BigIntSubMod+0x78>)
    2496:	447b      	add	r3, pc
    2498:	4618      	mov	r0, r3
    249a:	f7ff fcf5 	bl	1e88 <TEE_BigInt_Panic>
/home/st/桌面/OP-TEE/optee_os/lib/libutee/tee_api_arith.c:420
    249e:	4b10      	ldr	r3, [pc, #64]	; (24e0 <TEE_BigIntSubMod+0x7c>)
    24a0:	447b      	add	r3, pc
    24a2:	681b      	ldr	r3, [r3, #0]
    24a4:	9300      	str	r3, [sp, #0]
    24a6:	693b      	ldr	r3, [r7, #16]
    24a8:	697a      	ldr	r2, [r7, #20]
    24aa:	69b9      	ldr	r1, [r7, #24]
    24ac:	69f8      	ldr	r0, [r7, #28]
    24ae:	f009 f923 	bl	b6f8 <mpa_sub_mod>
/home/st/桌面/OP-TEE/optee_os/lib/libutee/tee_api_arith.c:421
    24b2:	f04f 0100 	mov.w	r1, #0
    24b6:	69f8      	ldr	r0, [r7, #28]
    24b8:	f009 f818 	bl	b4ec <mpa_cmp_short>
    24bc:	4603      	mov	r3, r0
    24be:	2b00      	cmp	r3, #0
    24c0:	da07      	bge.n	24d2 <TEE_BigIntSubMod+0x6e>
/home/st/桌面/OP-TEE/optee_os/lib/libutee/tee_api_arith.c:422
    24c2:	4b08      	ldr	r3, [pc, #32]	; (24e4 <TEE_BigIntSubMod+0x80>)
    24c4:	447b      	add	r3, pc
    24c6:	681b      	ldr	r3, [r3, #0]
    24c8:	693a      	ldr	r2, [r7, #16]
    24ca:	69f9      	ldr	r1, [r7, #28]
    24cc:	69f8      	ldr	r0, [r7, #28]
    24ce:	f008 fbd2 	bl	ac76 <mpa_add>
/home/st/桌面/OP-TEE/optee_os/lib/libutee/tee_api_arith.c:423
    24d2:	bf00      	nop
    24d4:	f107 0720 	add.w	r7, r7, #32
    24d8:	46bd      	mov	sp, r7
    24da:	bd80      	pop	{r7, pc}
    24dc:	00009856 	.word	0x00009856
    24e0:	0000cbe4 	.word	0x0000cbe4
    24e4:	0000cbc0 	.word	0x0000cbc0

000024e8 <TEE_BigIntMulMod>:
TEE_BigIntMulMod():
/home/st/桌面/OP-TEE/optee_os/lib/libutee/tee_api_arith.c:430
    24e8:	e96d 7e02 	strd	r7, lr, [sp, #-8]!
    24ec:	b08c      	sub	sp, #48	; 0x30
    24ee:	af02      	add	r7, sp, #8
    24f0:	60f8      	str	r0, [r7, #12]
    24f2:	60b9      	str	r1, [r7, #8]
    24f4:	607a      	str	r2, [r7, #4]
    24f6:	603b      	str	r3, [r7, #0]
/home/st/桌面/OP-TEE/optee_os/lib/libutee/tee_api_arith.c:431
    24f8:	68fb      	ldr	r3, [r7, #12]
    24fa:	627b      	str	r3, [r7, #36]	; 0x24
/home/st/桌面/OP-TEE/optee_os/lib/libutee/tee_api_arith.c:432
    24fc:	68bb      	ldr	r3, [r7, #8]
    24fe:	623b      	str	r3, [r7, #32]
/home/st/桌面/OP-TEE/optee_os/lib/libutee/tee_api_arith.c:433
    2500:	687b      	ldr	r3, [r7, #4]
    2502:	61fb      	str	r3, [r7, #28]
/home/st/桌面/OP-TEE/optee_os/lib/libutee/tee_api_arith.c:434
    2504:	683b      	ldr	r3, [r7, #0]
    2506:	61bb      	str	r3, [r7, #24]
/home/st/桌面/OP-TEE/optee_os/lib/libutee/tee_api_arith.c:437
    2508:	f04f 0102 	mov.w	r1, #2
    250c:	6838      	ldr	r0, [r7, #0]
    250e:	f7ff fe27 	bl	2160 <TEE_BigIntCmpS32>
    2512:	4603      	mov	r3, r0
    2514:	2b00      	cmp	r3, #0
    2516:	da04      	bge.n	2522 <TEE_BigIntMulMod+0x3a>
/home/st/桌面/OP-TEE/optee_os/lib/libutee/tee_api_arith.c:438
    2518:	4b1d      	ldr	r3, [pc, #116]	; (2590 <TEE_BigIntMulMod+0xa8>)
    251a:	447b      	add	r3, pc
    251c:	4618      	mov	r0, r3
    251e:	f7ff fcb3 	bl	1e88 <TEE_BigInt_Panic>
/home/st/桌面/OP-TEE/optee_os/lib/libutee/tee_api_arith.c:448
    2522:	4b1c      	ldr	r3, [pc, #112]	; (2594 <TEE_BigIntMulMod+0xac>)
    2524:	447b      	add	r3, pc
    2526:	681a      	ldr	r2, [r3, #0]
    2528:	f107 0314 	add.w	r3, r7, #20
    252c:	4611      	mov	r1, r2
    252e:	4618      	mov	r0, r3
    2530:	f007 fc70 	bl	9e14 <mpa_alloc_static_temp_var>
/home/st/桌面/OP-TEE/optee_os/lib/libutee/tee_api_arith.c:449
    2534:	6978      	ldr	r0, [r7, #20]
    2536:	4b18      	ldr	r3, [pc, #96]	; (2598 <TEE_BigIntMulMod+0xb0>)
    2538:	447b      	add	r3, pc
    253a:	681b      	ldr	r3, [r3, #0]
    253c:	9300      	str	r3, [sp, #0]
    253e:	69bb      	ldr	r3, [r7, #24]
    2540:	69fa      	ldr	r2, [r7, #28]
    2542:	6a39      	ldr	r1, [r7, #32]
    2544:	f009 f900 	bl	b748 <mpa_mul_mod>
/home/st/桌面/OP-TEE/optee_os/lib/libutee/tee_api_arith.c:450
    2548:	697b      	ldr	r3, [r7, #20]
    254a:	f04f 0100 	mov.w	r1, #0
    254e:	4618      	mov	r0, r3
    2550:	f008 ffcc 	bl	b4ec <mpa_cmp_short>
    2554:	4603      	mov	r3, r0
    2556:	2b00      	cmp	r3, #0
    2558:	da07      	bge.n	256a <TEE_BigIntMulMod+0x82>
/home/st/桌面/OP-TEE/optee_os/lib/libutee/tee_api_arith.c:451
    255a:	6978      	ldr	r0, [r7, #20]
    255c:	6979      	ldr	r1, [r7, #20]
    255e:	4b0f      	ldr	r3, [pc, #60]	; (259c <TEE_BigIntMulMod+0xb4>)
    2560:	447b      	add	r3, pc
    2562:	681b      	ldr	r3, [r3, #0]
    2564:	69ba      	ldr	r2, [r7, #24]
    2566:	f008 fb86 	bl	ac76 <mpa_add>
/home/st/桌面/OP-TEE/optee_os/lib/libutee/tee_api_arith.c:452
    256a:	697b      	ldr	r3, [r7, #20]
    256c:	4619      	mov	r1, r3
    256e:	6a78      	ldr	r0, [r7, #36]	; 0x24
    2570:	f003 f80e 	bl	5590 <mpa_copy>
/home/st/桌面/OP-TEE/optee_os/lib/libutee/tee_api_arith.c:453
    2574:	4b0a      	ldr	r3, [pc, #40]	; (25a0 <TEE_BigIntMulMod+0xb8>)
    2576:	447b      	add	r3, pc
    2578:	681a      	ldr	r2, [r3, #0]
    257a:	f107 0314 	add.w	r3, r7, #20
    257e:	4611      	mov	r1, r2
    2580:	4618      	mov	r0, r3
    2582:	f007 fc5a 	bl	9e3a <mpa_free_static_temp_var>
/home/st/桌面/OP-TEE/optee_os/lib/libutee/tee_api_arith.c:454
    2586:	bf00      	nop
    2588:	f107 0728 	add.w	r7, r7, #40	; 0x28
    258c:	46bd      	mov	sp, r7
    258e:	bd80      	pop	{r7, pc}
    2590:	000097d2 	.word	0x000097d2
    2594:	0000cb60 	.word	0x0000cb60
    2598:	0000cb4c 	.word	0x0000cb4c
    259c:	0000cb24 	.word	0x0000cb24
    25a0:	0000cb0e 	.word	0x0000cb0e

000025a4 <TEE_BigIntSquareMod>:
TEE_BigIntSquareMod():
/home/st/桌面/OP-TEE/optee_os/lib/libutee/tee_api_arith.c:461
    25a4:	e96d 7e02 	strd	r7, lr, [sp, #-8]!
    25a8:	b084      	sub	sp, #16
    25aa:	af00      	add	r7, sp, #0
    25ac:	60f8      	str	r0, [r7, #12]
    25ae:	60b9      	str	r1, [r7, #8]
    25b0:	607a      	str	r2, [r7, #4]
/home/st/桌面/OP-TEE/optee_os/lib/libutee/tee_api_arith.c:462
    25b2:	687b      	ldr	r3, [r7, #4]
    25b4:	68ba      	ldr	r2, [r7, #8]
    25b6:	68b9      	ldr	r1, [r7, #8]
    25b8:	68f8      	ldr	r0, [r7, #12]
    25ba:	f7ff ff95 	bl	24e8 <TEE_BigIntMulMod>
/home/st/桌面/OP-TEE/optee_os/lib/libutee/tee_api_arith.c:463
    25be:	bf00      	nop
    25c0:	f107 0710 	add.w	r7, r7, #16
    25c4:	46bd      	mov	sp, r7
    25c6:	bd80      	pop	{r7, pc}

000025c8 <TEE_BigIntInvMod>:
TEE_BigIntInvMod():
/home/st/桌面/OP-TEE/optee_os/lib/libutee/tee_api_arith.c:470
    25c8:	e96d 7e02 	strd	r7, lr, [sp, #-8]!
    25cc:	b088      	sub	sp, #32
    25ce:	af00      	add	r7, sp, #0
    25d0:	60f8      	str	r0, [r7, #12]
    25d2:	60b9      	str	r1, [r7, #8]
    25d4:	607a      	str	r2, [r7, #4]
/home/st/桌面/OP-TEE/optee_os/lib/libutee/tee_api_arith.c:471
    25d6:	68fb      	ldr	r3, [r7, #12]
    25d8:	61fb      	str	r3, [r7, #28]
/home/st/桌面/OP-TEE/optee_os/lib/libutee/tee_api_arith.c:472
    25da:	68bb      	ldr	r3, [r7, #8]
    25dc:	61bb      	str	r3, [r7, #24]
/home/st/桌面/OP-TEE/optee_os/lib/libutee/tee_api_arith.c:473
    25de:	687b      	ldr	r3, [r7, #4]
    25e0:	617b      	str	r3, [r7, #20]
/home/st/桌面/OP-TEE/optee_os/lib/libutee/tee_api_arith.c:475
    25e2:	f04f 0102 	mov.w	r1, #2
    25e6:	6878      	ldr	r0, [r7, #4]
    25e8:	f7ff fdba 	bl	2160 <TEE_BigIntCmpS32>
    25ec:	4603      	mov	r3, r0
    25ee:	2b00      	cmp	r3, #0
    25f0:	db07      	blt.n	2602 <TEE_BigIntInvMod+0x3a>
/home/st/桌面/OP-TEE/optee_os/lib/libutee/tee_api_arith.c:475 (discriminator 1)
    25f2:	f04f 0100 	mov.w	r1, #0
    25f6:	68b8      	ldr	r0, [r7, #8]
    25f8:	f7ff fdb2 	bl	2160 <TEE_BigIntCmpS32>
    25fc:	4603      	mov	r3, r0
    25fe:	2b00      	cmp	r3, #0
    2600:	d104      	bne.n	260c <TEE_BigIntInvMod+0x44>
/home/st/桌面/OP-TEE/optee_os/lib/libutee/tee_api_arith.c:476
    2602:	4b09      	ldr	r3, [pc, #36]	; (2628 <TEE_BigIntInvMod+0x60>)
    2604:	447b      	add	r3, pc
    2606:	4618      	mov	r0, r3
    2608:	f7ff fc3e 	bl	1e88 <TEE_BigInt_Panic>
/home/st/桌面/OP-TEE/optee_os/lib/libutee/tee_api_arith.c:478
    260c:	4b07      	ldr	r3, [pc, #28]	; (262c <TEE_BigIntInvMod+0x64>)
    260e:	447b      	add	r3, pc
    2610:	681b      	ldr	r3, [r3, #0]
    2612:	697a      	ldr	r2, [r7, #20]
    2614:	69b9      	ldr	r1, [r7, #24]
    2616:	69f8      	ldr	r0, [r7, #28]
    2618:	f009 f8be 	bl	b798 <mpa_inv_mod>
/home/st/桌面/OP-TEE/optee_os/lib/libutee/tee_api_arith.c:479
    261c:	bf00      	nop
    261e:	f107 0720 	add.w	r7, r7, #32
    2622:	46bd      	mov	sp, r7
    2624:	bd80      	pop	{r7, pc}
    2626:	bf00      	nop
    2628:	00009700 	.word	0x00009700
    262c:	0000ca76 	.word	0x0000ca76

00002630 <TEE_BigIntRelativePrime>:
TEE_BigIntRelativePrime():
/home/st/桌面/OP-TEE/optee_os/lib/libutee/tee_api_arith.c:489
    2630:	e96d 7e02 	strd	r7, lr, [sp, #-8]!
    2634:	b086      	sub	sp, #24
    2636:	af00      	add	r7, sp, #0
    2638:	6078      	str	r0, [r7, #4]
    263a:	6039      	str	r1, [r7, #0]
/home/st/桌面/OP-TEE/optee_os/lib/libutee/tee_api_arith.c:490
    263c:	687b      	ldr	r3, [r7, #4]
    263e:	617b      	str	r3, [r7, #20]
/home/st/桌面/OP-TEE/optee_os/lib/libutee/tee_api_arith.c:491
    2640:	683b      	ldr	r3, [r7, #0]
    2642:	613b      	str	r3, [r7, #16]
/home/st/桌面/OP-TEE/optee_os/lib/libutee/tee_api_arith.c:495
    2644:	4b16      	ldr	r3, [pc, #88]	; (26a0 <TEE_BigIntRelativePrime+0x70>)
    2646:	447b      	add	r3, pc
    2648:	681a      	ldr	r2, [r3, #0]
    264a:	f107 0308 	add.w	r3, r7, #8
    264e:	4611      	mov	r1, r2
    2650:	4618      	mov	r0, r3
    2652:	f007 fbdf 	bl	9e14 <mpa_alloc_static_temp_var>
/home/st/桌面/OP-TEE/optee_os/lib/libutee/tee_api_arith.c:497
    2656:	68b8      	ldr	r0, [r7, #8]
    2658:	4b12      	ldr	r3, [pc, #72]	; (26a4 <TEE_BigIntRelativePrime+0x74>)
    265a:	447b      	add	r3, pc
    265c:	681b      	ldr	r3, [r3, #0]
    265e:	693a      	ldr	r2, [r7, #16]
    2660:	6979      	ldr	r1, [r7, #20]
    2662:	f007 f99d 	bl	99a0 <mpa_gcd>
/home/st/桌面/OP-TEE/optee_os/lib/libutee/tee_api_arith.c:498
    2666:	68bb      	ldr	r3, [r7, #8]
    2668:	f04f 0101 	mov.w	r1, #1
    266c:	4618      	mov	r0, r3
    266e:	f008 ff3d 	bl	b4ec <mpa_cmp_short>
    2672:	4603      	mov	r3, r0
    2674:	60fb      	str	r3, [r7, #12]
/home/st/桌面/OP-TEE/optee_os/lib/libutee/tee_api_arith.c:500
    2676:	4b0c      	ldr	r3, [pc, #48]	; (26a8 <TEE_BigIntRelativePrime+0x78>)
    2678:	447b      	add	r3, pc
    267a:	681a      	ldr	r2, [r3, #0]
    267c:	f107 0308 	add.w	r3, r7, #8
    2680:	4611      	mov	r1, r2
    2682:	4618      	mov	r0, r3
    2684:	f007 fbd9 	bl	9e3a <mpa_free_static_temp_var>
/home/st/桌面/OP-TEE/optee_os/lib/libutee/tee_api_arith.c:502
    2688:	68fb      	ldr	r3, [r7, #12]
    268a:	2b00      	cmp	r3, #0
    268c:	bf0c      	ite	eq
    268e:	2301      	moveq	r3, #1
    2690:	2300      	movne	r3, #0
    2692:	b2db      	uxtb	r3, r3
/home/st/桌面/OP-TEE/optee_os/lib/libutee/tee_api_arith.c:503
    2694:	4618      	mov	r0, r3
    2696:	f107 0718 	add.w	r7, r7, #24
    269a:	46bd      	mov	sp, r7
    269c:	bd80      	pop	{r7, pc}
    269e:	bf00      	nop
    26a0:	0000ca3e 	.word	0x0000ca3e
    26a4:	0000ca2a 	.word	0x0000ca2a
    26a8:	0000ca0c 	.word	0x0000ca0c

000026ac <TEE_BigIntComputeExtendedGcd>:
TEE_BigIntComputeExtendedGcd():
/home/st/桌面/OP-TEE/optee_os/lib/libutee/tee_api_arith.c:511
    26ac:	e96d 7e02 	strd	r7, lr, [sp, #-8]!
    26b0:	b08c      	sub	sp, #48	; 0x30
    26b2:	af02      	add	r7, sp, #8
    26b4:	60f8      	str	r0, [r7, #12]
    26b6:	60b9      	str	r1, [r7, #8]
    26b8:	607a      	str	r2, [r7, #4]
    26ba:	603b      	str	r3, [r7, #0]
/home/st/桌面/OP-TEE/optee_os/lib/libutee/tee_api_arith.c:512
    26bc:	68fb      	ldr	r3, [r7, #12]
    26be:	627b      	str	r3, [r7, #36]	; 0x24
/home/st/桌面/OP-TEE/optee_os/lib/libutee/tee_api_arith.c:513
    26c0:	68bb      	ldr	r3, [r7, #8]
    26c2:	623b      	str	r3, [r7, #32]
/home/st/桌面/OP-TEE/optee_os/lib/libutee/tee_api_arith.c:514
    26c4:	687b      	ldr	r3, [r7, #4]
    26c6:	61fb      	str	r3, [r7, #28]
/home/st/桌面/OP-TEE/optee_os/lib/libutee/tee_api_arith.c:515
    26c8:	683b      	ldr	r3, [r7, #0]
    26ca:	61bb      	str	r3, [r7, #24]
/home/st/桌面/OP-TEE/optee_os/lib/libutee/tee_api_arith.c:516
    26cc:	6b3b      	ldr	r3, [r7, #48]	; 0x30
    26ce:	617b      	str	r3, [r7, #20]
/home/st/桌面/OP-TEE/optee_os/lib/libutee/tee_api_arith.c:518
    26d0:	4b08      	ldr	r3, [pc, #32]	; (26f4 <TEE_BigIntComputeExtendedGcd+0x48>)
    26d2:	447b      	add	r3, pc
    26d4:	681b      	ldr	r3, [r3, #0]
    26d6:	9301      	str	r3, [sp, #4]
    26d8:	697b      	ldr	r3, [r7, #20]
    26da:	9300      	str	r3, [sp, #0]
    26dc:	69bb      	ldr	r3, [r7, #24]
    26de:	69fa      	ldr	r2, [r7, #28]
    26e0:	6a39      	ldr	r1, [r7, #32]
    26e2:	6a78      	ldr	r0, [r7, #36]	; 0x24
    26e4:	f007 f9d2 	bl	9a8c <mpa_extended_gcd>
/home/st/桌面/OP-TEE/optee_os/lib/libutee/tee_api_arith.c:519
    26e8:	bf00      	nop
    26ea:	f107 0728 	add.w	r7, r7, #40	; 0x28
    26ee:	46bd      	mov	sp, r7
    26f0:	bd80      	pop	{r7, pc}
    26f2:	bf00      	nop
    26f4:	0000c9b2 	.word	0x0000c9b2

000026f8 <TEE_BigIntIsProbablePrime>:
TEE_BigIntIsProbablePrime():
/home/st/桌面/OP-TEE/optee_os/lib/libutee/tee_api_arith.c:526
    26f8:	e96d 7e02 	strd	r7, lr, [sp, #-8]!
    26fc:	b084      	sub	sp, #16
    26fe:	af00      	add	r7, sp, #0
    2700:	6078      	str	r0, [r7, #4]
    2702:	6039      	str	r1, [r7, #0]
/home/st/桌面/OP-TEE/optee_os/lib/libutee/tee_api_arith.c:527
    2704:	687b      	ldr	r3, [r7, #4]
    2706:	60fb      	str	r3, [r7, #12]
/home/st/桌面/OP-TEE/optee_os/lib/libutee/tee_api_arith.c:529
    2708:	683b      	ldr	r3, [r7, #0]
    270a:	2b4f      	cmp	r3, #79	; 0x4f
    270c:	d802      	bhi.n	2714 <TEE_BigIntIsProbablePrime+0x1c>
/home/st/桌面/OP-TEE/optee_os/lib/libutee/tee_api_arith.c:530
    270e:	f04f 0350 	mov.w	r3, #80	; 0x50
    2712:	603b      	str	r3, [r7, #0]
/home/st/桌面/OP-TEE/optee_os/lib/libutee/tee_api_arith.c:532
    2714:	683b      	ldr	r3, [r7, #0]
    2716:	f5b3 7f80 	cmp.w	r3, #256	; 0x100
    271a:	d902      	bls.n	2722 <TEE_BigIntIsProbablePrime+0x2a>
/home/st/桌面/OP-TEE/optee_os/lib/libutee/tee_api_arith.c:533
    271c:	f44f 7380 	mov.w	r3, #256	; 0x100
    2720:	603b      	str	r3, [r7, #0]
/home/st/桌面/OP-TEE/optee_os/lib/libutee/tee_api_arith.c:535
    2722:	683b      	ldr	r3, [r7, #0]
    2724:	4a06      	ldr	r2, [pc, #24]	; (2740 <TEE_BigIntIsProbablePrime+0x48>)
    2726:	447a      	add	r2, pc
    2728:	6812      	ldr	r2, [r2, #0]
    272a:	4619      	mov	r1, r3
    272c:	68f8      	ldr	r0, [r7, #12]
    272e:	f003 fa91 	bl	5c54 <mpa_is_prob_prime>
    2732:	4603      	mov	r3, r0
/home/st/桌面/OP-TEE/optee_os/lib/libutee/tee_api_arith.c:536
    2734:	4618      	mov	r0, r3
    2736:	f107 0710 	add.w	r7, r7, #16
    273a:	46bd      	mov	sp, r7
    273c:	bd80      	pop	{r7, pc}
    273e:	bf00      	nop
    2740:	0000c95e 	.word	0x0000c95e

00002744 <TEE_BigIntConvertToFMM>:
TEE_BigIntConvertToFMM():
/home/st/桌面/OP-TEE/optee_os/lib/libutee/tee_api_arith.c:549
    2744:	e96d 7e02 	strd	r7, lr, [sp, #-8]!
    2748:	b08a      	sub	sp, #40	; 0x28
    274a:	af02      	add	r7, sp, #8
    274c:	60f8      	str	r0, [r7, #12]
    274e:	60b9      	str	r1, [r7, #8]
    2750:	607a      	str	r2, [r7, #4]
    2752:	603b      	str	r3, [r7, #0]
/home/st/桌面/OP-TEE/optee_os/lib/libutee/tee_api_arith.c:550
    2754:	68fb      	ldr	r3, [r7, #12]
    2756:	61fb      	str	r3, [r7, #28]
/home/st/桌面/OP-TEE/optee_os/lib/libutee/tee_api_arith.c:551
    2758:	68bb      	ldr	r3, [r7, #8]
    275a:	61bb      	str	r3, [r7, #24]
/home/st/桌面/OP-TEE/optee_os/lib/libutee/tee_api_arith.c:552
    275c:	687b      	ldr	r3, [r7, #4]
    275e:	617b      	str	r3, [r7, #20]
/home/st/桌面/OP-TEE/optee_os/lib/libutee/tee_api_arith.c:553
    2760:	683b      	ldr	r3, [r7, #0]
    2762:	613b      	str	r3, [r7, #16]
/home/st/桌面/OP-TEE/optee_os/lib/libutee/tee_api_arith.c:556
    2764:	693b      	ldr	r3, [r7, #16]
    2766:	6859      	ldr	r1, [r3, #4]
    2768:	693b      	ldr	r3, [r7, #16]
    276a:	689b      	ldr	r3, [r3, #8]
    276c:	4a07      	ldr	r2, [pc, #28]	; (278c <TEE_BigIntConvertToFMM+0x48>)
    276e:	447a      	add	r2, pc
    2770:	6812      	ldr	r2, [r2, #0]
    2772:	9201      	str	r2, [sp, #4]
    2774:	9300      	str	r3, [sp, #0]
    2776:	697b      	ldr	r3, [r7, #20]
    2778:	460a      	mov	r2, r1
    277a:	69b9      	ldr	r1, [r7, #24]
    277c:	69f8      	ldr	r0, [r7, #28]
    277e:	f003 fa43 	bl	5c08 <mpa_montgomery_mul>
/home/st/桌面/OP-TEE/optee_os/lib/libutee/tee_api_arith.c:558
    2782:	bf00      	nop
    2784:	f107 0720 	add.w	r7, r7, #32
    2788:	46bd      	mov	sp, r7
    278a:	bd80      	pop	{r7, pc}
    278c:	0000c916 	.word	0x0000c916

00002790 <TEE_BigIntConvertFromFMM>:
TEE_BigIntConvertFromFMM():
/home/st/桌面/OP-TEE/optee_os/lib/libutee/tee_api_arith.c:567
    2790:	f84d 4d0c 	str.w	r4, [sp, #-12]!
    2794:	e9cd 7e01 	strd	r7, lr, [sp, #4]
    2798:	b08d      	sub	sp, #52	; 0x34
    279a:	af02      	add	r7, sp, #8
    279c:	60f8      	str	r0, [r7, #12]
    279e:	60b9      	str	r1, [r7, #8]
    27a0:	607a      	str	r2, [r7, #4]
    27a2:	603b      	str	r3, [r7, #0]
/home/st/桌面/OP-TEE/optee_os/lib/libutee/tee_api_arith.c:568
    27a4:	68fb      	ldr	r3, [r7, #12]
    27a6:	627b      	str	r3, [r7, #36]	; 0x24
/home/st/桌面/OP-TEE/optee_os/lib/libutee/tee_api_arith.c:569
    27a8:	68bb      	ldr	r3, [r7, #8]
    27aa:	623b      	str	r3, [r7, #32]
/home/st/桌面/OP-TEE/optee_os/lib/libutee/tee_api_arith.c:570
    27ac:	687b      	ldr	r3, [r7, #4]
    27ae:	61fb      	str	r3, [r7, #28]
/home/st/桌面/OP-TEE/optee_os/lib/libutee/tee_api_arith.c:571
    27b0:	683b      	ldr	r3, [r7, #0]
    27b2:	61bb      	str	r3, [r7, #24]
/home/st/桌面/OP-TEE/optee_os/lib/libutee/tee_api_arith.c:579
    27b4:	4b17      	ldr	r3, [pc, #92]	; (2814 <TEE_BigIntConvertFromFMM+0x84>)
    27b6:	447b      	add	r3, pc
    27b8:	681a      	ldr	r2, [r3, #0]
    27ba:	f107 0314 	add.w	r3, r7, #20
    27be:	4611      	mov	r1, r2
    27c0:	4618      	mov	r0, r3
    27c2:	f007 fb27 	bl	9e14 <mpa_alloc_static_temp_var>
/home/st/桌面/OP-TEE/optee_os/lib/libutee/tee_api_arith.c:582
    27c6:	697c      	ldr	r4, [r7, #20]
    27c8:	f002 ffc2 	bl	5750 <mpa_constant_one>
    27cc:	4601      	mov	r1, r0
    27ce:	69bb      	ldr	r3, [r7, #24]
    27d0:	689b      	ldr	r3, [r3, #8]
    27d2:	4a11      	ldr	r2, [pc, #68]	; (2818 <TEE_BigIntConvertFromFMM+0x88>)
    27d4:	447a      	add	r2, pc
    27d6:	6812      	ldr	r2, [r2, #0]
    27d8:	9201      	str	r2, [sp, #4]
    27da:	9300      	str	r3, [sp, #0]
    27dc:	69fb      	ldr	r3, [r7, #28]
    27de:	6a3a      	ldr	r2, [r7, #32]
    27e0:	4620      	mov	r0, r4
    27e2:	f003 fa11 	bl	5c08 <mpa_montgomery_mul>
/home/st/桌面/OP-TEE/optee_os/lib/libutee/tee_api_arith.c:585
    27e6:	697b      	ldr	r3, [r7, #20]
    27e8:	4619      	mov	r1, r3
    27ea:	6a78      	ldr	r0, [r7, #36]	; 0x24
    27ec:	f002 fed0 	bl	5590 <mpa_copy>
/home/st/桌面/OP-TEE/optee_os/lib/libutee/tee_api_arith.c:586
    27f0:	4b0a      	ldr	r3, [pc, #40]	; (281c <TEE_BigIntConvertFromFMM+0x8c>)
    27f2:	447b      	add	r3, pc
    27f4:	681a      	ldr	r2, [r3, #0]
    27f6:	f107 0314 	add.w	r3, r7, #20
    27fa:	4611      	mov	r1, r2
    27fc:	4618      	mov	r0, r3
    27fe:	f007 fb1c 	bl	9e3a <mpa_free_static_temp_var>
/home/st/桌面/OP-TEE/optee_os/lib/libutee/tee_api_arith.c:587
    2802:	bf00      	nop
    2804:	f107 072c 	add.w	r7, r7, #44	; 0x2c
    2808:	46bd      	mov	sp, r7
    280a:	e9dd 4700 	ldrd	r4, r7, [sp]
    280e:	b002      	add	sp, #8
    2810:	f85d fb04 	ldr.w	pc, [sp], #4
    2814:	0000c8ce 	.word	0x0000c8ce
    2818:	0000c8b0 	.word	0x0000c8b0
    281c:	0000c892 	.word	0x0000c892

00002820 <TEE_BigIntComputeFMM>:
TEE_BigIntComputeFMM():
/home/st/桌面/OP-TEE/optee_os/lib/libutee/tee_api_arith.c:597
    2820:	e96d 7e02 	strd	r7, lr, [sp, #-8]!
    2824:	b08c      	sub	sp, #48	; 0x30
    2826:	af02      	add	r7, sp, #8
    2828:	60f8      	str	r0, [r7, #12]
    282a:	60b9      	str	r1, [r7, #8]
    282c:	607a      	str	r2, [r7, #4]
    282e:	603b      	str	r3, [r7, #0]
/home/st/桌面/OP-TEE/optee_os/lib/libutee/tee_api_arith.c:598
    2830:	68fb      	ldr	r3, [r7, #12]
    2832:	627b      	str	r3, [r7, #36]	; 0x24
/home/st/桌面/OP-TEE/optee_os/lib/libutee/tee_api_arith.c:599
    2834:	68bb      	ldr	r3, [r7, #8]
    2836:	623b      	str	r3, [r7, #32]
/home/st/桌面/OP-TEE/optee_os/lib/libutee/tee_api_arith.c:600
    2838:	687b      	ldr	r3, [r7, #4]
    283a:	61fb      	str	r3, [r7, #28]
/home/st/桌面/OP-TEE/optee_os/lib/libutee/tee_api_arith.c:601
    283c:	683b      	ldr	r3, [r7, #0]
    283e:	61bb      	str	r3, [r7, #24]
/home/st/桌面/OP-TEE/optee_os/lib/libutee/tee_api_arith.c:602
    2840:	6b3b      	ldr	r3, [r7, #48]	; 0x30
    2842:	617b      	str	r3, [r7, #20]
/home/st/桌面/OP-TEE/optee_os/lib/libutee/tee_api_arith.c:604
    2844:	697b      	ldr	r3, [r7, #20]
    2846:	689b      	ldr	r3, [r3, #8]
    2848:	4a07      	ldr	r2, [pc, #28]	; (2868 <TEE_BigIntComputeFMM+0x48>)
    284a:	447a      	add	r2, pc
    284c:	6812      	ldr	r2, [r2, #0]
    284e:	9201      	str	r2, [sp, #4]
    2850:	9300      	str	r3, [sp, #0]
    2852:	69bb      	ldr	r3, [r7, #24]
    2854:	69fa      	ldr	r2, [r7, #28]
    2856:	6a39      	ldr	r1, [r7, #32]
    2858:	6a78      	ldr	r0, [r7, #36]	; 0x24
    285a:	f003 f9d5 	bl	5c08 <mpa_montgomery_mul>
/home/st/桌面/OP-TEE/optee_os/lib/libutee/tee_api_arith.c:606
    285e:	bf00      	nop
    2860:	f107 0728 	add.w	r7, r7, #40	; 0x28
    2864:	46bd      	mov	sp, r7
    2866:	bd80      	pop	{r7, pc}
    2868:	0000c83a 	.word	0x0000c83a

0000286c <trace_ext_puts>:
trace_ext_puts():
/home/st/桌面/OP-TEE/optee_os/lib/libutee/trace_ext.c:39
    286c:	e96d 7e02 	strd	r7, lr, [sp, #-8]!
    2870:	b082      	sub	sp, #8
    2872:	af00      	add	r7, sp, #0
    2874:	6078      	str	r0, [r7, #4]
/home/st/桌面/OP-TEE/optee_os/lib/libutee/trace_ext.c:40
    2876:	6878      	ldr	r0, [r7, #4]
    2878:	f005 fdd7 	bl	842a <strlen>
    287c:	4603      	mov	r3, r0
    287e:	4619      	mov	r1, r3
    2880:	6878      	ldr	r0, [r7, #4]
    2882:	f7fe ebf8 	blx	1074 <utee_log>
/home/st/桌面/OP-TEE/optee_os/lib/libutee/trace_ext.c:41
    2886:	bf00      	nop
    2888:	f107 0708 	add.w	r7, r7, #8
    288c:	46bd      	mov	sp, r7
    288e:	bd80      	pop	{r7, pc}

00002890 <trace_ext_get_thread_id>:
trace_ext_get_thread_id():
/home/st/桌面/OP-TEE/optee_os/lib/libutee/trace_ext.c:44
    2890:	f84d 7d04 	str.w	r7, [sp, #-4]!
    2894:	af00      	add	r7, sp, #0
/home/st/桌面/OP-TEE/optee_os/lib/libutee/trace_ext.c:45
    2896:	f04f 33ff 	mov.w	r3, #4294967295	; 0xffffffff
/home/st/桌面/OP-TEE/optee_os/lib/libutee/trace_ext.c:46
    289a:	4618      	mov	r0, r3
    289c:	46bd      	mov	sp, r7
    289e:	f85d 7b04 	ldr.w	r7, [sp], #4
    28a2:	4770      	bx	lr

000028a4 <printf>:
printf():
/home/st/桌面/OP-TEE/optee_os/lib/libutee/trace_ext.c:54
    28a4:	b40f      	push	{r0, r1, r2, r3}
    28a6:	e96d 7e02 	strd	r7, lr, [sp, #-8]!
    28aa:	b0c2      	sub	sp, #264	; 0x108
    28ac:	af00      	add	r7, sp, #0
/home/st/桌面/OP-TEE/optee_os/lib/libutee/trace_ext.c:59
    28ae:	f002 fc53 	bl	5158 <trace_get_level>
    28b2:	4603      	mov	r3, r0
    28b4:	2b00      	cmp	r3, #0
    28b6:	dc02      	bgt.n	28be <printf+0x1a>
/home/st/桌面/OP-TEE/optee_os/lib/libutee/trace_ext.c:60
    28b8:	f04f 0300 	mov.w	r3, #0
    28bc:	e01d      	b.n	28fa <printf+0x56>
/home/st/桌面/OP-TEE/optee_os/lib/libutee/trace_ext.c:62
    28be:	f507 728a 	add.w	r2, r7, #276	; 0x114
    28c2:	463b      	mov	r3, r7
    28c4:	601a      	str	r2, [r3, #0]
/home/st/桌面/OP-TEE/optee_os/lib/libutee/trace_ext.c:63
    28c6:	463b      	mov	r3, r7
    28c8:	f107 0004 	add.w	r0, r7, #4
    28cc:	681b      	ldr	r3, [r3, #0]
    28ce:	f8d7 2110 	ldr.w	r2, [r7, #272]	; 0x110
    28d2:	f44f 7180 	mov.w	r1, #256	; 0x100
    28d6:	f005 fb8f 	bl	7ff8 <vsnprintf>
    28da:	f8c7 0104 	str.w	r0, [r7, #260]	; 0x104
/home/st/桌面/OP-TEE/optee_os/lib/libutee/trace_ext.c:66
    28de:	f8d7 3104 	ldr.w	r3, [r7, #260]	; 0x104
    28e2:	2b00      	cmp	r3, #0
    28e4:	da02      	bge.n	28ec <printf+0x48>
/home/st/桌面/OP-TEE/optee_os/lib/libutee/trace_ext.c:67
    28e6:	f8d7 3104 	ldr.w	r3, [r7, #260]	; 0x104
    28ea:	e006      	b.n	28fa <printf+0x56>
/home/st/桌面/OP-TEE/optee_os/lib/libutee/trace_ext.c:69
    28ec:	f107 0304 	add.w	r3, r7, #4
    28f0:	4618      	mov	r0, r3
    28f2:	f7ff ffbb 	bl	286c <trace_ext_puts>
/home/st/桌面/OP-TEE/optee_os/lib/libutee/trace_ext.c:71
    28f6:	f8d7 3104 	ldr.w	r3, [r7, #260]	; 0x104
/home/st/桌面/OP-TEE/optee_os/lib/libutee/trace_ext.c:72 (discriminator 1)
    28fa:	4618      	mov	r0, r3
    28fc:	f507 7784 	add.w	r7, r7, #264	; 0x108
    2900:	46bd      	mov	sp, r7
    2902:	e9dd 7e00 	ldrd	r7, lr, [sp]
    2906:	b002      	add	sp, #8
    2908:	b004      	add	sp, #16
    290a:	4770      	bx	lr

0000290c <puts>:
puts():
/home/st/桌面/OP-TEE/optee_os/lib/libutee/trace_ext.c:75
    290c:	e96d 7e02 	strd	r7, lr, [sp, #-8]!
    2910:	b082      	sub	sp, #8
    2912:	af00      	add	r7, sp, #0
    2914:	6078      	str	r0, [r7, #4]
/home/st/桌面/OP-TEE/optee_os/lib/libutee/trace_ext.c:76
    2916:	f002 fc1f 	bl	5158 <trace_get_level>
    291a:	4603      	mov	r3, r0
    291c:	2b00      	cmp	r3, #0
    291e:	dd07      	ble.n	2930 <puts+0x24>
/home/st/桌面/OP-TEE/optee_os/lib/libutee/trace_ext.c:77
    2920:	6878      	ldr	r0, [r7, #4]
    2922:	f7ff ffa3 	bl	286c <trace_ext_puts>
/home/st/桌面/OP-TEE/optee_os/lib/libutee/trace_ext.c:78
    2926:	4b06      	ldr	r3, [pc, #24]	; (2940 <puts+0x34>)
